Component: ARM Compiler 5.05 update 1 (build 106) Tool: armlink [4d0efa]

==============================================================================

Section Cross References

    uav_task.o(i._Z10task_10_msv) refers to dev_clock.o(i._Z11Get_Cycle_Th) for Get_Cycle_T(unsigned char)
    uav_task.o(i._Z10task_10_msv) refers to dev_ms5611.o(i._ZN7_MS561110DataUpdateEv) for _MS5611::DataUpdate()
    uav_task.o(i._Z10task_10_msv) refers to nav_speed.o(i._ZN6NAV_V_8get_ms_vEf) for NAV_V_::get_ms_v(float)
    uav_task.o(i._Z10task_10_msv) refers to dev_ak8975.o(i._ZN7_AK897510DataSampleEv) for _AK8975::DataSample()
    uav_task.o(i._Z10task_10_msv) refers to uav_attitude.o(i._ZN9_ATTITUDE10DISControlEf) for _ATTITUDE::DISControl(float)
    uav_task.o(i._Z10task_10_msv) refers to dev_ms5611.o(.bss) for Ms5611
    uav_task.o(i._Z10task_10_msv) refers to nav_speed.o(.bss) for nav_v
    uav_task.o(i._Z10task_10_msv) refers to dev_ak8975.o(.bss) for Ak8975
    uav_task.o(i._Z10task_10_msv) refers to uav_attitude.o(.bss) for Attitude
    uav_task.o(i._Z10task_20_msv) refers to dev_gps.o(i._Z8GPS_Callv) for GPS_Call()
    uav_task.o(i._Z10task_50_msv) refers to dev_us100.o(i._ZN6_US10012SampleTrigerEf) for _US100::SampleTriger(float)
    uav_task.o(i._Z10task_50_msv) refers to dev_us100.o(.bss) for Us100
    uav_task.o(i._Z8TaskLoopv) refers to uav_task.o(i._Z9task_1_msv) for task_1_ms()
    uav_task.o(i._Z8TaskLoopv) refers to uav_task.o(i._Z9task_2_msv) for task_2_ms()
    uav_task.o(i._Z8TaskLoopv) refers to uav_task.o(i._Z9task_8_msv) for task_8_ms()
    uav_task.o(i._Z8TaskLoopv) refers to uav_task.o(i._Z10task_10_msv) for task_10_ms()
    uav_task.o(i._Z8TaskLoopv) refers to uav_task.o(i._Z10task_20_msv) for task_20_ms()
    uav_task.o(i._Z8TaskLoopv) refers to uav_task.o(i._Z10task_50_msv) for task_50_ms()
    uav_task.o(i._Z8TaskLoopv) refers to dev_clock.o(.bss) for loop
    uav_task.o(i._Z9task_2_msv) refers to dev_mavlink.o(i._ZN8_MAVLINK13Data_ExchangeEv) for _MAVLINK::Data_Exchange()
    uav_task.o(i._Z9task_2_msv) refers to dev_clock.o(i._Z11Get_Cycle_Th) for Get_Cycle_T(unsigned char)
    uav_task.o(i._Z9task_2_msv) refers to imu.o(i._ZN3IMU12SensorSampleEv) for IMU::SensorSample()
    uav_task.o(i._Z9task_2_msv) refers to uav_adrc.o(i._ZN5_ADRC7AngularEf) for _ADRC::Angular(float)
    uav_task.o(i._Z9task_2_msv) refers to dev_mavlink.o(.bss) for Mavlink
    uav_task.o(i._Z9task_2_msv) refers to imu.o(.bss) for imu
    uav_task.o(i._Z9task_2_msv) refers to uav_adrc.o(.data) for Adrc_
    uav_task.o(i._Z9task_5_msv) refers to dev_clock.o(i._Z11Get_Cycle_Th) for Get_Cycle_T(unsigned char)
    uav_task.o(i._Z9task_5_msv) refers to uav_rc.o(i._ZN3_RC9DataMangeEf) for _RC::DataMange(float)
    uav_task.o(i._Z9task_5_msv) refers to ekf_att_pos_estimator_main.o(i._ZN28AttitudePositionEstimatorEKF7loop_upEv) for AttitudePositionEstimatorEKF::loop_up()
    uav_task.o(i._Z9task_5_msv) refers to uav_adrc.o(i._ZN5_ADRC5AngleEf) for _ADRC::Angle(float)
    uav_task.o(i._Z9task_5_msv) refers to nav_speed.o(i._ZN6NAV_V_7get_a_vEf) for NAV_V_::get_a_v(float)
    uav_task.o(i._Z9task_5_msv) refers to nav_speed.o(i._ZN6NAV_V_4eastEf) for NAV_V_::east(float)
    uav_task.o(i._Z9task_5_msv) refers to control_v.o(i._ZN8CONTROL_1VEv) for CONTROL_::V()
    uav_task.o(i._Z9task_5_msv) refers to uav_rc.o(.bss) for Rc
    uav_task.o(i._Z9task_5_msv) refers to ekf_att_pos_estimator_main.o(.bss) for att_ekf
    uav_task.o(i._Z9task_5_msv) refers to uav_adrc.o(.data) for Adrc_
    uav_task.o(i._Z9task_5_msv) refers to nav_speed.o(.bss) for nav_v
    uav_task.o(i._Z9task_5_msv) refers to control_v.o(.data) for ctrl
    uav_task.o(i._Z9task_8_msv) refers to dev_clock.o(i._Z11Get_Cycle_Th) for Get_Cycle_T(unsigned char)
    uav_task.o(i.__sti___12_uav_task_cpp_UAV) refers to uav_task.o(.bss) for UAV
    uav_task.o(i.main) refers to dev_clock.o(i._Z21SysTick_Configurationv) for SysTick_Configuration()
    uav_task.o(i.main) refers to uav_init.o(i._ZN4_UAV4InitEv) for _UAV::Init()
    uav_task.o(i.main) refers to imu.o(i._ZN3IMU4InitEv) for IMU::Init()
    uav_task.o(i.main) refers to uav_task.o(i._Z8TaskLoopv) for TaskLoop()
    uav_task.o(i.main) refers to imu.o(.bss) for imu
    uav_task.o(i.main) refers to uav_task.o(.data) for counT
    uav_task.o(.ARM.exidx) refers to uav_task.o(i._Z9task_1_msv) for i._Z9task_1_msv
    uav_task.o(.ARM.exidx) refers to uav_task.o(i._Z9task_2_msv) for i._Z9task_2_msv
    uav_task.o(.ARM.exidx) refers to uav_task.o(i._Z9task_5_msv) for i._Z9task_5_msv
    uav_task.o(.ARM.exidx) refers to uav_task.o(i._Z9task_8_msv) for i._Z9task_8_msv
    uav_task.o(.ARM.exidx) refers to uav_task.o(i._Z10task_10_msv) for i._Z10task_10_msv
    uav_task.o(.ARM.exidx) refers to uav_task.o(i._Z10task_20_msv) for i._Z10task_20_msv
    uav_task.o(.ARM.exidx) refers to uav_task.o(i._Z10task_50_msv) for i._Z10task_50_msv
    uav_task.o(.ARM.exidx) refers to uav_task.o(i._Z8TaskLoopv) for i._Z8TaskLoopv
    uav_task.o(.ARM.exidx) refers to uav_task.o(i.main) for i.main
    uav_task.o(.ARM.exidx) refers to uav_task.o(i.__sti___12_uav_task_cpp_UAV) for i.__sti___12_uav_task_cpp_UAV
    uav_task.o(.init_array) refers to uav_task.o(i.__sti___12_uav_task_cpp_UAV) for __sti___12_uav_task_cpp_UAV
    uav_task.o(.init_array) refers to cpp_init.o(.text) for __cpp_initialize__aeabi_
    uav_control.o(i._ZN8_CONTROL19DecompositionOutputEv) refers to dev_moto.o(i._ZN5_MOTO6SetPwmEPt) for _MOTO::SetPwm(unsigned short*)
    uav_control.o(i._ZN8_CONTROL19DecompositionOutputEv) refers to uav_control.o(.bss) for qAngular
    uav_control.o(i._ZN8_CONTROL19DecompositionOutputEv) refers to uav_rc.o(.bss) for Rc
    uav_control.o(i._ZN8_CONTROL19DecompositionOutputEv) refers to dev_mavlink.o(.bss) for debug
    uav_control.o(i._ZN8_CONTROL19DecompositionOutputEv) refers to dev_moto.o(.data) for Moto
    uav_control.o(i._ZN8_CONTROL4InitEv) refers to uav_pid.o(i._ZN4_PID4InitEfff) for _PID::Init(float, float, float)
    uav_control.o(i._ZN8_CONTROL4InitEv) refers to uav_control.o(.bss) for qAngle
    uav_control.o(i._ZN8_CONTROL5AngleEf) refers to cal_math.o(i._Z9deathzoomff) for deathzoom(float, float)
    uav_control.o(i._ZN8_CONTROL5AngleEf) refers to f2d.o(.text) for __aeabi_f2d
    uav_control.o(i._ZN8_CONTROL5AngleEf) refers to dmul.o(.text) for __aeabi_dmul
    uav_control.o(i._ZN8_CONTROL5AngleEf) refers to dadd.o(.text) for __aeabi_dadd
    uav_control.o(i._ZN8_CONTROL5AngleEf) refers to d2f.o(.text) for __aeabi_d2f
    uav_control.o(i._ZN8_CONTROL5AngleEf) refers to cal_math.o(i._Z14To_180_degreesf) for To_180_degrees(float)
    uav_control.o(i._ZN8_CONTROL5AngleEf) refers to uav_pid.o(i._ZN4_PID6GetErrEf) for _PID::GetErr(float)
    uav_control.o(i._ZN8_CONTROL5AngleEf) refers to uav_pid.o(i._ZN4_PID5Err_dEf) for _PID::Err_d(float)
    uav_control.o(i._ZN8_CONTROL5AngleEf) refers to uav_pid.o(i._ZN4_PID8disErr_iEff) for _PID::disErr_i(float, float)
    uav_control.o(i._ZN8_CONTROL5AngleEf) refers to uav_rc.o(.bss) for Rc
    uav_control.o(i._ZN8_CONTROL5AngleEf) refers to uav_control.o(.bss) for qAngle
    uav_control.o(i._ZN8_CONTROL5AngleEf) refers to imu.o(.bss) for imu
    uav_control.o(i._ZN8_CONTROL5AngleEf) refers to uav_pid.o(i._ZN4_PID3CalEv) for _PID::Cal()
    uav_control.o(i._ZN8_CONTROL7AngularEf) refers to uav_pid.o(i._ZN4_PID6GetErrEf) for _PID::GetErr(float)
    uav_control.o(i._ZN8_CONTROL7AngularEf) refers to f2d.o(.text) for __aeabi_f2d
    uav_control.o(i._ZN8_CONTROL7AngularEf) refers to dmul.o(.text) for __aeabi_dmul
    uav_control.o(i._ZN8_CONTROL7AngularEf) refers to dadd.o(.text) for __aeabi_dadd
    uav_control.o(i._ZN8_CONTROL7AngularEf) refers to d2f.o(.text) for __aeabi_d2f
    uav_control.o(i._ZN8_CONTROL7AngularEf) refers to dev_mup6050.o(.bss) for Mpu6050
    uav_control.o(i._ZN8_CONTROL7AngularEf) refers to uav_control.o(.bss) for last_gyr_Err
    uav_control.o(i._ZN8_CONTROL7AngularEf) refers to uav_rc.o(.bss) for Rc
    uav_control.o(i._ZN8_CONTROL7AngularEf) refers to uav_pid.o(i._ZN4_PID5Err_dEf) for _PID::Err_d(float)
    uav_control.o(i._ZN8_CONTROL7AngularEf) refers to uav_pid.o(i._ZN4_PID8disErr_iEff) for _PID::disErr_i(float, float)
    uav_control.o(i._ZN8_CONTROL7AngularEf) refers to uav_pid.o(i._ZN4_PID3CalEv) for _PID::Cal()
    uav_control.o(i._ZN8_CONTROL7AngularEf) refers to uav_control.o(i._ZN8_CONTROL19DecompositionOutputEv) for _CONTROL::DecompositionOutput()
    uav_control.o(.ARM.exidx) refers to uav_control.o(i._ZN8_CONTROL4InitEv) for i._ZN8_CONTROL4InitEv
    uav_control.o(.ARM.exidx) refers to uav_control.o(i._ZN8_CONTROL19DecompositionOutputEv) for i._ZN8_CONTROL19DecompositionOutputEv
    uav_control.o(.ARM.exidx) refers to uav_control.o(i._ZN8_CONTROL7AngularEf) for i._ZN8_CONTROL7AngularEf
    uav_control.o(.ARM.exidx) refers to uav_control.o(i._ZN8_CONTROL5AngleEf) for i._ZN8_CONTROL5AngleEf
    uav_adrc.o(i._Z11AngularRotef) refers to cal_adrc.o(i._Z15TrackingDiffCalR13Tracking_Diffff) for TrackingDiffCal(Tracking_Diff&, float, float)
    uav_adrc.o(i._Z11AngularRotef) refers to dev_mup6050.o(.bss) for Mpu6050
    uav_adrc.o(i._Z11AngularRotef) refers to uav_adrc.o(.data) for lx
    uav_adrc.o(i._Z11AngularRotef) refers to uav_adrc.o(.bss) for tdr
    uav_adrc.o(i._ZN5_ADRC4InitEv) refers to fal_initialize.o(i._Z14fal_initializev) for fal_initialize()
    uav_adrc.o(i._ZN5_ADRC4InitEv) refers to cal_adrc.o(i._Z16TrackingDiffInitR13Tracking_Difff) for TrackingDiffInit(Tracking_Diff&, float)
    uav_adrc.o(i._ZN5_ADRC4InitEv) refers to uav_adrc.o(.bss) for td
    uav_adrc.o(i._ZN5_ADRC5AngleEf) refers to cal_math.o(i._Z9deathzoomff) for deathzoom(float, float)
    uav_adrc.o(i._ZN5_ADRC5AngleEf) refers to f2d.o(.text) for __aeabi_f2d
    uav_adrc.o(i._ZN5_ADRC5AngleEf) refers to dmul.o(.text) for __aeabi_dmul
    uav_adrc.o(i._ZN5_ADRC5AngleEf) refers to dadd.o(.text) for __aeabi_dadd
    uav_adrc.o(i._ZN5_ADRC5AngleEf) refers to d2f.o(.text) for __aeabi_d2f
    uav_adrc.o(i._ZN5_ADRC5AngleEf) refers to cal_math.o(i._Z14To_180_degreesf) for To_180_degrees(float)
    uav_adrc.o(i._ZN5_ADRC5AngleEf) refers to cal_adrc.o(i._Z15TrackingDiffCalR13Tracking_Diffff) for TrackingDiffCal(Tracking_Diff&, float, float)
    uav_adrc.o(i._ZN5_ADRC5AngleEf) refers to uav_adrc.o(.data) for sgt
    uav_adrc.o(i._ZN5_ADRC5AngleEf) refers to uav_adrc.o(.bss) for aglp
    uav_adrc.o(i._ZN5_ADRC5AngleEf) refers to uav_rc.o(.bss) for Rc
    uav_adrc.o(i._ZN5_ADRC5AngleEf) refers to imu.o(.bss) for imu
    uav_adrc.o(i._ZN5_ADRC7AngularEf) refers to f2d.o(.text) for __aeabi_f2d
    uav_adrc.o(i._ZN5_ADRC7AngularEf) refers to dmul.o(.text) for __aeabi_dmul
    uav_adrc.o(i._ZN5_ADRC7AngularEf) refers to dadd.o(.text) for __aeabi_dadd
    uav_adrc.o(i._ZN5_ADRC7AngularEf) refers to d2f.o(.text) for __aeabi_d2f
    uav_adrc.o(i._ZN5_ADRC7AngularEf) refers to cal_adrc.o(i._Z15TrackingDiffCalR13Tracking_Diffff) for TrackingDiffCal(Tracking_Diff&, float, float)
    uav_adrc.o(i._ZN5_ADRC7AngularEf) refers to uav_adrc.o(.bss) for agulp
    uav_adrc.o(i._ZN5_ADRC7AngularEf) refers to dev_mup6050.o(.bss) for Mpu6050
    uav_adrc.o(i._ZN5_ADRC7AngularEf) refers to uav_adrc.o(.data) for agut
    uav_adrc.o(i._ZN5_ADRC7AngularEf) refers to uav_rc.o(.bss) for Rc
    uav_adrc.o(i._ZN5_ADRC7AngularEf) refers to dev_moto.o(i._ZN5_MOTO6SetPwmEPt) for _MOTO::SetPwm(unsigned short*)
    uav_adrc.o(i._ZN5_ADRC7AngularEf) refers to control_v.o(.data) for ctrl
    uav_adrc.o(i._ZN5_ADRC7AngularEf) refers to dev_moto.o(.data) for Moto
    uav_adrc.o(.ARM.exidx) refers to uav_adrc.o(i._Z11AngularRotef) for i._Z11AngularRotef
    uav_adrc.o(.ARM.exidx) refers to uav_adrc.o(i._ZN5_ADRC4InitEv) for i._ZN5_ADRC4InitEv
    uav_adrc.o(.ARM.exidx) refers to uav_adrc.o(i._ZN5_ADRC5AngleEf) for i._ZN5_ADRC5AngleEf
    uav_adrc.o(.ARM.exidx) refers to uav_adrc.o(i._ZN5_ADRC7AngularEf) for i._ZN5_ADRC7AngularEf
    uav_pid.o(i._ZN4_PID5Err_dEf) refers to f2d.o(.text) for __aeabi_f2d
    uav_pid.o(i._ZN4_PID5Err_dEf) refers to ddiv.o(.text) for __aeabi_ddiv
    uav_pid.o(i._ZN4_PID5Err_dEf) refers to dmul.o(.text) for __aeabi_dmul
    uav_pid.o(i._ZN4_PID5Err_dEf) refers to d2f.o(.text) for __aeabi_d2f
    uav_pid.o(.ARM.exidx) refers to uav_pid.o(i._ZN4_PID4InitEfff) for i._ZN4_PID4InitEfff
    uav_pid.o(.ARM.exidx) refers to uav_pid.o(i._ZN4_PID6GetErrEf) for i._ZN4_PID6GetErrEf
    uav_pid.o(.ARM.exidx) refers to uav_pid.o(i._ZN4_PID8disErr_iEff) for i._ZN4_PID8disErr_iEff
    uav_pid.o(.ARM.exidx) refers to uav_pid.o(i._ZN4_PID5Err_iEf) for i._ZN4_PID5Err_iEf
    uav_pid.o(.ARM.exidx) refers to uav_pid.o(i._ZN4_PID5Err_dEf) for i._ZN4_PID5Err_dEf
    uav_pid.o(.ARM.exidx) refers to uav_pid.o(i._ZN4_PID3CalEv) for i._ZN4_PID3CalEv
    uav_init.o(i._ZN4_UAV4InitEv) refers to dev_rcc.o(i._ZN4_RCC13ConfigurationEv) for _RCC::Configuration()
    uav_init.o(i._ZN4_UAV4InitEv) refers to dev_port.o(i._ZN5_PORT13ConfigurationEv) for _PORT::Configuration()
    uav_init.o(i._ZN4_UAV4InitEv) refers to dev_usart.o(i._ZN6_USART13ConfigurationEv) for _USART::Configuration()
    uav_init.o(i._ZN4_UAV4InitEv) refers to dev_nvic.o(i._ZN5_NVIC13ConfigurationEv) for _NVIC::Configuration()
    uav_init.o(i._ZN4_UAV4InitEv) refers to dev_dma.o(i._ZN4_DMA13ConfigurationEv) for _DMA::Configuration()
    uav_init.o(i._ZN4_UAV4InitEv) refers to dev_led.o(i._ZN4_LED13ConfigurationEv) for _LED::Configuration()
    uav_init.o(i._ZN4_UAV4InitEv) refers to dev_flash.o(i._ZN11_FLASH25Q325Init_Ev) for _FLASH25Q32::Init_()
    uav_init.o(i._ZN4_UAV4InitEv) refers to uav_parameter.o(i._ZN10_PARAMETER13ConfigurationEv) for _PARAMETER::Configuration()
    uav_init.o(i._ZN4_UAV4InitEv) refers to uav_control.o(i._ZN8_CONTROL4InitEv) for _CONTROL::Init()
    uav_init.o(i._ZN4_UAV4InitEv) refers to uav_adrc.o(i._ZN5_ADRC4InitEv) for _ADRC::Init()
    uav_init.o(i._ZN4_UAV4InitEv) refers to nav_h.o(i._ZN6NAV_H_4InitEv) for NAV_H_::Init()
    uav_init.o(i._ZN4_UAV4InitEv) refers to uav_attitude.o(i._ZN9_ATTITUDE4InitEv) for _ATTITUDE::Init()
    uav_init.o(i._ZN4_UAV4InitEv) refers to dev_clock.o(i._Z8Delay_msj) for Delay_ms(unsigned)
    uav_init.o(i._ZN4_UAV4InitEv) refers to dev_moto.o(i._ZN5_MOTO8MotoInitEv) for _MOTO::MotoInit()
    uav_init.o(i._ZN4_UAV4InitEv) refers to dev_mup6050.o(i._ZN8_MPU605013ConfigurationEt) for _MPU6050::Configuration(unsigned short)
    uav_init.o(i._ZN4_UAV4InitEv) refers to dev_ms5611.o(i._ZN7_MS561113ConfigurationEv) for _MS5611::Configuration()
    uav_init.o(i._ZN4_UAV4InitEv) refers to dev_dma.o(.bss) for Dma
    uav_init.o(i._ZN4_UAV4InitEv) refers to dev_led.o(.data) for Led
    uav_init.o(i._ZN4_UAV4InitEv) refers to dev_flash.o(.data) for flash25q32
    uav_init.o(i._ZN4_UAV4InitEv) refers to uav_parameter.o(.bss) for Pamameter
    uav_init.o(i._ZN4_UAV4InitEv) refers to uav_control.o(.data) for Control
    uav_init.o(i._ZN4_UAV4InitEv) refers to uav_adrc.o(.data) for Adrc_
    uav_init.o(i._ZN4_UAV4InitEv) refers to nav_h.o(.bss) for nav_h
    uav_init.o(i._ZN4_UAV4InitEv) refers to uav_attitude.o(.bss) for Attitude
    uav_init.o(i._ZN4_UAV4InitEv) refers to dev_moto.o(.data) for Moto
    uav_init.o(i._ZN4_UAV4InitEv) refers to dev_mup6050.o(.bss) for Mpu6050
    uav_init.o(i._ZN4_UAV4InitEv) refers to dev_ms5611.o(.bss) for Ms5611
    uav_init.o(.ARM.exidx) refers to uav_init.o(i._ZN4_UAV4InitEv) for i._ZN4_UAV4InitEv
    uav_filter.o(i._ZN6Filter10MoveWindowE7Vector3IsEPS1_S1_S2_h) refers to cxa_guard_acquire.o(i.__cxa_guard_acquire) for __cxa_guard_acquire
    uav_filter.o(i._ZN6Filter10MoveWindowE7Vector3IsEPS1_S1_S2_h) refers to uav_filter.o(t._ZN7Vector3IiEC1Ev) for Vector3<int>::Vector3()
    uav_filter.o(i._ZN6Filter10MoveWindowE7Vector3IsEPS1_S1_S2_h) refers to aeabi_vec_ctor_nocookie_nodtor.o(i.__aeabi_vec_ctor_nocookie_nodtor) for __aeabi_vec_ctor_nocookie_nodtor
    uav_filter.o(i._ZN6Filter10MoveWindowE7Vector3IsEPS1_S1_S2_h) refers to uav_filter.o(.data) for _ZGV_ZZN6Filter10MoveWindowE7Vector3IsEPS1_S1_S2_hE13FilterNumbers
    uav_filter.o(i._ZN6Filter10MoveWindowE7Vector3IsEPS1_S1_S2_h) refers to uav_filter.o(.bss) for Filter::MoveWindow(Vector3<short>, Vector3<short>*, Vector3<short>, Vector3<short>*, unsigned char)::temp_gyro
    uav_filter.o(i._ZN6Filter10MoveWindowE7Vector3IsEPS1_S1_S2_h) refers to uav_filter.o(t._ZN7Vector3IsEC1Ev) for Vector3<short>::Vector3()
    uav_filter.o(i._ZN6Filter6CF_1stE7Vector3IfES1_f) refers to cal_vector3.o(t._ZNK7Vector3IfEmlEf) for Vector3<float>::operator *(float) const
    uav_filter.o(i._ZN6Filter6CF_1stE7Vector3IfES1_f) refers to cal_vector3.o(t._ZNK7Vector3IfEplERKS0_) for Vector3<float>::operator +(const Vector3<float>&) const
    uav_filter.o(i._ZN6Filter7LPF_1stE7Vector3IfES1_f) refers to cal_vector3.o(t._ZNK7Vector3IfEmlEf) for Vector3<float>::operator *(float) const
    uav_filter.o(i._ZN6Filter7LPF_1stE7Vector3IfES1_f) refers to cal_vector3.o(t._ZNK7Vector3IfEplERKS0_) for Vector3<float>::operator +(const Vector3<float>&) const
    uav_filter.o(i._ZN6Filter7LPF_2ndEPNS_12LPF2ndData_tE7Vector3IfE) refers to cal_vector3.o(t._ZNK7Vector3IfEmlEf) for Vector3<float>::operator *(float) const
    uav_filter.o(i._ZN6Filter7LPF_2ndEPNS_12LPF2ndData_tE7Vector3IfE) refers to cal_vector3.o(t._ZNK7Vector3IfEplERKS0_) for Vector3<float>::operator +(const Vector3<float>&) const
    uav_filter.o(i._ZN6Filter7LPF_2ndEPNS_12LPF2ndData_tE7Vector3IfE) refers to cal_vector3.o(t._ZNK7Vector3IfEmiERKS0_) for Vector3<float>::operator -(const Vector3<float>&) const
    uav_filter.o(i._ZN6Filter9MeanValueEf) refers to f2d.o(.text) for __aeabi_f2d
    uav_filter.o(i._ZN6Filter9MeanValueEf) refers to ddiv.o(.text) for __aeabi_ddiv
    uav_filter.o(i._ZN6Filter9MeanValueEf) refers to d2f.o(.text) for __aeabi_d2f
    uav_filter.o(i._ZN6Filter9MeanValueEf) refers to uav_filter.o(.data) for fifcount
    uav_filter.o(i._ZN6Filter9MeanValueEf) refers to uav_filter.o(.bss) for fiftem
    uav_filter.o(i.__sti___14_uav_filter_cpp_filter) refers to uav_filter.o(.data) for filter
    uav_filter.o(.ARM.exidx) refers to uav_filter.o(i._ZN6Filter18LPF_1st_Factor_CalEff) for i._ZN6Filter18LPF_1st_Factor_CalEff
    uav_filter.o(.ARM.exidx) refers to uav_filter.o(i._ZN6Filter18LPF_2nd_Factor_CalEffPNS_12LPF2ndData_tE) for i._ZN6Filter18LPF_2nd_Factor_CalEffPNS_12LPF2ndData_tE
    uav_filter.o(.ARM.exidx) refers to uav_filter.o(i._ZN6Filter13CF_Factor_CalEff) for i._ZN6Filter13CF_Factor_CalEff
    uav_filter.o(.ARM.exidx) refers to uav_filter.o(i._ZN6Filter7LPF_1stE7Vector3IfES1_f) for i._ZN6Filter7LPF_1stE7Vector3IfES1_f
    uav_filter.o(.ARM.exidx) refers to uav_filter.o(i._ZN6Filter7LPF_2ndEPNS_12LPF2ndData_tE7Vector3IfE) for i._ZN6Filter7LPF_2ndEPNS_12LPF2ndData_tE7Vector3IfE
    uav_filter.o(.ARM.exidx) refers to uav_filter.o(i._ZN6Filter6CF_1stE7Vector3IfES1_f) for i._ZN6Filter6CF_1stE7Vector3IfES1_f
    uav_filter.o(.ARM.exidx) refers to uav_filter.o(i._ZN6Filter10MoveWindowE7Vector3IsEPS1_S1_S2_h) for i._ZN6Filter10MoveWindowE7Vector3IsEPS1_S1_S2_h
    uav_filter.o(.ARM.exidx) refers to uav_filter.o(i._ZN6Filter14Moving_AverageEfPftPtS0_) for i._ZN6Filter14Moving_AverageEfPftPtS0_
    uav_filter.o(.ARM.exidx) refers to uav_filter.o(i._ZN6Filter9MeanValueEf) for i._ZN6Filter9MeanValueEf
    uav_filter.o(.ARM.exidx) refers to uav_filter.o(i.__sti___14_uav_filter_cpp_filter) for i.__sti___14_uav_filter_cpp_filter
    uav_filter.o(.init_array) refers to uav_filter.o(i.__sti___14_uav_filter_cpp_filter) for __sti___14_uav_filter_cpp_filter
    uav_filter.o(.init_array) refers to cpp_init.o(.text) for __cpp_initialize__aeabi_
    uav_rc.o(i._ZN3_RC14HoveringFlightEv) refers to imu.o(.bss) for imu
    uav_rc.o(i._ZN3_RC3ThrEv) refers to f2d.o(.text) for __aeabi_f2d
    uav_rc.o(i._ZN3_RC3ThrEv) refers to dmul.o(.text) for __aeabi_dmul
    uav_rc.o(i._ZN3_RC3ThrEv) refers to d2f.o(.text) for __aeabi_d2f
    uav_rc.o(i._ZN3_RC3ThrEv) refers to ddiv.o(.text) for __aeabi_ddiv
    uav_rc.o(i._ZN3_RC3ThrEv) refers to dev_debus.o(.bss) for Debus
    uav_rc.o(i._ZN3_RC7DeblockEf) refers to dev_debus.o(.bss) for Debus
    uav_rc.o(i._ZN3_RC7DeblockEf) refers to uav_rc.o(.data) for unlockcnt
    uav_rc.o(i._ZN3_RC9DataMangeEf) refers to uav_rc.o(i._ZN3_RC3ThrEv) for _RC::Thr()
    uav_rc.o(i._ZN3_RC9DataMangeEf) refers to uav_rc.o(i._ZN3_RC7DeblockEf) for _RC::Deblock(float)
    uav_rc.o(i._ZN3_RC9DataMangeEf) refers to uav_rc.o(i._ZN3_RC4ModeEv) for _RC::Mode()
    uav_rc.o(i._ZN3_RC9DataMangeEf) refers to dev_debus.o(.bss) for Debus
    uav_rc.o(.ARM.exidx) refers to uav_rc.o(i._ZN3_RC4ModeEv) for i._ZN3_RC4ModeEv
    uav_rc.o(.ARM.exidx) refers to uav_rc.o(i._ZN3_RC7DeblockEf) for i._ZN3_RC7DeblockEf
    uav_rc.o(.ARM.exidx) refers to uav_rc.o(i._ZN3_RC3ThrEv) for i._ZN3_RC3ThrEv
    uav_rc.o(.ARM.exidx) refers to uav_rc.o(i._ZN3_RC9DataMangeEf) for i._ZN3_RC9DataMangeEf
    uav_rc.o(.ARM.exidx) refers to uav_rc.o(i._ZN3_RC14HoveringFlightEv) for i._ZN3_RC14HoveringFlightEv
    uav_parameter.o(i._ZN10_PARAMETER12ReadAnglePIDEv) refers to dev_flash.o(i._ZN11_FLASH25Q3216SPI_Flash_Read_fEjPft) for _FLASH25Q32::SPI_Flash_Read_f(unsigned, float*, unsigned short)
    uav_parameter.o(i._ZN10_PARAMETER12ReadAnglePIDEv) refers to printfa.o(i.__0printf) for __2printf
    uav_parameter.o(i._ZN10_PARAMETER12ReadAnglePIDEv) refers to dev_flash.o(.data) for flash25q32
    uav_parameter.o(i._ZN10_PARAMETER12ReadAnglePIDEv) refers to uav_control.o(.bss) for qAngle
    uav_parameter.o(i._ZN10_PARAMETER12SaveAnglePIDEv) refers to dev_flash.o(i._ZN11_FLASH25Q3217SPI_Flash_Write_fEjPft) for _FLASH25Q32::SPI_Flash_Write_f(unsigned, float*, unsigned short)
    uav_parameter.o(i._ZN10_PARAMETER12SaveAnglePIDEv) refers to printfa.o(i.__0printf) for __2printf
    uav_parameter.o(i._ZN10_PARAMETER12SaveAnglePIDEv) refers to uav_control.o(.bss) for qAngle
    uav_parameter.o(i._ZN10_PARAMETER12SaveAnglePIDEv) refers to dev_flash.o(.data) for flash25q32
    uav_parameter.o(i._ZN10_PARAMETER13ConfigurationEv) refers to uav_parameter.o(i._ZN10_PARAMETER15ReadGyrOffersetEv) for _PARAMETER::ReadGyrOfferset()
    uav_parameter.o(i._ZN10_PARAMETER13ConfigurationEv) refers to dev_clock.o(i._Z8Delay_msj) for Delay_ms(unsigned)
    uav_parameter.o(i._ZN10_PARAMETER13ConfigurationEv) refers to uav_parameter.o(i._ZN10_PARAMETER15ReadAccOffersetEv) for _PARAMETER::ReadAccOfferset()
    uav_parameter.o(i._ZN10_PARAMETER13ConfigurationEv) refers to uav_parameter.o(i._ZN10_PARAMETER15ReadMagOffersetEv) for _PARAMETER::ReadMagOfferset()
    uav_parameter.o(i._ZN10_PARAMETER13ConfigurationEv) refers to uav_parameter.o(i._ZN10_PARAMETER12ReadAnglePIDEv) for _PARAMETER::ReadAnglePID()
    uav_parameter.o(i._ZN10_PARAMETER13ConfigurationEv) refers to uav_parameter.o(i._ZN10_PARAMETER14ReadAngularPIDEv) for _PARAMETER::ReadAngularPID()
    uav_parameter.o(i._ZN10_PARAMETER13ConfigurationEv) refers to uav_parameter.o(i._ZN10_PARAMETER18Read_UL_DIS_SPEPIDEv) for _PARAMETER::Read_UL_DIS_SPEPID()
    uav_parameter.o(i._ZN10_PARAMETER13ConfigurationEv) refers to uav_parameter.o(i._ZN10_PARAMETER18Read_MS_DIS_SPEPIDEv) for _PARAMETER::Read_MS_DIS_SPEPID()
    uav_parameter.o(i._ZN10_PARAMETER14ReadAngularPIDEv) refers to dev_flash.o(i._ZN11_FLASH25Q3216SPI_Flash_Read_fEjPft) for _FLASH25Q32::SPI_Flash_Read_f(unsigned, float*, unsigned short)
    uav_parameter.o(i._ZN10_PARAMETER14ReadAngularPIDEv) refers to printfa.o(i.__0printf) for __2printf
    uav_parameter.o(i._ZN10_PARAMETER14ReadAngularPIDEv) refers to dev_flash.o(.data) for flash25q32
    uav_parameter.o(i._ZN10_PARAMETER14ReadAngularPIDEv) refers to uav_control.o(.bss) for qAngular
    uav_parameter.o(i._ZN10_PARAMETER14SaveAngularPIDEv) refers to dev_flash.o(i._ZN11_FLASH25Q3217SPI_Flash_Write_fEjPft) for _FLASH25Q32::SPI_Flash_Write_f(unsigned, float*, unsigned short)
    uav_parameter.o(i._ZN10_PARAMETER14SaveAngularPIDEv) refers to printfa.o(i.__0printf) for __2printf
    uav_parameter.o(i._ZN10_PARAMETER14SaveAngularPIDEv) refers to uav_control.o(.bss) for qAngular
    uav_parameter.o(i._ZN10_PARAMETER14SaveAngularPIDEv) refers to dev_flash.o(.data) for flash25q32
    uav_parameter.o(i._ZN10_PARAMETER15ReadAccOffersetEv) refers to dev_flash.o(i._ZN11_FLASH25Q3216SPI_Flash_Read_fEjPft) for _FLASH25Q32::SPI_Flash_Read_f(unsigned, float*, unsigned short)
    uav_parameter.o(i._ZN10_PARAMETER15ReadAccOffersetEv) refers to f2d.o(.text) for __aeabi_f2d
    uav_parameter.o(i._ZN10_PARAMETER15ReadAccOffersetEv) refers to printfa.o(i.__0printf) for __2printf
    uav_parameter.o(i._ZN10_PARAMETER15ReadAccOffersetEv) refers to dev_flash.o(.data) for flash25q32
    uav_parameter.o(i._ZN10_PARAMETER15ReadAccOffersetEv) refers to dev_mup6050.o(.bss) for Mpu6050
    uav_parameter.o(i._ZN10_PARAMETER15ReadGyrOffersetEv) refers to dev_flash.o(i._ZN11_FLASH25Q3216SPI_Flash_Read_fEjPft) for _FLASH25Q32::SPI_Flash_Read_f(unsigned, float*, unsigned short)
    uav_parameter.o(i._ZN10_PARAMETER15ReadGyrOffersetEv) refers to f2d.o(.text) for __aeabi_f2d
    uav_parameter.o(i._ZN10_PARAMETER15ReadGyrOffersetEv) refers to printfa.o(i.__0printf) for __2printf
    uav_parameter.o(i._ZN10_PARAMETER15ReadGyrOffersetEv) refers to dev_flash.o(.data) for flash25q32
    uav_parameter.o(i._ZN10_PARAMETER15ReadGyrOffersetEv) refers to dev_mup6050.o(.bss) for Mpu6050
    uav_parameter.o(i._ZN10_PARAMETER15ReadMagOffersetEv) refers to dev_flash.o(i._ZN11_FLASH25Q3216SPI_Flash_Read_fEjPft) for _FLASH25Q32::SPI_Flash_Read_f(unsigned, float*, unsigned short)
    uav_parameter.o(i._ZN10_PARAMETER15ReadMagOffersetEv) refers to f2d.o(.text) for __aeabi_f2d
    uav_parameter.o(i._ZN10_PARAMETER15ReadMagOffersetEv) refers to printfa.o(i.__0printf) for __2printf
    uav_parameter.o(i._ZN10_PARAMETER15ReadMagOffersetEv) refers to dev_flash.o(.data) for flash25q32
    uav_parameter.o(i._ZN10_PARAMETER15ReadMagOffersetEv) refers to dev_ak8975.o(.bss) for Ak8975
    uav_parameter.o(i._ZN10_PARAMETER15SaveAccOffersetE7Vector3IfE) refers to printfa.o(i.__0printf) for __2printf
    uav_parameter.o(i._ZN10_PARAMETER15SaveAccOffersetE7Vector3IfE) refers to dev_flash.o(i._ZN11_FLASH25Q3217SPI_Flash_Write_fEjPft) for _FLASH25Q32::SPI_Flash_Write_f(unsigned, float*, unsigned short)
    uav_parameter.o(i._ZN10_PARAMETER15SaveAccOffersetE7Vector3IfE) refers to dev_flash.o(.data) for flash25q32
    uav_parameter.o(i._ZN10_PARAMETER15SaveGyrOffersetE7Vector3IfE) refers to dev_flash.o(i._ZN11_FLASH25Q3217SPI_Flash_Write_fEjPft) for _FLASH25Q32::SPI_Flash_Write_f(unsigned, float*, unsigned short)
    uav_parameter.o(i._ZN10_PARAMETER15SaveGyrOffersetE7Vector3IfE) refers to printfa.o(i.__0printf) for __2printf
    uav_parameter.o(i._ZN10_PARAMETER15SaveGyrOffersetE7Vector3IfE) refers to dev_flash.o(.data) for flash25q32
    uav_parameter.o(i._ZN10_PARAMETER15SaveMagOffersetE7Vector3IfE) refers to dev_flash.o(i._ZN11_FLASH25Q3217SPI_Flash_Write_fEjPft) for _FLASH25Q32::SPI_Flash_Write_f(unsigned, float*, unsigned short)
    uav_parameter.o(i._ZN10_PARAMETER15SaveMagOffersetE7Vector3IfE) refers to printfa.o(i.__0printf) for __2printf
    uav_parameter.o(i._ZN10_PARAMETER15SaveMagOffersetE7Vector3IfE) refers to dev_flash.o(.data) for flash25q32
    uav_parameter.o(i._ZN10_PARAMETER18Read_MS_DIS_SPEPIDEv) refers to dev_flash.o(i._ZN11_FLASH25Q3216SPI_Flash_Read_fEjPft) for _FLASH25Q32::SPI_Flash_Read_f(unsigned, float*, unsigned short)
    uav_parameter.o(i._ZN10_PARAMETER18Read_MS_DIS_SPEPIDEv) refers to printfa.o(i.__0printf) for __2printf
    uav_parameter.o(i._ZN10_PARAMETER18Read_MS_DIS_SPEPIDEv) refers to dev_flash.o(.data) for flash25q32
    uav_parameter.o(i._ZN10_PARAMETER18Read_MS_DIS_SPEPIDEv) refers to uav_attitude.o(.bss) for z_dis
    uav_parameter.o(i._ZN10_PARAMETER18Read_UL_DIS_SPEPIDEv) refers to dev_flash.o(i._ZN11_FLASH25Q3216SPI_Flash_Read_fEjPft) for _FLASH25Q32::SPI_Flash_Read_f(unsigned, float*, unsigned short)
    uav_parameter.o(i._ZN10_PARAMETER18Read_UL_DIS_SPEPIDEv) refers to printfa.o(i.__0printf) for __2printf
    uav_parameter.o(i._ZN10_PARAMETER18Read_UL_DIS_SPEPIDEv) refers to dev_flash.o(.data) for flash25q32
    uav_parameter.o(i._ZN10_PARAMETER18Read_UL_DIS_SPEPIDEv) refers to uav_attitude.o(.bss) for z_dis
    uav_parameter.o(i._ZN10_PARAMETER18Save_MS_DIS_SPEPIDEv) refers to dev_flash.o(i._ZN11_FLASH25Q3217SPI_Flash_Write_fEjPft) for _FLASH25Q32::SPI_Flash_Write_f(unsigned, float*, unsigned short)
    uav_parameter.o(i._ZN10_PARAMETER18Save_MS_DIS_SPEPIDEv) refers to printfa.o(i.__0printf) for __2printf
    uav_parameter.o(i._ZN10_PARAMETER18Save_MS_DIS_SPEPIDEv) refers to uav_attitude.o(.bss) for z_dis
    uav_parameter.o(i._ZN10_PARAMETER18Save_MS_DIS_SPEPIDEv) refers to dev_flash.o(.data) for flash25q32
    uav_parameter.o(i._ZN10_PARAMETER18Save_UL_DIS_SPEPIDEv) refers to dev_flash.o(i._ZN11_FLASH25Q3217SPI_Flash_Write_fEjPft) for _FLASH25Q32::SPI_Flash_Write_f(unsigned, float*, unsigned short)
    uav_parameter.o(i._ZN10_PARAMETER18Save_UL_DIS_SPEPIDEv) refers to printfa.o(i.__0printf) for __2printf
    uav_parameter.o(i._ZN10_PARAMETER18Save_UL_DIS_SPEPIDEv) refers to uav_attitude.o(.bss) for z_dis
    uav_parameter.o(i._ZN10_PARAMETER18Save_UL_DIS_SPEPIDEv) refers to dev_flash.o(.data) for flash25q32
    uav_parameter.o(i._ZN10_PARAMETER5ResetEv) refers to uav_control.o(.bss) for qAngle
    uav_parameter.o(i._ZN10_PARAMETER5ResetEv) refers to uav_attitude.o(.bss) for z_dis
    uav_parameter.o(.ARM.exidx) refers to uav_parameter.o(i._ZN10_PARAMETER18Read_MS_DIS_SPEPIDEv) for i._ZN10_PARAMETER18Read_MS_DIS_SPEPIDEv
    uav_parameter.o(.ARM.exidx) refers to uav_parameter.o(i._ZN10_PARAMETER18Read_UL_DIS_SPEPIDEv) for i._ZN10_PARAMETER18Read_UL_DIS_SPEPIDEv
    uav_parameter.o(.ARM.exidx) refers to uav_parameter.o(i._ZN10_PARAMETER14ReadAngularPIDEv) for i._ZN10_PARAMETER14ReadAngularPIDEv
    uav_parameter.o(.ARM.exidx) refers to uav_parameter.o(i._ZN10_PARAMETER12ReadAnglePIDEv) for i._ZN10_PARAMETER12ReadAnglePIDEv
    uav_parameter.o(.ARM.exidx) refers to uav_parameter.o(i._ZN10_PARAMETER15ReadMagOffersetEv) for i._ZN10_PARAMETER15ReadMagOffersetEv
    uav_parameter.o(.ARM.exidx) refers to uav_parameter.o(i._ZN10_PARAMETER15ReadAccOffersetEv) for i._ZN10_PARAMETER15ReadAccOffersetEv
    uav_parameter.o(.ARM.exidx) refers to uav_parameter.o(i._ZN10_PARAMETER15ReadGyrOffersetEv) for i._ZN10_PARAMETER15ReadGyrOffersetEv
    uav_parameter.o(.ARM.exidx) refers to uav_parameter.o(i._ZN10_PARAMETER13ConfigurationEv) for i._ZN10_PARAMETER13ConfigurationEv
    uav_parameter.o(.ARM.exidx) refers to uav_parameter.o(i._ZN10_PARAMETER15SaveAccOffersetE7Vector3IfE) for i._ZN10_PARAMETER15SaveAccOffersetE7Vector3IfE
    uav_parameter.o(.ARM.exidx) refers to uav_parameter.o(i._ZN10_PARAMETER15SaveGyrOffersetE7Vector3IfE) for i._ZN10_PARAMETER15SaveGyrOffersetE7Vector3IfE
    uav_parameter.o(.ARM.exidx) refers to uav_parameter.o(i._ZN10_PARAMETER15SaveMagOffersetE7Vector3IfE) for i._ZN10_PARAMETER15SaveMagOffersetE7Vector3IfE
    uav_parameter.o(.ARM.exidx) refers to uav_parameter.o(i._ZN10_PARAMETER12SaveAnglePIDEv) for i._ZN10_PARAMETER12SaveAnglePIDEv
    uav_parameter.o(.ARM.exidx) refers to uav_parameter.o(i._ZN10_PARAMETER14SaveAngularPIDEv) for i._ZN10_PARAMETER14SaveAngularPIDEv
    uav_parameter.o(.ARM.exidx) refers to uav_parameter.o(i._ZN10_PARAMETER18Save_UL_DIS_SPEPIDEv) for i._ZN10_PARAMETER18Save_UL_DIS_SPEPIDEv
    uav_parameter.o(.ARM.exidx) refers to uav_parameter.o(i._ZN10_PARAMETER18Save_MS_DIS_SPEPIDEv) for i._ZN10_PARAMETER18Save_MS_DIS_SPEPIDEv
    uav_parameter.o(.ARM.exidx) refers to uav_parameter.o(i._ZN10_PARAMETER5ResetEv) for i._ZN10_PARAMETER5ResetEv
    uav_parameter_sd.o(i._Z10Write2FilePchj) refers to ff.o(i.f_mount) for f_mount
    uav_parameter_sd.o(i._Z10Write2FilePchj) refers to ff.o(i.f_mkfs) for f_mkfs
    uav_parameter_sd.o(i._Z10Write2FilePchj) refers to ff.o(i.f_open) for f_open
    uav_parameter_sd.o(i._Z10Write2FilePchj) refers to ff.o(i.f_lseek) for f_lseek
    uav_parameter_sd.o(i._Z10Write2FilePchj) refers to ff.o(i.f_write) for f_write
    uav_parameter_sd.o(i._Z10Write2FilePchj) refers to ff.o(i.f_close) for f_close
    uav_parameter_sd.o(i._Z10Write2FilePchj) refers to uav_parameter_sd.o(.bss) for fs
    uav_parameter_sd.o(i._Z7AdrrCalt) refers to uav_parameter_sd.o(.data) for sd_adrr
    uav_parameter_sd.o(i._ZN12PARAMETER_SD12SaveDataInitEv) refers to uav_parameter_sd.o(i._Z7AdrrCalt) for AdrrCal(unsigned short)
    uav_parameter_sd.o(i._ZN12PARAMETER_SD12SaveDataInitEv) refers to uav_parameter_sd.o(i._Z10Write2FilePchj) for Write2File(char*, unsigned char, unsigned)
    uav_parameter_sd.o(i._ZN12PARAMETER_SD12SaveDataInitEv) refers to uav_parameter_sd.o(.data) for gt_cout
    uav_parameter_sd.o(.ARM.exidx) refers to uav_parameter_sd.o(i._Z10Write2FilePchj) for i._Z10Write2FilePchj
    uav_parameter_sd.o(.ARM.exidx) refers to uav_parameter_sd.o(i._Z7AdrrCalt) for i._Z7AdrrCalt
    uav_parameter_sd.o(.ARM.exidx) refers to uav_parameter_sd.o(i._ZN12PARAMETER_SD12SaveDataInitEv) for i._ZN12PARAMETER_SD12SaveDataInitEv
    ekf_att_pos_estimator_main.o(i._Z6millisv) refers to ekf_att_pos_estimator_main.o(i._Z9getMillisv) for getMillis()
    ekf_att_pos_estimator_main.o(i._Z9getMicrosv) refers to ekf_att_pos_estimator_main.o(.data) for IMUusec
    ekf_att_pos_estimator_main.o(i._Z9getMillisv) refers to ekf_att_pos_estimator_main.o(i._Z9getMicrosv) for getMicros()
    ekf_att_pos_estimator_main.o(i._Z9getMillisv) refers to uldiv.o(.text) for __aeabi_uldivmod
    ekf_att_pos_estimator_main.o(i._ZN28AttitudePositionEstimatorEKF13initializeGPSEv) refers to dflti.o(.text) for __aeabi_i2d
    ekf_att_pos_estimator_main.o(i._ZN28AttitudePositionEstimatorEKF13initializeGPSEv) refers to ddiv.o(.text) for __aeabi_ddiv
    ekf_att_pos_estimator_main.o(i._ZN28AttitudePositionEstimatorEKF13initializeGPSEv) refers to d2f.o(.text) for __aeabi_d2f
    ekf_att_pos_estimator_main.o(i._ZN28AttitudePositionEstimatorEKF13initializeGPSEv) refers to cal_math.o(i._Z7radiansf) for radians(float)
    ekf_att_pos_estimator_main.o(i._ZN28AttitudePositionEstimatorEKF13initializeGPSEv) refers to f2d.o(.text) for __aeabi_f2d
    ekf_att_pos_estimator_main.o(i._ZN28AttitudePositionEstimatorEKF13initializeGPSEv) refers to dadd.o(.text) for __aeabi_dsub
    ekf_att_pos_estimator_main.o(i._ZN28AttitudePositionEstimatorEKF13initializeGPSEv) refers to estimator_22states.o(i._ZN9AttPosEKF16InitialiseFilterERA3_fddff) for AttPosEKF::InitialiseFilter(float(&)[3], double, double, float, float)
    ekf_att_pos_estimator_main.o(i._ZN28AttitudePositionEstimatorEKF13initializeGPSEv) refers to dev_ms5611.o(.bss) for Ms5611
    ekf_att_pos_estimator_main.o(i._ZN28AttitudePositionEstimatorEKF18check_filter_stateEv) refers to estimator_22states.o(i._ZN9AttPosEKF13CheckAndBoundEP17ekf_status_report) for AttPosEKF::CheckAndBound(ekf_status_report*)
    ekf_att_pos_estimator_main.o(i._ZN28AttitudePositionEstimatorEKF18check_filter_stateEv) refers to memcpya.o(.text) for __aeabi_memcpy4
    ekf_att_pos_estimator_main.o(i._ZN28AttitudePositionEstimatorEKF18check_filter_stateEv) refers to memseta.o(.text) for __aeabi_memclr4
    ekf_att_pos_estimator_main.o(i._ZN28AttitudePositionEstimatorEKF18check_filter_stateEv) refers to dflti.o(.text) for __aeabi_i2d
    ekf_att_pos_estimator_main.o(i._ZN28AttitudePositionEstimatorEKF18check_filter_stateEv) refers to ddiv.o(.text) for __aeabi_ddiv
    ekf_att_pos_estimator_main.o(i._ZN28AttitudePositionEstimatorEKF18check_filter_stateEv) refers to ekf_att_pos_estimator_main.o(i._ZN28AttitudePositionEstimatorEKF21initReferencePositionEybddff) for AttitudePositionEstimatorEKF::initReferencePosition(unsigned long long, bool, double, double, float, float)
    ekf_att_pos_estimator_main.o(i._ZN28AttitudePositionEstimatorEKF18check_filter_stateEv) refers to estimator_22states.o(i._ZN9AttPosEKF14GetFilterStateEP17ekf_status_report) for AttPosEKF::GetFilterState(ekf_status_report*)
    ekf_att_pos_estimator_main.o(i._ZN28AttitudePositionEstimatorEKF18check_filter_stateEv) refers to dev_clock.o(i._Z13GetSysTime_usv) for GetSysTime_us()
    ekf_att_pos_estimator_main.o(i._ZN28AttitudePositionEstimatorEKF18check_filter_stateEv) refers to estimator_22states.o(i._ZN9AttPosEKF14get_covarianceEPf) for AttPosEKF::get_covariance(float*)
    ekf_att_pos_estimator_main.o(i._ZN28AttitudePositionEstimatorEKF18check_filter_stateEv) refers to ekf_att_pos_estimator_main.o(.constdata) for .constdata
    ekf_att_pos_estimator_main.o(i._ZN28AttitudePositionEstimatorEKF18check_filter_stateEv) refers to dev_ms5611.o(.bss) for Ms5611
    ekf_att_pos_estimator_main.o(i._ZN28AttitudePositionEstimatorEKF18updateSensorFusionEbbbbb) refers to estimator_22states.o(i._ZN9AttPosEKF27UpdateStrapdownEquationsNEDEv) for AttPosEKF::UpdateStrapdownEquationsNED()
    ekf_att_pos_estimator_main.o(i._ZN28AttitudePositionEstimatorEKF18updateSensorFusionEbbbbb) refers to ekf_att_pos_estimator_main.o(i._Z9getMillisv) for getMillis()
    ekf_att_pos_estimator_main.o(i._ZN28AttitudePositionEstimatorEKF18updateSensorFusionEbbbbb) refers to estimator_22states.o(i._ZN9AttPosEKF11StoreStatesEy) for AttPosEKF::StoreStates(unsigned long long)
    ekf_att_pos_estimator_main.o(i._ZN28AttitudePositionEstimatorEKF18updateSensorFusionEbbbbb) refers to estimator_utilities.o(i._ZplRK12Vector3f_px4S1_) for operator +(const Vector3f_px4&, const Vector3f_px4&)
    ekf_att_pos_estimator_main.o(i._ZN28AttitudePositionEstimatorEKF18updateSensorFusionEbbbbb) refers to dev_clock.o(i._Z13GetSysTime_usv) for GetSysTime_us()
    ekf_att_pos_estimator_main.o(i._ZN28AttitudePositionEstimatorEKF18updateSensorFusionEbbbbb) refers to estimator_utilities.o(i._ZNK12Vector3f_px46lengthEv) for Vector3f_px4::length() const
    ekf_att_pos_estimator_main.o(i._ZN28AttitudePositionEstimatorEKF18updateSensorFusionEbbbbb) refers to estimator_22states.o(i._ZN9AttPosEKF20CovariancePredictionEf) for AttPosEKF::CovariancePrediction(float)
    ekf_att_pos_estimator_main.o(i._ZN28AttitudePositionEstimatorEKF18updateSensorFusionEbbbbb) refers to estimator_utilities.o(i._ZN12Vector3f_px44zeroEv) for Vector3f_px4::zero()
    ekf_att_pos_estimator_main.o(i._ZN28AttitudePositionEstimatorEKF18updateSensorFusionEbbbbb) refers to estimator_22states.o(i._ZN9AttPosEKF12RecallStatesEPfy) for AttPosEKF::RecallStates(float*, unsigned long long)
    ekf_att_pos_estimator_main.o(i._ZN28AttitudePositionEstimatorEKF18updateSensorFusionEbbbbb) refers to estimator_22states.o(i._ZN9AttPosEKF13FuseVelposNEDEv) for AttPosEKF::FuseVelposNED()
    ekf_att_pos_estimator_main.o(i._ZN28AttitudePositionEstimatorEKF18updateSensorFusionEbbbbb) refers to estimator_22states.o(i._ZN9AttPosEKF16FuseMagnetometerEv) for AttPosEKF::FuseMagnetometer()
    ekf_att_pos_estimator_main.o(i._ZN28AttitudePositionEstimatorEKF18updateSensorFusionEbbbbb) refers to ffixul.o(.text) for __aeabi_f2ulz
    ekf_att_pos_estimator_main.o(i._ZN28AttitudePositionEstimatorEKF18updateSensorFusionEbbbbb) refers to estimator_22states.o(i._ZN9AttPosEKF14OpticalFlowEKFEv) for AttPosEKF::OpticalFlowEKF()
    ekf_att_pos_estimator_main.o(i._ZN28AttitudePositionEstimatorEKF19vehicle_status_pollEv) refers to estimator_22states.o(i._ZN9AttPosEKF14setIsFixedWingEb) for AttPosEKF::setIsFixedWing(bool)
    ekf_att_pos_estimator_main.o(i._ZN28AttitudePositionEstimatorEKF21initReferencePositionEybddff) refers to ekf_att_pos_estimator_main.o(i.__ARM_isfinitef) for __ARM_isfinitef
    ekf_att_pos_estimator_main.o(i._ZN28AttitudePositionEstimatorEKF21initReferencePositionEybddff) refers to dev_ms5611.o(.bss) for Ms5611
    ekf_att_pos_estimator_main.o(i._ZN28AttitudePositionEstimatorEKF7loop_upEv) refers to dev_clock.o(i._Z13GetSysTime_usv) for GetSysTime_us()
    ekf_att_pos_estimator_main.o(i._ZN28AttitudePositionEstimatorEKF7loop_upEv) refers to ekf_att_pos_estimator_main.o(i._ZN28AttitudePositionEstimatorEKF17parameters_updateEv) for AttitudePositionEstimatorEKF::parameters_update()
    ekf_att_pos_estimator_main.o(i._ZN28AttitudePositionEstimatorEKF7loop_upEv) refers to ekf_att_pos_estimator_main.o(i._ZN28AttitudePositionEstimatorEKF19vehicle_status_pollEv) for AttitudePositionEstimatorEKF::vehicle_status_poll()
    ekf_att_pos_estimator_main.o(i._ZN28AttitudePositionEstimatorEKF7loop_upEv) refers to ekf_att_pos_estimator_main.o(i._ZN28AttitudePositionEstimatorEKF26vehicle_land_detected_pollEv) for AttitudePositionEstimatorEKF::vehicle_land_detected_poll()
    ekf_att_pos_estimator_main.o(i._ZN28AttitudePositionEstimatorEKF7loop_upEv) refers to estimator_22states.o(i._ZN9AttPosEKF13ZeroVariablesEv) for AttPosEKF::ZeroVariables()
    ekf_att_pos_estimator_main.o(i._ZN28AttitudePositionEstimatorEKF7loop_upEv) refers to ekf_att_pos_estimator_main.o(i._ZN28AttitudePositionEstimatorEKF8pollDataEv) for AttitudePositionEstimatorEKF::pollData()
    ekf_att_pos_estimator_main.o(i._ZN28AttitudePositionEstimatorEKF7loop_upEv) refers to estimator_22states.o(i._ZN9AttPosEKF16InitialiseFilterERA3_fddff) for AttPosEKF::InitialiseFilter(float(&)[3], double, double, float, float)
    ekf_att_pos_estimator_main.o(i._ZN28AttitudePositionEstimatorEKF7loop_upEv) refers to ekf_att_pos_estimator_main.o(i._ZN28AttitudePositionEstimatorEKF13initializeGPSEv) for AttitudePositionEstimatorEKF::initializeGPS()
    ekf_att_pos_estimator_main.o(i._ZN28AttitudePositionEstimatorEKF7loop_upEv) refers to estimator_22states.o(i._ZN9AttPosEKF11setOnGroundEb) for AttPosEKF::setOnGround(bool)
    ekf_att_pos_estimator_main.o(i._ZN28AttitudePositionEstimatorEKF7loop_upEv) refers to ekf_att_pos_estimator_main.o(i._ZN28AttitudePositionEstimatorEKF18check_filter_stateEv) for AttitudePositionEstimatorEKF::check_filter_state()
    ekf_att_pos_estimator_main.o(i._ZN28AttitudePositionEstimatorEKF7loop_upEv) refers to ekf_att_pos_estimator_main.o(i._ZN28AttitudePositionEstimatorEKF18updateSensorFusionEbbbbb) for AttitudePositionEstimatorEKF::updateSensorFusion(bool, bool, bool, bool, bool)
    ekf_att_pos_estimator_main.o(i._ZN28AttitudePositionEstimatorEKF8pollDataEv) refers to dev_clock.o(i._Z13GetSysTime_usv) for GetSysTime_us()
    ekf_att_pos_estimator_main.o(i._ZN28AttitudePositionEstimatorEKF8pollDataEv) refers to ffltul.o(.text) for __aeabi_ul2f
    ekf_att_pos_estimator_main.o(i._ZN28AttitudePositionEstimatorEKF8pollDataEv) refers to ekf_att_pos_estimator_main.o(i.__ARM_isfinitef) for __ARM_isfinitef
    ekf_att_pos_estimator_main.o(i._ZN28AttitudePositionEstimatorEKF8pollDataEv) refers to estimator_utilities.o(i._ZmlRK12Vector3f_px4f) for operator *(const Vector3f_px4&, float)
    ekf_att_pos_estimator_main.o(i._ZN28AttitudePositionEstimatorEKF8pollDataEv) refers to estimator_utilities.o(i._ZdvRK12Vector3f_px4f) for operator /(const Vector3f_px4&, float)
    ekf_att_pos_estimator_main.o(i._ZN28AttitudePositionEstimatorEKF8pollDataEv) refers to dflti.o(.text) for __aeabi_i2d
    ekf_att_pos_estimator_main.o(i._ZN28AttitudePositionEstimatorEKF8pollDataEv) refers to ddiv.o(.text) for __aeabi_ddiv
    ekf_att_pos_estimator_main.o(i._ZN28AttitudePositionEstimatorEKF8pollDataEv) refers to d2f.o(.text) for __aeabi_d2f
    ekf_att_pos_estimator_main.o(i._ZN28AttitudePositionEstimatorEKF8pollDataEv) refers to cal_math.o(i._Z7radiansf) for radians(float)
    ekf_att_pos_estimator_main.o(i._ZN28AttitudePositionEstimatorEKF8pollDataEv) refers to f2d.o(.text) for __aeabi_f2d
    ekf_att_pos_estimator_main.o(i._ZN28AttitudePositionEstimatorEKF8pollDataEv) refers to dadd.o(.text) for __aeabi_dsub
    ekf_att_pos_estimator_main.o(i._ZN28AttitudePositionEstimatorEKF8pollDataEv) refers to estimator_22states.o(i._ZN9AttPosEKF15updateDtGpsFiltEf) for AttPosEKF::updateDtGpsFilt(float)
    ekf_att_pos_estimator_main.o(i._ZN28AttitudePositionEstimatorEKF8pollDataEv) refers to ekf_att_pos_estimator_main.o(.data) for IMUusec
    ekf_att_pos_estimator_main.o(i._ZN28AttitudePositionEstimatorEKF8pollDataEv) refers to dev_mup6050.o(.bss) for Mpu6050
    ekf_att_pos_estimator_main.o(i._ZN28AttitudePositionEstimatorEKF8pollDataEv) refers to dev_ak8975.o(.bss) for Ak8975
    ekf_att_pos_estimator_main.o(i._ZN28AttitudePositionEstimatorEKF8pollDataEv) refers to estimator_22states.o(i._ZN9AttPosEKF13ResetPositionEv) for AttPosEKF::ResetPosition()
    ekf_att_pos_estimator_main.o(i._ZN28AttitudePositionEstimatorEKF8pollDataEv) refers to estimator_22states.o(i._ZN9AttPosEKF13ResetVelocityEv) for AttPosEKF::ResetVelocity()
    ekf_att_pos_estimator_main.o(i._ZN28AttitudePositionEstimatorEKF8pollDataEv) refers to estimator_22states.o(i._ZN9AttPosEKF15updateDtHgtFiltEf) for AttPosEKF::updateDtHgtFilt(float)
    ekf_att_pos_estimator_main.o(i._ZN28AttitudePositionEstimatorEKF8pollDataEv) refers to dev_ms5611.o(.bss) for Ms5611
    ekf_att_pos_estimator_main.o(i._ZN28AttitudePositionEstimatorEKFC1Ev) refers to estimator_22states.o(i._ZN9AttPosEKFC1Ev) for AttPosEKF::AttPosEKF()
    ekf_att_pos_estimator_main.o(i._ZN28AttitudePositionEstimatorEKFC1Ev) refers to dev_clock.o(i._Z13GetSysTime_usv) for GetSysTime_us()
    ekf_att_pos_estimator_main.o(i._ZN28AttitudePositionEstimatorEKFC1Ev) refers to ekf_att_pos_estimator_main.o(i._ZN28AttitudePositionEstimatorEKF17parameters_updateEv) for AttitudePositionEstimatorEKF::parameters_update()
    ekf_att_pos_estimator_main.o(i.__sti___30_ekf_att_pos_estimator_main_cpp_att_ekf) refers to ekf_att_pos_estimator_main.o(i._ZN28AttitudePositionEstimatorEKFC1Ev) for AttitudePositionEstimatorEKF::AttitudePositionEstimatorEKF()
    ekf_att_pos_estimator_main.o(i.__sti___30_ekf_att_pos_estimator_main_cpp_att_ekf) refers to aeabi_atexit.o(i.__aeabi_atexit) for __aeabi_atexit
    ekf_att_pos_estimator_main.o(i.__sti___30_ekf_att_pos_estimator_main_cpp_att_ekf) refers to estimator_22states.o(i._ZN9AttPosEKFC1Ev) for AttPosEKF::AttPosEKF()
    ekf_att_pos_estimator_main.o(i.__sti___30_ekf_att_pos_estimator_main_cpp_att_ekf) refers to ekf_att_pos_estimator_main.o(.bss) for att_ekf
    ekf_att_pos_estimator_main.o(i.__sti___30_ekf_att_pos_estimator_main_cpp_att_ekf) refers to ekf_att_pos_estimator_main.o(i._ZN28AttitudePositionEstimatorEKFD1Ev) for AttitudePositionEstimatorEKF::~AttitudePositionEstimatorEKF()
    ekf_att_pos_estimator_main.o(i.__sti___30_ekf_att_pos_estimator_main_cpp_att_ekf) refers to estimator_22states.o(i._ZN9AttPosEKFD1Ev) for AttPosEKF::~AttPosEKF()
    ekf_att_pos_estimator_main.o(.ARM.exidx) refers to ekf_att_pos_estimator_main.o(i._Z9getMicrosv) for i._Z9getMicrosv
    ekf_att_pos_estimator_main.o(.ARM.exidx) refers to ekf_att_pos_estimator_main.o(i._Z9getMillisv) for i._Z9getMillisv
    ekf_att_pos_estimator_main.o(.ARM.exidx) refers to ekf_att_pos_estimator_main.o(i._Z6millisv) for i._Z6millisv
    ekf_att_pos_estimator_main.o(.ARM.exidx) refers to ekf_att_pos_estimator_main.o(i._ZN28AttitudePositionEstimatorEKF17parameters_updateEv) for i._ZN28AttitudePositionEstimatorEKF17parameters_updateEv
    ekf_att_pos_estimator_main.o(.ARM.exidx) refers to ekf_att_pos_estimator_main.o(i._ZN28AttitudePositionEstimatorEKFC1Ev) for i._ZN28AttitudePositionEstimatorEKFC1Ev
    ekf_att_pos_estimator_main.o(.ARM.exidx) refers to ekf_att_pos_estimator_main.o(i._ZN28AttitudePositionEstimatorEKF5startEv) for i._ZN28AttitudePositionEstimatorEKF5startEv
    ekf_att_pos_estimator_main.o(.ARM.exidx) refers to ekf_att_pos_estimator_main.o(i._ZN28AttitudePositionEstimatorEKF18updateSensorFusionEbbbbb) for i._ZN28AttitudePositionEstimatorEKF18updateSensorFusionEbbbbb
    ekf_att_pos_estimator_main.o(.ARM.exidx) refers to ekf_att_pos_estimator_main.o(i._ZN28AttitudePositionEstimatorEKF21initReferencePositionEybddff) for i._ZN28AttitudePositionEstimatorEKF21initReferencePositionEybddff
    ekf_att_pos_estimator_main.o(.ARM.exidx) refers to ekf_att_pos_estimator_main.o(i._ZN28AttitudePositionEstimatorEKF18check_filter_stateEv) for i._ZN28AttitudePositionEstimatorEKF18check_filter_stateEv
    ekf_att_pos_estimator_main.o(.ARM.exidx) refers to ekf_att_pos_estimator_main.o(i._ZN28AttitudePositionEstimatorEKF13initializeGPSEv) for i._ZN28AttitudePositionEstimatorEKF13initializeGPSEv
    ekf_att_pos_estimator_main.o(.ARM.exidx) refers to ekf_att_pos_estimator_main.o(i._ZN28AttitudePositionEstimatorEKF8pollDataEv) for i._ZN28AttitudePositionEstimatorEKF8pollDataEv
    ekf_att_pos_estimator_main.o(.ARM.exidx) refers to ekf_att_pos_estimator_main.o(i._ZN28AttitudePositionEstimatorEKF26vehicle_land_detected_pollEv) for i._ZN28AttitudePositionEstimatorEKF26vehicle_land_detected_pollEv
    ekf_att_pos_estimator_main.o(.ARM.exidx) refers to ekf_att_pos_estimator_main.o(i._ZN28AttitudePositionEstimatorEKF19vehicle_status_pollEv) for i._ZN28AttitudePositionEstimatorEKF19vehicle_status_pollEv
    ekf_att_pos_estimator_main.o(.ARM.exidx) refers to ekf_att_pos_estimator_main.o(i._ZN28AttitudePositionEstimatorEKF7loop_upEv) for i._ZN28AttitudePositionEstimatorEKF7loop_upEv
    ekf_att_pos_estimator_main.o(.ARM.exidx) refers to ekf_att_pos_estimator_main.o(i._ZN28AttitudePositionEstimatorEKF14enable_loggingEb) for i._ZN28AttitudePositionEstimatorEKF14enable_loggingEb
    ekf_att_pos_estimator_main.o(.ARM.exidx) refers to ekf_att_pos_estimator_main.o(i.__sti___30_ekf_att_pos_estimator_main_cpp_att_ekf) for i.__sti___30_ekf_att_pos_estimator_main_cpp_att_ekf
    ekf_att_pos_estimator_main.o(.constdata) refers to ekf_att_pos_estimator_main.o(.conststring) for .conststring
    ekf_att_pos_estimator_main.o(.init_array) refers to ekf_att_pos_estimator_main.o(i.__sti___30_ekf_att_pos_estimator_main_cpp_att_ekf) for __sti___30_ekf_att_pos_estimator_main_cpp_att_ekf
    ekf_att_pos_estimator_main.o(.init_array) refers to cpp_init.o(.text) for __cpp_initialize__aeabi_
    estimator_22states.o(i._ZN9AttPosEKF11FuseOptFlowEv) refers to estimator_22states.o(i._ZN12Vector3f_px4C1Efff) for Vector3f_px4::Vector3f_px4(float, float, float)
    estimator_22states.o(i._ZN9AttPosEKF11FuseOptFlowEv) refers to estimator_utilities.o(i._ZmlRK5Mat3fRK12Vector3f_px4) for operator *(const Mat3f&, const Vector3f_px4&)
    estimator_22states.o(i._ZN9AttPosEKF11FuseOptFlowEv) refers to estimator_22states.o(i._ZN9AttPosEKF2sqEf) for AttPosEKF::sq(float)
    estimator_22states.o(i._ZN9AttPosEKF11FuseOptFlowEv) refers to estimator_22states.o(.data) for q0
    estimator_22states.o(i._ZN9AttPosEKF11FuseOptFlowEv) refers to estimator_22states.o(.bss) for SH_LOS
    estimator_22states.o(i._ZN9AttPosEKF11FuseOptFlowEv) refers to sqrtf.o(i.__hardfp_sqrtf) for __hardfp_sqrtf
    estimator_22states.o(i._ZN9AttPosEKF11FuseOptFlowEv) refers to estimator_22states.o(i._ZN9AttPosEKF13ForceSymmetryEv) for AttPosEKF::ForceSymmetry()
    estimator_22states.o(i._ZN9AttPosEKF11FuseOptFlowEv) refers to estimator_22states.o(i._ZN9AttPosEKF18ConstrainVariancesEv) for AttPosEKF::ConstrainVariances()
    estimator_22states.o(i._ZN9AttPosEKF11ResetHeightEv) refers to estimator_22states.o(i._ZN9AttPosEKF2sqEf) for AttPosEKF::sq(float)
    estimator_22states.o(i._ZN9AttPosEKF12AttitudeInitEfffffffPf) refers to atan2f.o(i.__hardfp_atan2f) for __hardfp_atan2f
    estimator_22states.o(i._ZN9AttPosEKF12AttitudeInitEfffffffPf) refers to cosf.o(i.__hardfp_cosf) for __hardfp_cosf
    estimator_22states.o(i._ZN9AttPosEKF12AttitudeInitEfffffffPf) refers to sinf.o(i.__hardfp_sinf) for __hardfp_sinf
    estimator_22states.o(i._ZN9AttPosEKF12AttitudeInitEfffffffPf) refers to sqrtf.o(i.__hardfp_sqrtf) for __hardfp_sqrtf
    estimator_22states.o(i._ZN9AttPosEKF12FuseAirspeedEv) refers to estimator_22states.o(i._ZN9AttPosEKF2sqEf) for AttPosEKF::sq(float)
    estimator_22states.o(i._ZN9AttPosEKF12FuseAirspeedEv) refers to sqrtf.o(i.__hardfp_sqrtf) for __hardfp_sqrtf
    estimator_22states.o(i._ZN9AttPosEKF12FuseAirspeedEv) refers to estimator_22states.o(i._ZN9AttPosEKF13ForceSymmetryEv) for AttPosEKF::ForceSymmetry()
    estimator_22states.o(i._ZN9AttPosEKF12FuseAirspeedEv) refers to estimator_22states.o(i._ZN9AttPosEKF18ConstrainVariancesEv) for AttPosEKF::ConstrainVariances()
    estimator_22states.o(i._ZN9AttPosEKF12RecallStatesEPfy) refers to ekf_att_pos_estimator_main.o(i.__ARM_isfinitef) for __ARM_isfinitef
    estimator_22states.o(i._ZN9AttPosEKF13CheckAndBoundEP17ekf_status_report) refers to ekf_att_pos_estimator_main.o(i._Z6millisv) for millis()
    estimator_22states.o(i._ZN9AttPosEKF13CheckAndBoundEP17ekf_status_report) refers to estimator_22states.o(i._ZN9AttPosEKF9StatesNaNEv) for AttPosEKF::StatesNaN()
    estimator_22states.o(i._ZN9AttPosEKF13CheckAndBoundEP17ekf_status_report) refers to estimator_utilities.o(i._Z9ekf_debugPKcz) for ekf_debug(const char*, ...)
    estimator_22states.o(i._ZN9AttPosEKF13CheckAndBoundEP17ekf_status_report) refers to estimator_22states.o(i._ZN9AttPosEKF17InitializeDynamicERA3_ff) for AttPosEKF::InitializeDynamic(float(&)[3], float)
    estimator_22states.o(i._ZN9AttPosEKF13CheckAndBoundEP17ekf_status_report) refers to estimator_22states.o(i._ZN9AttPosEKF14GetFilterStateEP17ekf_status_report) for AttPosEKF::GetFilterState(ekf_status_report*)
    estimator_22states.o(i._ZN9AttPosEKF13CheckAndBoundEP17ekf_status_report) refers to estimator_22states.o(i._ZN9AttPosEKF13ResetVelocityEv) for AttPosEKF::ResetVelocity()
    estimator_22states.o(i._ZN9AttPosEKF13CheckAndBoundEP17ekf_status_report) refers to estimator_22states.o(i._ZN9AttPosEKF13ResetPositionEv) for AttPosEKF::ResetPosition()
    estimator_22states.o(i._ZN9AttPosEKF13CheckAndBoundEP17ekf_status_report) refers to estimator_22states.o(i._ZN9AttPosEKF11ResetHeightEv) for AttPosEKF::ResetHeight()
    estimator_22states.o(i._ZN9AttPosEKF13CheckAndBoundEP17ekf_status_report) refers to estimator_22states.o(i._ZN9AttPosEKF17ResetStoredStatesEv) for AttPosEKF::ResetStoredStates()
    estimator_22states.o(i._ZN9AttPosEKF13CheckAndBoundEP17ekf_status_report) refers to estimator_22states.o(i._ZN9AttPosEKF19GyroOffsetsDivergedEv) for AttPosEKF::GyroOffsetsDiverged()
    estimator_22states.o(i._ZN9AttPosEKF13CheckAndBoundEP17ekf_status_report) refers to estimator_22states.o(i._ZN9AttPosEKF14VelNEDDivergedEv) for AttPosEKF::VelNEDDiverged()
    estimator_22states.o(i._ZN9AttPosEKF13CheckAndBoundEP17ekf_status_report) refers to estimator_22states.o(i._ZN9AttPosEKF17GetLastErrorStateEP17ekf_status_report) for AttPosEKF::GetLastErrorState(ekf_status_report*)
    estimator_22states.o(i._ZN9AttPosEKF13ForceSymmetryEv) refers to estimator_22states.o(i._ZN9AttPosEKF17InitializeDynamicERA3_ff) for AttPosEKF::InitializeDynamic(float(&)[3], float)
    estimator_22states.o(i._ZN9AttPosEKF13FuseVelposNEDEv) refers to ekf_att_pos_estimator_main.o(i._Z9getMicrosv) for getMicros()
    estimator_22states.o(i._ZN9AttPosEKF13FuseVelposNEDEv) refers to ffltul.o(.text) for __aeabi_ul2f
    estimator_22states.o(i._ZN9AttPosEKF13FuseVelposNEDEv) refers to estimator_22states.o(i._ZN9AttPosEKF18updateDtVelPosFiltEf) for AttPosEKF::updateDtVelPosFilt(float)
    estimator_22states.o(i._ZN9AttPosEKF13FuseVelposNEDEv) refers to estimator_22states.o(i._ZN9AttPosEKF2sqEf) for AttPosEKF::sq(float)
    estimator_22states.o(i._ZN9AttPosEKF13FuseVelposNEDEv) refers to ekf_att_pos_estimator_main.o(i._Z6millisv) for millis()
    estimator_22states.o(i._ZN9AttPosEKF13FuseVelposNEDEv) refers to estimator_22states.o(i._ZN9AttPosEKF13ResetVelocityEv) for AttPosEKF::ResetVelocity()
    estimator_22states.o(i._ZN9AttPosEKF13FuseVelposNEDEv) refers to estimator_22states.o(i._ZN9AttPosEKF13ResetPositionEv) for AttPosEKF::ResetPosition()
    estimator_22states.o(i._ZN9AttPosEKF13FuseVelposNEDEv) refers to estimator_22states.o(i._ZN9AttPosEKF11ResetHeightEv) for AttPosEKF::ResetHeight()
    estimator_22states.o(i._ZN9AttPosEKF13FuseVelposNEDEv) refers to f2d.o(.text) for __aeabi_f2d
    estimator_22states.o(i._ZN9AttPosEKF13FuseVelposNEDEv) refers to ddiv.o(.text) for __aeabi_ddiv
    estimator_22states.o(i._ZN9AttPosEKF13FuseVelposNEDEv) refers to d2f.o(.text) for __aeabi_d2f
    estimator_22states.o(i._ZN9AttPosEKF13FuseVelposNEDEv) refers to sqrtf.o(i.__hardfp_sqrtf) for __hardfp_sqrtf
    estimator_22states.o(i._ZN9AttPosEKF13FuseVelposNEDEv) refers to estimator_22states.o(i._ZN9AttPosEKF13ForceSymmetryEv) for AttPosEKF::ForceSymmetry()
    estimator_22states.o(i._ZN9AttPosEKF13FuseVelposNEDEv) refers to estimator_22states.o(i._ZN9AttPosEKF18ConstrainVariancesEv) for AttPosEKF::ConstrainVariances()
    estimator_22states.o(i._ZN9AttPosEKF13ResetPositionEv) refers to estimator_22states.o(i._ZN9AttPosEKF2sqEf) for AttPosEKF::sq(float)
    estimator_22states.o(i._ZN9AttPosEKF13ResetVelocityEv) refers to estimator_22states.o(i._ZN9AttPosEKF2sqEf) for AttPosEKF::sq(float)
    estimator_22states.o(i._ZN9AttPosEKF13ZeroVariablesEv) refers to estimator_22states.o(i._ZN9AttPosEKF14ConstrainFloatEfff) for AttPosEKF::ConstrainFloat(float, float, float)
    estimator_22states.o(i._ZN9AttPosEKF13ZeroVariablesEv) refers to ekf_att_pos_estimator_main.o(i._Z6millisv) for millis()
    estimator_22states.o(i._ZN9AttPosEKF13ZeroVariablesEv) refers to estimator_utilities.o(i._ZN12Vector3f_px44zeroEv) for Vector3f_px4::zero()
    estimator_22states.o(i._ZN9AttPosEKF13ZeroVariablesEv) refers to memseta.o(.text) for __aeabi_memclr4
    estimator_22states.o(i._ZN9AttPosEKF13ZeroVariablesEv) refers to estimator_utilities.o(i._ZN5Mat3f8identityEv) for Mat3f::identity()
    estimator_22states.o(i._ZN9AttPosEKF14ConstrainFloatEfff) refers to f2d.o(.text) for __aeabi_f2d
    estimator_22states.o(i._ZN9AttPosEKF14ConstrainFloatEfff) refers to estimator_utilities.o(i._Z9ekf_debugPKcz) for ekf_debug(const char*, ...)
    estimator_22states.o(i._ZN9AttPosEKF14ConstrainFloatEfff) refers to ekf_att_pos_estimator_main.o(i.__ARM_isfinitef) for __ARM_isfinitef
    estimator_22states.o(i._ZN9AttPosEKF14CovarianceInitEv) refers to estimator_22states.o(i._ZN9AttPosEKF2sqEf) for AttPosEKF::sq(float)
    estimator_22states.o(i._ZN9AttPosEKF14GetFilterStateEP17ekf_status_report) refers to memcpya.o(.text) for __aeabi_memcpy4
    estimator_22states.o(i._ZN9AttPosEKF14OpticalFlowEKFEv) refers to estimator_22states.o(i._ZN9AttPosEKF2sqEf) for AttPosEKF::sq(float)
    estimator_22states.o(i._ZN9AttPosEKF14OpticalFlowEKFEv) refers to estimator_22states.o(i._ZN9AttPosEKF14ConstrainFloatEfff) for AttPosEKF::ConstrainFloat(float, float, float)
    estimator_22states.o(i._ZN9AttPosEKF14OpticalFlowEKFEv) refers to estimator_22states.o(i._ZN12Vector3f_px4C1Efff) for Vector3f_px4::Vector3f_px4(float, float, float)
    estimator_22states.o(i._ZN9AttPosEKF14OpticalFlowEKFEv) refers to estimator_utilities.o(i._ZmlRK5Mat3fRK12Vector3f_px4) for operator *(const Mat3f&, const Vector3f_px4&)
    estimator_22states.o(i._ZN9AttPosEKF14VelNEDDivergedEv) refers to estimator_22states.o(i._ZN12Vector3f_px4C1Efff) for Vector3f_px4::Vector3f_px4(float, float, float)
    estimator_22states.o(i._ZN9AttPosEKF14VelNEDDivergedEv) refers to estimator_utilities.o(i._ZmiRK12Vector3f_px4S1_) for operator -(const Vector3f_px4&, const Vector3f_px4&)
    estimator_22states.o(i._ZN9AttPosEKF14VelNEDDivergedEv) refers to estimator_utilities.o(i._ZNK12Vector3f_px46lengthEv) for Vector3f_px4::length() const
    estimator_22states.o(i._ZN9AttPosEKF15ConstrainStatesEv) refers to ekf_att_pos_estimator_main.o(i.__ARM_isfinitef) for __ARM_isfinitef
    estimator_22states.o(i._ZN9AttPosEKF15ConstrainStatesEv) refers to estimator_22states.o(i._ZN9AttPosEKF14ConstrainFloatEfff) for AttPosEKF::ConstrainFloat(float, float, float)
    estimator_22states.o(i._ZN9AttPosEKF15updateDtGpsFiltEf) refers to estimator_22states.o(i._ZN9AttPosEKF14ConstrainFloatEfff) for AttPosEKF::ConstrainFloat(float, float, float)
    estimator_22states.o(i._ZN9AttPosEKF15updateDtHgtFiltEf) refers to estimator_22states.o(i._ZN9AttPosEKF14ConstrainFloatEfff) for AttPosEKF::ConstrainFloat(float, float, float)
    estimator_22states.o(i._ZN9AttPosEKF16FuseMagnetometerEv) refers to estimator_22states.o(i._ZN9AttPosEKF2sqEf) for AttPosEKF::sq(float)
    estimator_22states.o(i._ZN9AttPosEKF16FuseMagnetometerEv) refers to estimator_utilities.o(i._ZNK12Vector3f_px46lengthEv) for Vector3f_px4::length() const
    estimator_22states.o(i._ZN9AttPosEKF16FuseMagnetometerEv) refers to sqrtf.o(i.__hardfp_sqrtf) for __hardfp_sqrtf
    estimator_22states.o(i._ZN9AttPosEKF16FuseMagnetometerEv) refers to estimator_22states.o(i._ZN9AttPosEKF13ForceSymmetryEv) for AttPosEKF::ForceSymmetry()
    estimator_22states.o(i._ZN9AttPosEKF16FuseMagnetometerEv) refers to estimator_22states.o(i._ZN9AttPosEKF18ConstrainVariancesEv) for AttPosEKF::ConstrainVariances()
    estimator_22states.o(i._ZN9AttPosEKF16InitialiseFilterERA3_fddff) refers to estimator_22states.o(i._ZN9AttPosEKF17InitializeDynamicERA3_ff) for AttPosEKF::InitializeDynamic(float(&)[3], float)
    estimator_22states.o(i._ZN9AttPosEKF16calcEarthRateNEDER12Vector3f_px4f) refers to cosf.o(i.__hardfp_cosf) for __hardfp_cosf
    estimator_22states.o(i._ZN9AttPosEKF16calcEarthRateNEDER12Vector3f_px4f) refers to sinf.o(i.__hardfp_sinf) for __hardfp_sinf
    estimator_22states.o(i._ZN9AttPosEKF17GetLastErrorStateEP17ekf_status_report) refers to memcpya.o(.text) for __aeabi_memcpy4
    estimator_22states.o(i._ZN9AttPosEKF17GetLastErrorStateEP17ekf_status_report) refers to memseta.o(.text) for __aeabi_memclr4
    estimator_22states.o(i._ZN9AttPosEKF17InitializeDynamicERA3_ff) refers to estimator_22states.o(i._ZN9AttPosEKF14GetFilterStateEP17ekf_status_report) for AttPosEKF::GetFilterState(ekf_status_report*)
    estimator_22states.o(i._ZN9AttPosEKF17InitializeDynamicERA3_ff) refers to estimator_22states.o(i._ZN9AttPosEKF13ZeroVariablesEv) for AttPosEKF::ZeroVariables()
    estimator_22states.o(i._ZN9AttPosEKF17InitializeDynamicERA3_ff) refers to estimator_22states.o(i._ZN12Vector3f_px4C1Efff) for Vector3f_px4::Vector3f_px4(float, float, float)
    estimator_22states.o(i._ZN9AttPosEKF17InitializeDynamicERA3_ff) refers to estimator_utilities.o(i._ZmiRK12Vector3f_px4S1_) for operator -(const Vector3f_px4&, const Vector3f_px4&)
    estimator_22states.o(i._ZN9AttPosEKF17InitializeDynamicERA3_ff) refers to estimator_22states.o(i._ZN9AttPosEKF12AttitudeInitEfffffffPf) for AttPosEKF::AttitudeInit(float, float, float, float, float, float, float, float*)
    estimator_22states.o(i._ZN9AttPosEKF17InitializeDynamicERA3_ff) refers to estimator_22states.o(i._ZN9AttPosEKF8quat2TbnER5Mat3fRA4_Kf) for AttPosEKF::quat2Tbn(Mat3f&, const float(&)[4])
    estimator_22states.o(i._ZN9AttPosEKF17InitializeDynamicERA3_ff) refers to estimator_utilities.o(i._ZNK5Mat3f9transposeEv) for Mat3f::transpose() const
    estimator_22states.o(i._ZN9AttPosEKF17InitializeDynamicERA3_ff) refers to memcpya.o(.text) for __aeabi_memcpy4
    estimator_22states.o(i._ZN9AttPosEKF17InitializeDynamicERA3_ff) refers to estimator_22states.o(i._ZN9AttPosEKF2sqEf) for AttPosEKF::sq(float)
    estimator_22states.o(i._ZN9AttPosEKF17InitializeDynamicERA3_ff) refers to estimator_22states.o(i._ZN9AttPosEKF13ResetVelocityEv) for AttPosEKF::ResetVelocity()
    estimator_22states.o(i._ZN9AttPosEKF17InitializeDynamicERA3_ff) refers to estimator_22states.o(i._ZN9AttPosEKF13ResetPositionEv) for AttPosEKF::ResetPosition()
    estimator_22states.o(i._ZN9AttPosEKF17InitializeDynamicERA3_ff) refers to estimator_22states.o(i._ZN9AttPosEKF11ResetHeightEv) for AttPosEKF::ResetHeight()
    estimator_22states.o(i._ZN9AttPosEKF17InitializeDynamicERA3_ff) refers to estimator_22states.o(i._ZN9AttPosEKF17ResetStoredStatesEv) for AttPosEKF::ResetStoredStates()
    estimator_22states.o(i._ZN9AttPosEKF17InitializeDynamicERA3_ff) refers to estimator_22states.o(i._ZN9AttPosEKF14CovarianceInitEv) for AttPosEKF::CovarianceInit()
    estimator_22states.o(i._ZN9AttPosEKF17InitializeDynamicERA3_ff) refers to d2f.o(.text) for __aeabi_d2f
    estimator_22states.o(i._ZN9AttPosEKF17InitializeDynamicERA3_ff) refers to estimator_22states.o(i._ZN9AttPosEKF16calcEarthRateNEDER12Vector3f_px4f) for AttPosEKF::calcEarthRateNED(Vector3f_px4&, float)
    estimator_22states.o(i._ZN9AttPosEKF17ResetStoredStatesEv) refers to memseta.o(.text) for __aeabi_memclr4
    estimator_22states.o(i._ZN9AttPosEKF17ResetStoredStatesEv) refers to ekf_att_pos_estimator_main.o(i._Z6millisv) for millis()
    estimator_22states.o(i._ZN9AttPosEKF17ResetStoredStatesEv) refers to estimator_22states.o(i._ZN9AttPosEKF11StoreStatesEy) for AttPosEKF::StoreStates(unsigned long long)
    estimator_22states.o(i._ZN9AttPosEKF18ConstrainVariancesEv) refers to estimator_22states.o(i._ZN9AttPosEKF14ConstrainFloatEfff) for AttPosEKF::ConstrainFloat(float, float, float)
    estimator_22states.o(i._ZN9AttPosEKF18ConstrainVariancesEv) refers to estimator_22states.o(i._ZN9AttPosEKF2sqEf) for AttPosEKF::sq(float)
    estimator_22states.o(i._ZN9AttPosEKF18updateDtVelPosFiltEf) refers to estimator_22states.o(i._ZN9AttPosEKF14ConstrainFloatEfff) for AttPosEKF::ConstrainFloat(float, float, float)
    estimator_22states.o(i._ZN9AttPosEKF19GyroOffsetsDivergedEv) refers to estimator_22states.o(i._ZN12Vector3f_px4C1Efff) for Vector3f_px4::Vector3f_px4(float, float, float)
    estimator_22states.o(i._ZN9AttPosEKF19GyroOffsetsDivergedEv) refers to estimator_utilities.o(i._ZmiRK12Vector3f_px4S1_) for operator -(const Vector3f_px4&, const Vector3f_px4&)
    estimator_22states.o(i._ZN9AttPosEKF19GyroOffsetsDivergedEv) refers to estimator_utilities.o(i._ZNK12Vector3f_px46lengthEv) for Vector3f_px4::length() const
    estimator_22states.o(i._ZN9AttPosEKF19GyroOffsetsDivergedEv) refers to estimator_22states.o(i._ZN9AttPosEKF14ConstrainFloatEfff) for AttPosEKF::ConstrainFloat(float, float, float)
    estimator_22states.o(i._ZN9AttPosEKF19GyroOffsetsDivergedEv) refers to f2d.o(.text) for __aeabi_f2d
    estimator_22states.o(i._ZN9AttPosEKF19GyroOffsetsDivergedEv) refers to ddiv.o(.text) for __aeabi_ddiv
    estimator_22states.o(i._ZN9AttPosEKF19GyroOffsetsDivergedEv) refers to dmul.o(.text) for __aeabi_dmul
    estimator_22states.o(i._ZN9AttPosEKF19GyroOffsetsDivergedEv) refers to d2f.o(.text) for __aeabi_d2f
    estimator_22states.o(i._ZN9AttPosEKF20CovariancePredictionEf) refers to memseta.o(.text) for __aeabi_memclr4
    estimator_22states.o(i._ZN9AttPosEKF20CovariancePredictionEf) refers to estimator_22states.o(i._ZN9AttPosEKF2sqEf) for AttPosEKF::sq(float)
    estimator_22states.o(i._ZN9AttPosEKF20CovariancePredictionEf) refers to estimator_22states.o(i._ZN9AttPosEKF14ConstrainFloatEfff) for AttPosEKF::ConstrainFloat(float, float, float)
    estimator_22states.o(i._ZN9AttPosEKF20CovariancePredictionEf) refers to estimator_22states.o(i._ZN9AttPosEKF18ConstrainVariancesEv) for AttPosEKF::ConstrainVariances()
    estimator_22states.o(i._ZN9AttPosEKF27UpdateStrapdownEquationsNEDEv) refers to estimator_22states.o(i._ZN12Vector3f_px4C1Efff) for Vector3f_px4::Vector3f_px4(float, float, float)
    estimator_22states.o(i._ZN9AttPosEKF27UpdateStrapdownEquationsNEDEv) refers to estimator_utilities.o(i._ZrmRK12Vector3f_px4S1_) for operator %(const Vector3f_px4&, const Vector3f_px4&)
    estimator_22states.o(i._ZN9AttPosEKF27UpdateStrapdownEquationsNEDEv) refers to estimator_utilities.o(i._ZmlfRK12Vector3f_px4) for operator *(float, const Vector3f_px4&)
    estimator_22states.o(i._ZN9AttPosEKF27UpdateStrapdownEquationsNEDEv) refers to estimator_utilities.o(i._ZmlRK5Mat3fRK12Vector3f_px4) for operator *(const Mat3f&, const Vector3f_px4&)
    estimator_22states.o(i._ZN9AttPosEKF27UpdateStrapdownEquationsNEDEv) refers to estimator_utilities.o(i._ZmlRK12Vector3f_px4f) for operator *(const Vector3f_px4&, float)
    estimator_22states.o(i._ZN9AttPosEKF27UpdateStrapdownEquationsNEDEv) refers to estimator_utilities.o(i._ZmiRK12Vector3f_px4S1_) for operator -(const Vector3f_px4&, const Vector3f_px4&)
    estimator_22states.o(i._ZN9AttPosEKF27UpdateStrapdownEquationsNEDEv) refers to estimator_utilities.o(i._ZplRK12Vector3f_px4S1_) for operator +(const Vector3f_px4&, const Vector3f_px4&)
    estimator_22states.o(i._ZN9AttPosEKF27UpdateStrapdownEquationsNEDEv) refers to estimator_utilities.o(i._ZNK12Vector3f_px46lengthEv) for Vector3f_px4::length() const
    estimator_22states.o(i._ZN9AttPosEKF27UpdateStrapdownEquationsNEDEv) refers to f2d.o(.text) for __aeabi_f2d
    estimator_22states.o(i._ZN9AttPosEKF27UpdateStrapdownEquationsNEDEv) refers to dmul.o(.text) for __aeabi_dmul
    estimator_22states.o(i._ZN9AttPosEKF27UpdateStrapdownEquationsNEDEv) refers to cos.o(i.__hardfp_cos) for __hardfp_cos
    estimator_22states.o(i._ZN9AttPosEKF27UpdateStrapdownEquationsNEDEv) refers to d2f.o(.text) for __aeabi_d2f
    estimator_22states.o(i._ZN9AttPosEKF27UpdateStrapdownEquationsNEDEv) refers to sin.o(i.__hardfp_sin) for __hardfp_sin
    estimator_22states.o(i._ZN9AttPosEKF27UpdateStrapdownEquationsNEDEv) refers to ddiv.o(.text) for __aeabi_ddiv
    estimator_22states.o(i._ZN9AttPosEKF27UpdateStrapdownEquationsNEDEv) refers to estimator_22states.o(i._ZN9AttPosEKF2sqEf) for AttPosEKF::sq(float)
    estimator_22states.o(i._ZN9AttPosEKF27UpdateStrapdownEquationsNEDEv) refers to sqrtf.o(i.__hardfp_sqrtf) for __hardfp_sqrtf
    estimator_22states.o(i._ZN9AttPosEKF27UpdateStrapdownEquationsNEDEv) refers to estimator_utilities.o(i._ZNK5Mat3f9transposeEv) for Mat3f::transpose() const
    estimator_22states.o(i._ZN9AttPosEKF27UpdateStrapdownEquationsNEDEv) refers to memcpya.o(.text) for __aeabi_memcpy4
    estimator_22states.o(i._ZN9AttPosEKF27UpdateStrapdownEquationsNEDEv) refers to estimator_utilities.o(i._ZdvRK12Vector3f_px4f) for operator /(const Vector3f_px4&, float)
    estimator_22states.o(i._ZN9AttPosEKF27UpdateStrapdownEquationsNEDEv) refers to estimator_22states.o(i._ZN9AttPosEKF15ConstrainStatesEv) for AttPosEKF::ConstrainStates()
    estimator_22states.o(i._ZN9AttPosEKF8eul2quatERA4_fRA3_Kf) refers to estimator_22states.o(i._ZSt3cosf) for std::cos(float)
    estimator_22states.o(i._ZN9AttPosEKF8eul2quatERA4_fRA3_Kf) refers to estimator_22states.o(i._ZSt3sinf) for std::sin(float)
    estimator_22states.o(i._ZN9AttPosEKF8quat2TbnER5Mat3fRA4_Kf) refers to estimator_22states.o(i._ZN9AttPosEKF2sqEf) for AttPosEKF::sq(float)
    estimator_22states.o(i._ZN9AttPosEKF8quat2eulERA3_fRA4_Kf) refers to atan2f.o(i.__hardfp_atan2f) for __hardfp_atan2f
    estimator_22states.o(i._ZN9AttPosEKF8quat2eulERA3_fRA4_Kf) refers to asinf.o(i.__hardfp_asinf) for __hardfp_asinf
    estimator_22states.o(i._ZN9AttPosEKF9StatesNaNEv) refers to ekf_att_pos_estimator_main.o(i.__ARM_isfinitef) for __ARM_isfinitef
    estimator_22states.o(i._ZN9AttPosEKF9StatesNaNEv) refers to f2d.o(.text) for __aeabi_f2d
    estimator_22states.o(i._ZN9AttPosEKF9StatesNaNEv) refers to estimator_utilities.o(i._Z9ekf_debugPKcz) for ekf_debug(const char*, ...)
    estimator_22states.o(i._ZN9AttPosEKFC1Ev) refers to estimator_22states.o(i._ZN9AttPosEKF16mag_state_structC1Ev) for AttPosEKF::mag_state_struct::mag_state_struct()
    estimator_22states.o(i._ZN9AttPosEKFC1Ev) refers to estimator_22states.o(i._ZN12Vector3f_px4C1Efff) for Vector3f_px4::Vector3f_px4(float, float, float)
    estimator_22states.o(i._ZN9AttPosEKFC1Ev) refers to estimator_22states.o(i._ZN5Mat3fC1Ev) for Mat3f::Mat3f()
    estimator_22states.o(i._ZN9AttPosEKFC1Ev) refers to memseta.o(.text) for __aeabi_memclr4
    estimator_22states.o(i._ZN9AttPosEKFC1Ev) refers to estimator_22states.o(i._ZN9AttPosEKF13ZeroVariablesEv) for AttPosEKF::ZeroVariables()
    estimator_22states.o(i._ZN9AttPosEKFC1Ev) refers to estimator_22states.o(i._ZN9AttPosEKF20InitialiseParametersEv) for AttPosEKF::InitialiseParameters()
    estimator_22states.o(.ARM.exidx) refers to estimator_22states.o(i._ZN9AttPosEKF20InitialiseParametersEv) for i._ZN9AttPosEKF20InitialiseParametersEv
    estimator_22states.o(.ARM.exidx) refers to estimator_22states.o(i._ZN9AttPosEKF14ConstrainFloatEfff) for i._ZN9AttPosEKF14ConstrainFloatEfff
    estimator_22states.o(.ARM.exidx) refers to estimator_22states.o(i._ZN9AttPosEKF13ZeroVariablesEv) for i._ZN9AttPosEKF13ZeroVariablesEv
    estimator_22states.o(.ARM.exidx) refers to estimator_22states.o(i._ZN9AttPosEKFC1Ev) for i._ZN9AttPosEKFC1Ev
    estimator_22states.o(.ARM.exidx) refers to estimator_22states.o(i._ZN9AttPosEKFD1Ev) for i._ZN9AttPosEKFD1Ev
    estimator_22states.o(.ARM.exidx) refers to estimator_22states.o(i._ZN9AttPosEKF15updateDtGpsFiltEf) for i._ZN9AttPosEKF15updateDtGpsFiltEf
    estimator_22states.o(.ARM.exidx) refers to estimator_22states.o(i._ZN9AttPosEKF15updateDtHgtFiltEf) for i._ZN9AttPosEKF15updateDtHgtFiltEf
    estimator_22states.o(.ARM.exidx) refers to estimator_22states.o(i._ZN9AttPosEKF15ConstrainStatesEv) for i._ZN9AttPosEKF15ConstrainStatesEv
    estimator_22states.o(.ARM.exidx) refers to estimator_22states.o(i._ZN9AttPosEKF27UpdateStrapdownEquationsNEDEv) for i._ZN9AttPosEKF27UpdateStrapdownEquationsNEDEv
    estimator_22states.o(.ARM.exidx) refers to estimator_22states.o(i._ZN9AttPosEKF18ConstrainVariancesEv) for i._ZN9AttPosEKF18ConstrainVariancesEv
    estimator_22states.o(.ARM.exidx) refers to estimator_22states.o(i._ZN9AttPosEKF20CovariancePredictionEf) for i._ZN9AttPosEKF20CovariancePredictionEf
    estimator_22states.o(.ARM.exidx) refers to estimator_22states.o(i._ZN9AttPosEKF16calcEarthRateNEDER12Vector3f_px4f) for i._ZN9AttPosEKF16calcEarthRateNEDER12Vector3f_px4f
    estimator_22states.o(.ARM.exidx) refers to estimator_22states.o(i._ZN9AttPosEKF14CovarianceInitEv) for i._ZN9AttPosEKF14CovarianceInitEv
    estimator_22states.o(.ARM.exidx) refers to estimator_22states.o(i._ZN9AttPosEKF11StoreStatesEy) for i._ZN9AttPosEKF11StoreStatesEy
    estimator_22states.o(.ARM.exidx) refers to estimator_22states.o(i._ZN9AttPosEKF17ResetStoredStatesEv) for i._ZN9AttPosEKF17ResetStoredStatesEv
    estimator_22states.o(.ARM.exidx) refers to estimator_22states.o(i._ZN9AttPosEKF11ResetHeightEv) for i._ZN9AttPosEKF11ResetHeightEv
    estimator_22states.o(.ARM.exidx) refers to estimator_22states.o(i._ZN9AttPosEKF13ResetPositionEv) for i._ZN9AttPosEKF13ResetPositionEv
    estimator_22states.o(.ARM.exidx) refers to estimator_22states.o(i._ZN9AttPosEKF13ResetVelocityEv) for i._ZN9AttPosEKF13ResetVelocityEv
    estimator_22states.o(.ARM.exidx) refers to estimator_22states.o(i._ZN9AttPosEKF8quat2TbnER5Mat3fRA4_Kf) for i._ZN9AttPosEKF8quat2TbnER5Mat3fRA4_Kf
    estimator_22states.o(.ARM.exidx) refers to estimator_22states.o(i._ZN9AttPosEKF12AttitudeInitEfffffffPf) for i._ZN9AttPosEKF12AttitudeInitEfffffffPf
    estimator_22states.o(.ARM.exidx) refers to estimator_22states.o(i._ZN9AttPosEKF14GetFilterStateEP17ekf_status_report) for i._ZN9AttPosEKF14GetFilterStateEP17ekf_status_report
    estimator_22states.o(.ARM.exidx) refers to estimator_22states.o(i._ZN9AttPosEKF17InitializeDynamicERA3_ff) for i._ZN9AttPosEKF17InitializeDynamicERA3_ff
    estimator_22states.o(.ARM.exidx) refers to estimator_22states.o(i._ZN9AttPosEKF13ForceSymmetryEv) for i._ZN9AttPosEKF13ForceSymmetryEv
    estimator_22states.o(.ARM.exidx) refers to estimator_22states.o(i._ZN9AttPosEKF18updateDtVelPosFiltEf) for i._ZN9AttPosEKF18updateDtVelPosFiltEf
    estimator_22states.o(.ARM.exidx) refers to estimator_22states.o(i._ZN9AttPosEKF13FuseVelposNEDEv) for i._ZN9AttPosEKF13FuseVelposNEDEv
    estimator_22states.o(.ARM.exidx) refers to estimator_22states.o(i._ZN9AttPosEKF16FuseMagnetometerEv) for i._ZN9AttPosEKF16FuseMagnetometerEv
    estimator_22states.o(.ARM.exidx) refers to estimator_22states.o(i._ZN9AttPosEKF12FuseAirspeedEv) for i._ZN9AttPosEKF12FuseAirspeedEv
    estimator_22states.o(.ARM.exidx) refers to estimator_22states.o(i._ZN9AttPosEKF11FuseOptFlowEv) for i._ZN9AttPosEKF11FuseOptFlowEv
    estimator_22states.o(.ARM.exidx) refers to estimator_22states.o(i._ZN9AttPosEKF14OpticalFlowEKFEv) for i._ZN9AttPosEKF14OpticalFlowEKFEv
    estimator_22states.o(.ARM.exidx) refers to estimator_22states.o(i._ZN9AttPosEKF8zeroRowsERA22_A22_fhh) for i._ZN9AttPosEKF8zeroRowsERA22_A22_fhh
    estimator_22states.o(.ARM.exidx) refers to estimator_22states.o(i._ZN9AttPosEKF8zeroColsERA22_A22_fhh) for i._ZN9AttPosEKF8zeroColsERA22_A22_fhh
    estimator_22states.o(.ARM.exidx) refers to estimator_22states.o(i._ZN9AttPosEKF12RecallStatesEPfy) for i._ZN9AttPosEKF12RecallStatesEPfy
    estimator_22states.o(.ARM.exidx) refers to estimator_22states.o(i._ZN9AttPosEKF11RecallOmegaEPfy) for i._ZN9AttPosEKF11RecallOmegaEPfy
    estimator_22states.o(.ARM.exidx) refers to estimator_22states.o(i._ZN9AttPosEKF8eul2quatERA4_fRA3_Kf) for i._ZN9AttPosEKF8eul2quatERA4_fRA3_Kf
    estimator_22states.o(.ARM.exidx) refers to estimator_22states.o(i._ZN9AttPosEKF8quat2eulERA3_fRA4_Kf) for i._ZN9AttPosEKF8quat2eulERA3_fRA4_Kf
    estimator_22states.o(.ARM.exidx) refers to estimator_22states.o(i._ZN9AttPosEKF11setOnGroundEb) for i._ZN9AttPosEKF11setOnGroundEb
    estimator_22states.o(.ARM.exidx) refers to estimator_22states.o(i._ZN9AttPosEKF16InitialiseFilterERA3_fddff) for i._ZN9AttPosEKF16InitialiseFilterERA3_fddff
    estimator_22states.o(.ARM.exidx) refers to estimator_22states.o(i._ZN9AttPosEKF17GetLastErrorStateEP17ekf_status_report) for i._ZN9AttPosEKF17GetLastErrorStateEP17ekf_status_report
    estimator_22states.o(.ARM.exidx) refers to estimator_22states.o(i._ZN9AttPosEKF14VelNEDDivergedEv) for i._ZN9AttPosEKF14VelNEDDivergedEv
    estimator_22states.o(.ARM.exidx) refers to estimator_22states.o(i._ZN9AttPosEKF19GyroOffsetsDivergedEv) for i._ZN9AttPosEKF19GyroOffsetsDivergedEv
    estimator_22states.o(.ARM.exidx) refers to estimator_22states.o(i._ZN9AttPosEKF9StatesNaNEv) for i._ZN9AttPosEKF9StatesNaNEv
    estimator_22states.o(.ARM.exidx) refers to estimator_22states.o(i._ZN9AttPosEKF13CheckAndBoundEP17ekf_status_report) for i._ZN9AttPosEKF13CheckAndBoundEP17ekf_status_report
    estimator_22states.o(.ARM.exidx) refers to estimator_22states.o(i._ZN9AttPosEKF14setIsFixedWingEb) for i._ZN9AttPosEKF14setIsFixedWingEb
    estimator_22states.o(.ARM.exidx) refers to estimator_22states.o(i._ZN9AttPosEKF14get_covarianceEPf) for i._ZN9AttPosEKF14get_covarianceEPf
    estimator_22states.o(.ARM.exidx) refers to estimator_22states.o(i._ZN9AttPosEKF13FilterHealthyEv) for i._ZN9AttPosEKF13FilterHealthyEv
    estimator_utilities.o(i._Z10calcposNEDRA3_fddfddf) refers to dadd.o(.text) for __aeabi_dsub
    estimator_utilities.o(i._Z10calcposNEDRA3_fddfddf) refers to dmul.o(.text) for __aeabi_dmul
    estimator_utilities.o(i._Z10calcposNEDRA3_fddfddf) refers to d2f.o(.text) for __aeabi_d2f
    estimator_utilities.o(i._Z10calcposNEDRA3_fddfddf) refers to cos.o(i.__hardfp_cos) for __hardfp_cos
    estimator_utilities.o(i._Z10calcvelNEDRA3_ffff) refers to cosf.o(i.__hardfp_cosf) for __hardfp_cosf
    estimator_utilities.o(i._Z10calcvelNEDRA3_ffff) refers to sinf.o(i.__hardfp_sinf) for __hardfp_sinf
    estimator_utilities.o(i._Z7calcLLHPfRdS0_Rfddf) refers to f2d.o(.text) for __aeabi_f2d
    estimator_utilities.o(i._Z7calcLLHPfRdS0_Rfddf) refers to dmul.o(.text) for __aeabi_dmul
    estimator_utilities.o(i._Z7calcLLHPfRdS0_Rfddf) refers to dadd.o(.text) for __aeabi_dadd
    estimator_utilities.o(i._Z7calcLLHPfRdS0_Rfddf) refers to cos.o(i.__hardfp_cos) for __hardfp_cos
    estimator_utilities.o(i._Z7calcLLHPfRdS0_Rfddf) refers to ddiv.o(.text) for __aeabi_ddiv
    estimator_utilities.o(i._ZNK12Vector3f_px46lengthEv) refers to sqrtf.o(i.__hardfp_sqrtf) for __hardfp_sqrtf
    estimator_utilities.o(i._ZNK5Mat3f9transposeEv) refers to memcpya.o(.text) for __aeabi_memcpy4
    estimator_utilities.o(i._ZNK5Mat3f9transposeEv) refers to estimator_utilities.o(i._Z8swap_varRfS_) for swap_var(float&, float&)
    estimator_utilities.o(i._ZdvRK12Vector3f_px4f) refers to estimator_22states.o(i._ZN12Vector3f_px4C1Efff) for Vector3f_px4::Vector3f_px4(float, float, float)
    estimator_utilities.o(i._ZmiRK12Vector3f_px4S1_) refers to estimator_22states.o(i._ZN12Vector3f_px4C1Efff) for Vector3f_px4::Vector3f_px4(float, float, float)
    estimator_utilities.o(i._ZmlRK12Vector3f_px4f) refers to estimator_22states.o(i._ZN12Vector3f_px4C1Efff) for Vector3f_px4::Vector3f_px4(float, float, float)
    estimator_utilities.o(i._ZmlRK5Mat3fRK12Vector3f_px4) refers to estimator_22states.o(i._ZN12Vector3f_px4C1Efff) for Vector3f_px4::Vector3f_px4(float, float, float)
    estimator_utilities.o(i._ZmlRK5Mat3fS1_) refers to estimator_22states.o(i._ZN5Mat3fC1Ev) for Mat3f::Mat3f()
    estimator_utilities.o(i._ZmlRK5Mat3fS1_) refers to memcpya.o(.text) for __aeabi_memcpy4
    estimator_utilities.o(i._ZmlfRK12Vector3f_px4) refers to estimator_22states.o(i._ZN12Vector3f_px4C1Efff) for Vector3f_px4::Vector3f_px4(float, float, float)
    estimator_utilities.o(i._ZplRK12Vector3f_px4S1_) refers to estimator_22states.o(i._ZN12Vector3f_px4C1Efff) for Vector3f_px4::Vector3f_px4(float, float, float)
    estimator_utilities.o(i._ZrmRK12Vector3f_px4S1_) refers to estimator_22states.o(i._ZN12Vector3f_px4C1Efff) for Vector3f_px4::Vector3f_px4(float, float, float)
    estimator_utilities.o(.ARM.exidx) refers to estimator_utilities.o(i._Z9ekf_debugPKcz) for i._Z9ekf_debugPKcz
    estimator_utilities.o(.ARM.exidx) refers to estimator_utilities.o(i._Z10calcvelNEDRA3_ffff) for i._Z10calcvelNEDRA3_ffff
    estimator_utilities.o(.ARM.exidx) refers to estimator_utilities.o(i._Z10calcposNEDRA3_fddfddf) for i._Z10calcposNEDRA3_fddfddf
    estimator_utilities.o(.ARM.exidx) refers to estimator_utilities.o(i._Z7calcLLHPfRdS0_Rfddf) for i._Z7calcLLHPfRdS0_Rfddf
    estimator_utilities.o(.ARM.exidx) refers to estimator_utilities.o(i._ZplRK12Vector3f_px4S1_) for i._ZplRK12Vector3f_px4S1_
    estimator_utilities.o(.ARM.exidx) refers to estimator_utilities.o(i._ZmiRK12Vector3f_px4S1_) for i._ZmiRK12Vector3f_px4S1_
    estimator_utilities.o(.ARM.exidx) refers to estimator_utilities.o(i._ZmlRK5Mat3fRK12Vector3f_px4) for i._ZmlRK5Mat3fRK12Vector3f_px4
    estimator_utilities.o(.ARM.exidx) refers to estimator_utilities.o(i._ZmlRK5Mat3fS1_) for i._ZmlRK5Mat3fS1_
    estimator_utilities.o(.ARM.exidx) refers to estimator_utilities.o(i._ZrmRK12Vector3f_px4S1_) for i._ZrmRK12Vector3f_px4S1_
    estimator_utilities.o(.ARM.exidx) refers to estimator_utilities.o(i._ZmlRK12Vector3f_px4f) for i._ZmlRK12Vector3f_px4f
    estimator_utilities.o(.ARM.exidx) refers to estimator_utilities.o(i._ZmlfRK12Vector3f_px4) for i._ZmlfRK12Vector3f_px4
    estimator_utilities.o(.ARM.exidx) refers to estimator_utilities.o(i._ZdvRK12Vector3f_px4f) for i._ZdvRK12Vector3f_px4f
    estimator_utilities.o(.ARM.exidx) refers to estimator_utilities.o(i._Z8swap_varRfS_) for i._Z8swap_varRfS_
    estimator_utilities.o(.ARM.exidx) refers to estimator_utilities.o(i._ZNK12Vector3f_px46lengthEv) for i._ZNK12Vector3f_px46lengthEv
    estimator_utilities.o(.ARM.exidx) refers to estimator_utilities.o(i._ZN12Vector3f_px44zeroEv) for i._ZN12Vector3f_px44zeroEv
    estimator_utilities.o(.ARM.exidx) refers to estimator_utilities.o(i._ZN5Mat3f8identityEv) for i._ZN5Mat3f8identityEv
    estimator_utilities.o(.ARM.exidx) refers to estimator_utilities.o(i._ZNK5Mat3f9transposeEv) for i._ZNK5Mat3f9transposeEv
    imu.o(i._ZN3IMU12SensorSampleEv) refers to dev_mup6050.o(i._ZN8_MPU605010DataSampleEv) for _MPU6050::DataSample()
    imu.o(i._ZN3IMU12SensorSampleEv) refers to uav_filter.o(i._ZN6Filter7LPF_2ndEPNS_12LPF2ndData_tE7Vector3IfE) for Filter::LPF_2nd(Filter::LPF2ndData_t*, Vector3<float>)
    imu.o(i._ZN3IMU12SensorSampleEv) refers to cal_vector3.o(t._ZNK7Vector3IfEmlERKS0_) for Vector3<float>::operator *(const Vector3<float>&) const
    imu.o(i._ZN3IMU12SensorSampleEv) refers to dev_mup6050.o(.bss) for Mpu6050
    imu.o(i._ZN3IMU12SensorSampleEv) refers to uav_filter.o(.data) for filter
    imu.o(i._ZN3IMU4InitEv) refers to uav_filter.o(i._ZN6Filter18LPF_2nd_Factor_CalEffPNS_12LPF2ndData_tE) for Filter::LPF_2nd_Factor_Cal(float, float, Filter::LPF2ndData_t*)
    imu.o(i._ZN3IMU4InitEv) refers to uav_filter.o(i._ZN6Filter18LPF_1st_Factor_CalEff) for Filter::LPF_1st_Factor_Cal(float, float)
    imu.o(i._ZN3IMU4InitEv) refers to uav_filter.o(i._ZN6Filter13CF_Factor_CalEff) for Filter::CF_Factor_Cal(float, float)
    imu.o(i._ZN3IMU8AttitudeEf) refers to imu_dcm.o(i._ZN4_DCM22DirectionConsineMatrixE7Vector3IfES1_ff) for _DCM::DirectionConsineMatrix(Vector3<float>, Vector3<float>, float, float)
    imu.o(i._ZN3IMU8AttitudeEf) refers to dev_mup6050.o(.bss) for Mpu6050
    imu.o(i._ZN3IMU8AttitudeEf) refers to imu_dcm.o(.data) for dcm
    imu.o(i._ZN3IMU8AttitudeEf) refers to imu.o(.bss) for imu
    imu.o(i.__sti___7_imu_cpp_imu) refers to imu.o(t._ZN7Vector3IfEC1Ev) for Vector3<float>::Vector3()
    imu.o(i.__sti___7_imu_cpp_imu) refers to imu.o(.bss) for imu
    imu.o(.ARM.exidx) refers to imu.o(i._ZN3IMU4InitEv) for i._ZN3IMU4InitEv
    imu.o(.ARM.exidx) refers to imu.o(i._ZN3IMU8AttitudeEf) for i._ZN3IMU8AttitudeEf
    imu.o(.ARM.exidx) refers to imu.o(i._ZN3IMU12SensorSampleEv) for i._ZN3IMU12SensorSampleEv
    imu.o(.ARM.exidx) refers to imu.o(i.__sti___7_imu_cpp_imu) for i.__sti___7_imu_cpp_imu
    imu.o(.init_array) refers to imu.o(i.__sti___7_imu_cpp_imu) for __sti___7_imu_cpp_imu
    imu.o(.init_array) refers to cpp_init.o(.text) for __cpp_initialize__aeabi_
    imu_dcm.o(i._ZN4_DCM22DirectionConsineMatrixE7Vector3IfES1_ff) refers to cxa_guard_acquire.o(i.__cxa_guard_acquire) for __cxa_guard_acquire
    imu_dcm.o(i._ZN4_DCM22DirectionConsineMatrixE7Vector3IfES1_ff) refers to imu.o(t._ZN7Vector3IfEC1Ev) for Vector3<float>::Vector3()
    imu_dcm.o(i._ZN4_DCM22DirectionConsineMatrixE7Vector3IfES1_ff) refers to imu_dcm.o(t._ZN7Vector3IfEC1Efff) for Vector3<float>::Vector3(float, float, float)
    imu_dcm.o(i._ZN4_DCM22DirectionConsineMatrixE7Vector3IfES1_ff) refers to cal_vector3.o(t._ZNK7Vector3IfEplERKS0_) for Vector3<float>::operator +(const Vector3<float>&) const
    imu_dcm.o(i._ZN4_DCM22DirectionConsineMatrixE7Vector3IfES1_ff) refers to cal_vector3.o(t._ZNK7Vector3IfEmlEf) for Vector3<float>::operator *(float) const
    imu_dcm.o(i._ZN4_DCM22DirectionConsineMatrixE7Vector3IfES1_ff) refers to cal_matrix3.o(t._ZN7Matrix3IfE10from_eulerERK7Vector3IfE) for Matrix3<float>::from_euler(const Vector3<float>&)
    imu_dcm.o(i._ZN4_DCM22DirectionConsineMatrixE7Vector3IfES1_ff) refers to cal_matrix3.o(t._ZNK7Matrix3IfEmlERK7Vector3IfE) for Matrix3<float>::operator *(const Vector3<float>&) const
    imu_dcm.o(i._ZN4_DCM22DirectionConsineMatrixE7Vector3IfES1_ff) refers to cal_vector3.o(t._ZNK7Vector3IfEmlERKS0_) for Vector3<float>::operator *(const Vector3<float>&) const
    imu_dcm.o(i._ZN4_DCM22DirectionConsineMatrixE7Vector3IfES1_ff) refers to cal_vector3.o(t._ZNK7Vector3IfE6lengthEv) for Vector3<float>::length() const
    imu_dcm.o(i._ZN4_DCM22DirectionConsineMatrixE7Vector3IfES1_ff) refers to cal_math.o(i._Z7radiansf) for radians(float)
    imu_dcm.o(i._ZN4_DCM22DirectionConsineMatrixE7Vector3IfES1_ff) refers to estimator_22states.o(i._ZSt3sinf) for std::sin(float)
    imu_dcm.o(i._ZN4_DCM22DirectionConsineMatrixE7Vector3IfES1_ff) refers to estimator_22states.o(i._ZSt3cosf) for std::cos(float)
    imu_dcm.o(i._ZN4_DCM22DirectionConsineMatrixE7Vector3IfES1_ff) refers to cal_vector3.o(t._ZNK7Vector3IfEdvEf) for Vector3<float>::operator /(float) const
    imu_dcm.o(i._ZN4_DCM22DirectionConsineMatrixE7Vector3IfES1_ff) refers to uav_filter.o(i._ZN6Filter6CF_1stE7Vector3IfES1_f) for Filter::CF_1st(Vector3<float>, Vector3<float>, float)
    imu_dcm.o(i._ZN4_DCM22DirectionConsineMatrixE7Vector3IfES1_ff) refers to cal_vector3.o(t._ZN7Vector3IfE13get_rollpitchERS0_) for Vector3<float>::get_rollpitch(Vector3<float>&)
    imu_dcm.o(i._ZN4_DCM22DirectionConsineMatrixE7Vector3IfES1_ff) refers to cal_vector3.o(t._ZN7Vector3IfE7get_yawERS0_) for Vector3<float>::get_yaw(Vector3<float>&)
    imu_dcm.o(i._ZN4_DCM22DirectionConsineMatrixE7Vector3IfES1_ff) refers to imu_dcm.o(.data) for _ZGVAccReady
    imu_dcm.o(i._ZN4_DCM22DirectionConsineMatrixE7Vector3IfES1_ff) refers to imu_dcm.o(.bss) for lastAcc
    imu_dcm.o(i._ZN4_DCM22DirectionConsineMatrixE7Vector3IfES1_ff) refers to imu.o(.bss) for imu
    imu_dcm.o(i._ZN4_DCM22DirectionConsineMatrixE7Vector3IfES1_ff) refers to uav_filter.o(.data) for filter
    imu_dcm.o(.ARM.exidx) refers to imu_dcm.o(i._ZN4_DCM22DirectionConsineMatrixE7Vector3IfES1_ff) for i._ZN4_DCM22DirectionConsineMatrixE7Vector3IfES1_ff
    imu_gradient.o(i._Z16MadgwickAHRSinitffffff) refers to imu_gradient.o(i._ZSt5atan2ff) for std::atan2(float, float)
    imu_gradient.o(i._Z16MadgwickAHRSinitffffff) refers to cosf.o(i.__hardfp_cosf) for __hardfp_cosf
    imu_gradient.o(i._Z16MadgwickAHRSinitffffff) refers to sinf.o(i.__hardfp_sinf) for __hardfp_sinf
    imu_gradient.o(i._Z16MadgwickAHRSinitffffff) refers to atan2f.o(i.__hardfp_atan2f) for __hardfp_atan2f
    imu_gradient.o(i._Z16MadgwickAHRSinitffffff) refers to imu_gradient.o(.data) for q0
    imu_gradient.o(i._Z18MadgwickAHRSupdateffffffffff) refers to imu_gradient.o(i._Z21MadgwickAHRSupdateIMUfffffff) for MadgwickAHRSupdateIMU(float, float, float, float, float, float, float)
    imu_gradient.o(i._Z18MadgwickAHRSupdateffffffffff) refers to cal_math.o(i._Z7invSqrtf) for invSqrt(float)
    imu_gradient.o(i._Z18MadgwickAHRSupdateffffffffff) refers to sqrtf.o(i.__hardfp_sqrtf) for __hardfp_sqrtf
    imu_gradient.o(i._Z18MadgwickAHRSupdateffffffffff) refers to imu_gradient.o(.data) for q1
    imu_gradient.o(i._Z18MadgwickAHRSupdateffffffffff) refers to f2d.o(.text) for __aeabi_f2d
    imu_gradient.o(i._Z18MadgwickAHRSupdateffffffffff) refers to dmul.o(.text) for __aeabi_dmul
    imu_gradient.o(i._Z18MadgwickAHRSupdateffffffffff) refers to dadd.o(.text) for __aeabi_dsub
    imu_gradient.o(i._Z18MadgwickAHRSupdateffffffffff) refers to d2f.o(.text) for __aeabi_d2f
    imu_gradient.o(i._Z19Quaternion_to_eulerPfS_S_) refers to atan2f.o(i.__hardfp_atan2f) for __hardfp_atan2f
    imu_gradient.o(i._Z19Quaternion_to_eulerPfS_S_) refers to cal_math.o(i._Z7degreesf) for degrees(float)
    imu_gradient.o(i._Z19Quaternion_to_eulerPfS_S_) refers to imu_gradient.o(.data) for q1
    imu_gradient.o(i._Z21MadgwickAHRSupdateIMUfffffff) refers to cal_math.o(i._Z7invSqrtf) for invSqrt(float)
    imu_gradient.o(i._Z21MadgwickAHRSupdateIMUfffffff) refers to f2d.o(.text) for __aeabi_f2d
    imu_gradient.o(i._Z21MadgwickAHRSupdateIMUfffffff) refers to dmul.o(.text) for __aeabi_dmul
    imu_gradient.o(i._Z21MadgwickAHRSupdateIMUfffffff) refers to dadd.o(.text) for __aeabi_dsub
    imu_gradient.o(i._Z21MadgwickAHRSupdateIMUfffffff) refers to d2f.o(.text) for __aeabi_d2f
    imu_gradient.o(i._Z21MadgwickAHRSupdateIMUfffffff) refers to imu_gradient.o(.data) for q1
    imu_gradient.o(.ARM.exidx) refers to imu_gradient.o(i._Z16MadgwickAHRSinitffffff) for i._Z16MadgwickAHRSinitffffff
    imu_gradient.o(.ARM.exidx) refers to imu_gradient.o(i._Z21MadgwickAHRSupdateIMUfffffff) for i._Z21MadgwickAHRSupdateIMUfffffff
    imu_gradient.o(.ARM.exidx) refers to imu_gradient.o(i._Z18MadgwickAHRSupdateffffffffff) for i._Z18MadgwickAHRSupdateffffffffff
    imu_gradient.o(.ARM.exidx) refers to imu_gradient.o(i._Z19Quaternion_to_eulerPfS_S_) for i._Z19Quaternion_to_eulerPfS_S_
    imu_ekf.o(i._Z3EKF7Vector3IfES0_S0_Phf) refers to memcpya.o(.text) for __aeabi_memcpy4
    imu_ekf.o(i._Z3EKF7Vector3IfES0_S0_Phf) refers to f2d.o(.text) for __aeabi_f2d
    imu_ekf.o(i._Z3EKF7Vector3IfES0_S0_Phf) refers to dmul.o(.text) for __aeabi_dmul
    imu_ekf.o(i._Z3EKF7Vector3IfES0_S0_Phf) refers to ddiv.o(.text) for __aeabi_ddiv
    imu_ekf.o(i._Z3EKF7Vector3IfES0_S0_Phf) refers to d2f.o(.text) for __aeabi_d2f
    imu_ekf.o(i._Z3EKF7Vector3IfES0_S0_Phf) refers to cal_math.o(i._Z7invSqrtf) for invSqrt(float)
    imu_ekf.o(i._Z3EKF7Vector3IfES0_S0_Phf) refers to memseta.o(.text) for __aeabi_memclr4
    imu_ekf.o(i._Z3EKF7Vector3IfES0_S0_Phf) refers to attitudeekf.o(i._Z11AttitudeEKFhhPKhfPKffffffffS2_PfS3_S3_S3_S3_) for AttitudeEKF(unsigned char, unsigned char, const unsigned char*, float, const float*, float, float, float, float, float, float, float, const float*, float*, float*, float*, float*, float*)
    imu_ekf.o(i._Z3EKF7Vector3IfES0_S0_Phf) refers to cal_math.o(i._Z14To_180_degreesf) for To_180_degrees(float)
    imu_ekf.o(i._Z3EKF7Vector3IfES0_S0_Phf) refers to imu_ekf.o(.constdata) for .constdata
    imu_ekf.o(i._Z3EKF7Vector3IfES0_S0_Phf) refers to imu_ekf.o(.data) for flag
    imu_ekf.o(i._Z3EKF7Vector3IfES0_S0_Phf) refers to imu_ekf.o(.bss) for P_aposteriori
    imu_ekf.o(i._Z3EKF7Vector3IfES0_S0_Phf) refers to imu.o(.bss) for imu
    imu_ekf.o(.ARM.exidx) refers to imu_ekf.o(i._Z3EKF7Vector3IfES0_S0_Phf) for i._Z3EKF7Vector3IfES0_S0_Phf
    attitudeekf.o(i._Z10b_mrdividePfPKf) refers to memcpya.o(.text) for __aeabi_memcpy4
    attitudeekf.o(i._Z10b_mrdividePfPKf) refers to attitudeekf.o(i._ZSt4fabsf) for std::fabs(float)
    attitudeekf.o(i._Z11AttitudeEKFhhPKhfPKffffffffS2_PfS3_S3_S3_S3_) refers to attitudeekf.o(i._Z3invPKfPf) for inv(const float*, float*)
    attitudeekf.o(i._Z11AttitudeEKFhhPKhfPKffffffffS2_PfS3_S3_S3_S3_) refers to attitudeekf.o(.data) for Ji_not_empty
    attitudeekf.o(i._Z11AttitudeEKFhhPKhfPKffffffffS2_PfS3_S3_S3_S3_) refers to attitudeekf.o(.bss) for Ji
    attitudeekf.o(i._Z11AttitudeEKFhhPKhfPKffffffffS2_PfS3_S3_S3_S3_) refers to attitudeekf.o(.constdata) for iv0
    attitudeekf.o(i._Z11AttitudeEKFhhPKhfPKffffffffS2_PfS3_S3_S3_S3_) refers to memseta.o(.text) for __aeabi_memclr4
    attitudeekf.o(i._Z11AttitudeEKFhhPKhfPKffffffffS2_PfS3_S3_S3_S3_) refers to attitudeekf.o(i._Z8mrdividePfPKf) for mrdivide(float*, const float*)
    attitudeekf.o(i._Z11AttitudeEKFhhPKhfPKffffffffS2_PfS3_S3_S3_S3_) refers to attitudeekf.o(i._ZSt4fabsf) for std::fabs(float)
    attitudeekf.o(i._Z11AttitudeEKFhhPKhfPKffffffffS2_PfS3_S3_S3_S3_) refers to attitudeekf.o(i._Z10b_mrdividePfPKf) for b_mrdivide(float*, const float*)
    attitudeekf.o(i._Z11AttitudeEKFhhPKhfPKffffffffS2_PfS3_S3_S3_S3_) refers to memcpya.o(.text) for __aeabi_memcpy4
    attitudeekf.o(i._Z11AttitudeEKFhhPKhfPKffffffffS2_PfS3_S3_S3_S3_) refers to attitudeekf.o(i._Z4normPKf) for norm(const float*)
    attitudeekf.o(i._Z11AttitudeEKFhhPKhfPKffffffffS2_PfS3_S3_S3_S3_) refers to imu_gradient.o(i._ZSt5atan2ff) for std::atan2(float, float)
    attitudeekf.o(i._Z11AttitudeEKFhhPKhfPKffffffffS2_PfS3_S3_S3_S3_) refers to asinf.o(i.__hardfp_asinf) for __hardfp_asinf
    attitudeekf.o(i._Z16AttitudeEKF_initv) refers to attitudeekf.o(.constdata) for fv5
    attitudeekf.o(i._Z16AttitudeEKF_initv) refers to attitudeekf.o(.bss) for x_apo
    attitudeekf.o(i._Z22AttitudeEKF_initializev) refers to attitudeekf.o(i._Z16AttitudeEKF_initv) for AttitudeEKF_init()
    attitudeekf.o(i._Z22AttitudeEKF_initializev) refers to attitudeekf.o(.data) for Q_not_empty
    attitudeekf.o(i._Z3invPKfPf) refers to attitudeekf.o(i._ZSt4fabsf) for std::fabs(float)
    attitudeekf.o(i._Z4normPKf) refers to attitudeekf.o(i._ZSt4fabsf) for std::fabs(float)
    attitudeekf.o(i._Z4normPKf) refers to sqrtf.o(i.__hardfp_sqrtf) for __hardfp_sqrtf
    attitudeekf.o(i._Z8mrdividePfPKf) refers to memcpya.o(.text) for __aeabi_memcpy4
    attitudeekf.o(i._Z8mrdividePfPKf) refers to attitudeekf.o(i._ZSt4fabsf) for std::fabs(float)
    attitudeekf.o(.ARM.exidx) refers to attitudeekf.o(i._Z16AttitudeEKF_initv) for i._Z16AttitudeEKF_initv
    attitudeekf.o(.ARM.exidx) refers to attitudeekf.o(i._Z10b_mrdividePfPKf) for i._Z10b_mrdividePfPKf
    attitudeekf.o(.ARM.exidx) refers to attitudeekf.o(i._Z3invPKfPf) for i._Z3invPKfPf
    attitudeekf.o(.ARM.exidx) refers to attitudeekf.o(i._Z8mrdividePfPKf) for i._Z8mrdividePfPKf
    attitudeekf.o(.ARM.exidx) refers to attitudeekf.o(i._Z4normPKf) for i._Z4normPKf
    attitudeekf.o(.ARM.exidx) refers to attitudeekf.o(i._Z11AttitudeEKFhhPKhfPKffffffffS2_PfS3_S3_S3_S3_) for i._Z11AttitudeEKFhhPKhfPKffffffffS2_PfS3_S3_S3_S3_
    attitudeekf.o(.ARM.exidx) refers to attitudeekf.o(i._Z22AttitudeEKF_initializev) for i._Z22AttitudeEKF_initializev
    attitudeekf.o(.ARM.exidx) refers to attitudeekf.o(i._Z21AttitudeEKF_terminatev) for i._Z21AttitudeEKF_terminatev
    uav_attitude.o(i._ZN9_ATTITUDE10DISControlEf) refers to uav_pid.o(i._ZN4_PID6GetErrEf) for _PID::GetErr(float)
    uav_attitude.o(i._ZN9_ATTITUDE10DISControlEf) refers to uav_pid.o(i._ZN4_PID5Err_iEf) for _PID::Err_i(float)
    uav_attitude.o(i._ZN9_ATTITUDE10DISControlEf) refers to f2d.o(.text) for __aeabi_f2d
    uav_attitude.o(i._ZN9_ATTITUDE10DISControlEf) refers to cdcmple.o(.text) for __aeabi_cdcmple
    uav_attitude.o(i._ZN9_ATTITUDE10DISControlEf) refers to cdrcmple.o(.text) for __aeabi_cdrcmple
    uav_attitude.o(i._ZN9_ATTITUDE10DISControlEf) refers to uav_pid.o(i._ZN4_PID3CalEv) for _PID::Cal()
    uav_attitude.o(i._ZN9_ATTITUDE10DISControlEf) refers to dadd.o(.text) for __aeabi_dsub
    uav_attitude.o(i._ZN9_ATTITUDE10DISControlEf) refers to dmul.o(.text) for __aeabi_dmul
    uav_attitude.o(i._ZN9_ATTITUDE10DISControlEf) refers to d2f.o(.text) for __aeabi_d2f
    uav_attitude.o(i._ZN9_ATTITUDE10DISControlEf) refers to uav_rc.o(.bss) for Rc
    uav_attitude.o(i._ZN9_ATTITUDE10DISControlEf) refers to uav_attitude.o(.bss) for z_dis
    uav_attitude.o(i._ZN9_ATTITUDE10DISControlEf) refers to uav_attitude.o(.data) for count
    uav_attitude.o(i._ZN9_ATTITUDE10GetDIS_SPEEf) refers to f2d.o(.text) for __aeabi_f2d
    uav_attitude.o(i._ZN9_ATTITUDE10GetDIS_SPEEf) refers to ddiv.o(.text) for __aeabi_ddiv
    uav_attitude.o(i._ZN9_ATTITUDE10GetDIS_SPEEf) refers to d2f.o(.text) for __aeabi_d2f
    uav_attitude.o(i._ZN9_ATTITUDE10GetDIS_SPEEf) refers to dmul.o(.text) for __aeabi_dmul
    uav_attitude.o(i._ZN9_ATTITUDE10GetDIS_SPEEf) refers to dadd.o(.text) for __aeabi_dadd
    uav_attitude.o(i._ZN9_ATTITUDE10GetDIS_SPEEf) refers to dflti.o(.text) for __aeabi_i2d
    uav_attitude.o(i._ZN9_ATTITUDE10GetDIS_SPEEf) refers to dev_us100.o(.bss) for Us100
    uav_attitude.o(i._ZN9_ATTITUDE10GetDIS_SPEEf) refers to uav_attitude.o(.data) for body_ul_DIS_z
    uav_attitude.o(i._ZN9_ATTITUDE10GetDIS_SPEEf) refers to imu.o(.bss) for imu
    uav_attitude.o(i._ZN9_ATTITUDE10GetDIS_SPEEf) refers to dev_ms5611.o(.bss) for Ms5611
    uav_attitude.o(i._ZN9_ATTITUDE10GetDIS_SPEEf) refers to stm32f4xx_gpio.o(i.GPIO_ResetBits) for GPIO_ResetBits
    uav_attitude.o(i._ZN9_ATTITUDE10SPEControlEf) refers to uav_pid.o(i._ZN4_PID6GetErrEf) for _PID::GetErr(float)
    uav_attitude.o(i._ZN9_ATTITUDE10SPEControlEf) refers to uav_pid.o(i._ZN4_PID3CalEv) for _PID::Cal()
    uav_attitude.o(i._ZN9_ATTITUDE10SPEControlEf) refers to f2d.o(.text) for __aeabi_f2d
    uav_attitude.o(i._ZN9_ATTITUDE10SPEControlEf) refers to dmul.o(.text) for __aeabi_dmul
    uav_attitude.o(i._ZN9_ATTITUDE10SPEControlEf) refers to dadd.o(.text) for __aeabi_dadd
    uav_attitude.o(i._ZN9_ATTITUDE10SPEControlEf) refers to d2f.o(.text) for __aeabi_d2f
    uav_attitude.o(i._ZN9_ATTITUDE10SPEControlEf) refers to uav_pid.o(i._ZN4_PID8disErr_iEff) for _PID::disErr_i(float, float)
    uav_attitude.o(i._ZN9_ATTITUDE10SPEControlEf) refers to fabs.o(i.__hardfp_fabs) for __hardfp_fabs
    uav_attitude.o(i._ZN9_ATTITUDE10SPEControlEf) refers to uav_rc.o(.bss) for Rc
    uav_attitude.o(i._ZN9_ATTITUDE10SPEControlEf) refers to uav_attitude.o(.bss) for z_dis
    uav_attitude.o(i._ZN9_ATTITUDE10SPEControlEf) refers to imu.o(.bss) for imu
    uav_attitude.o(i._ZN9_ATTITUDE4InitEv) refers to uav_pid.o(i._ZN4_PID4InitEfff) for _PID::Init(float, float, float)
    uav_attitude.o(i._ZN9_ATTITUDE4InitEv) refers to uav_attitude.o(.bss) for z_dis
    uav_attitude.o(i.__sti___16_uav_attitude_cpp_Attitude) refers to imu.o(t._ZN7Vector3IfEC1Ev) for Vector3<float>::Vector3()
    uav_attitude.o(i.__sti___16_uav_attitude_cpp_Attitude) refers to uav_attitude.o(.bss) for Attitude
    uav_attitude.o(.ARM.exidx) refers to uav_attitude.o(i._ZN9_ATTITUDE4InitEv) for i._ZN9_ATTITUDE4InitEv
    uav_attitude.o(.ARM.exidx) refers to uav_attitude.o(i._ZN9_ATTITUDE10GetDIS_SPEEf) for i._ZN9_ATTITUDE10GetDIS_SPEEf
    uav_attitude.o(.ARM.exidx) refers to uav_attitude.o(i._ZN9_ATTITUDE10DISControlEf) for i._ZN9_ATTITUDE10DISControlEf
    uav_attitude.o(.ARM.exidx) refers to uav_attitude.o(i._ZN9_ATTITUDE10SPEControlEf) for i._ZN9_ATTITUDE10SPEControlEf
    uav_attitude.o(.ARM.exidx) refers to uav_attitude.o(i.__sti___16_uav_attitude_cpp_Attitude) for i.__sti___16_uav_attitude_cpp_Attitude
    uav_attitude.o(.init_array) refers to uav_attitude.o(i.__sti___16_uav_attitude_cpp_Attitude) for __sti___16_uav_attitude_cpp_Attitude
    uav_attitude.o(.init_array) refers to cpp_init.o(.text) for __cpp_initialize__aeabi_
    uav_gps_navigation.o(i._ZN15_GPS_NAVIGATION19Distance_cm_BearingEPiS0_S0_S0_PjS0_) refers to sqrtf.o(i.__hardfp_sqrtf) for __hardfp_sqrtf
    uav_gps_navigation.o(i._ZN15_GPS_NAVIGATION19Distance_cm_BearingEPiS0_S0_S0_PjS0_) refers to atan2f.o(i.__hardfp_atan2f) for __hardfp_atan2f
    uav_gps_navigation.o(i._ZN15_GPS_NAVIGATION9CalcRatioEi) refers to cosf.o(i.__hardfp_cosf) for __hardfp_cosf
    uav_gps_navigation.o(.ARM.exidx) refers to uav_gps_navigation.o(i._ZN15_GPS_NAVIGATION9CalcRatioEi) for i._ZN15_GPS_NAVIGATION9CalcRatioEi
    uav_gps_navigation.o(.ARM.exidx) refers to uav_gps_navigation.o(i._ZN15_GPS_NAVIGATION19Distance_cm_BearingEPiS0_S0_S0_PjS0_) for i._ZN15_GPS_NAVIGATION19Distance_cm_BearingEPiS0_S0_S0_PjS0_
    nav_speed.o(i._ZN6NAV_V_4eastEf) refers to stm32f4xx_gpio.o(i.GPIO_SetBits) for GPIO_SetBits
    nav_speed.o(i._ZN6NAV_V_4eastEf) refers to stm32f4xx_gpio.o(i.GPIO_ResetBits) for GPIO_ResetBits
    nav_speed.o(i._ZN6NAV_V_4eastEf) refers to f2d.o(.text) for __aeabi_f2d
    nav_speed.o(i._ZN6NAV_V_4eastEf) refers to dmul.o(.text) for __aeabi_dmul
    nav_speed.o(i._ZN6NAV_V_4eastEf) refers to ddiv.o(.text) for __aeabi_ddiv
    nav_speed.o(i._ZN6NAV_V_4eastEf) refers to d2f.o(.text) for __aeabi_d2f
    nav_speed.o(i._ZN6NAV_V_4eastEf) refers to nav_speed.o(i._ZN6NAV_V_6h_eastEf) for NAV_V_::h_east(float)
    nav_speed.o(i._ZN6NAV_V_4eastEf) refers to nav_speed.o(.data) for h
    nav_speed.o(i._ZN6NAV_V_4eastEf) refers to imu.o(.bss) for imu
    nav_speed.o(i._ZN6NAV_V_4eastEf) refers to dev_mavlink.o(.bss) for debug
    nav_speed.o(i._ZN6NAV_V_6h_eastEf) refers to nav_speed.o(.data) for h
    nav_speed.o(i._ZN6NAV_V_6h_eastEf) refers to imu.o(.bss) for imu
    nav_speed.o(i._ZN6NAV_V_7get_a_vEf) refers to imu.o(.bss) for imu
    nav_speed.o(i._ZN6NAV_V_8get_ms_vEf) refers to dev_ms5611.o(.bss) for Ms5611
    nav_speed.o(i._ZN6NAV_V_8get_ms_vEf) refers to nav_speed.o(.data) for h
    nav_speed.o(.ARM.exidx) refers to nav_speed.o(i._ZN6NAV_V_8get_ms_vEf) for i._ZN6NAV_V_8get_ms_vEf
    nav_speed.o(.ARM.exidx) refers to nav_speed.o(i._ZN6NAV_V_7get_a_vEf) for i._ZN6NAV_V_7get_a_vEf
    nav_speed.o(.ARM.exidx) refers to nav_speed.o(i._ZN6NAV_V_6h_eastEf) for i._ZN6NAV_V_6h_eastEf
    nav_speed.o(.ARM.exidx) refers to nav_speed.o(i._ZN6NAV_V_4eastEf) for i._ZN6NAV_V_4eastEf
    nav_h.o(i._ZN6NAV_H_3calEffRhf) refers to f2d.o(.text) for __aeabi_f2d
    nav_h.o(i._ZN6NAV_H_3calEffRhf) refers to dmul.o(.text) for __aeabi_dmul
    nav_h.o(i._ZN6NAV_H_3calEffRhf) refers to d2f.o(.text) for __aeabi_d2f
    nav_h.o(i._ZN6NAV_H_3calEffRhf) refers to nav_h.o(.data) for run
    nav_h.o(i._ZN6NAV_H_3calEffRhf) refers to dev_mavlink.o(.bss) for debug
    nav_h.o(i._ZN6NAV_H_4InitEv) refers to nav_h_ekf.o(i._Z14nav_h_ekf_initv) for nav_h_ekf_init()
    nav_h.o(.ARM.exidx) refers to nav_h.o(i._ZN6NAV_H_4InitEv) for i._ZN6NAV_H_4InitEv
    nav_h.o(.ARM.exidx) refers to nav_h.o(i._ZN6NAV_H_3calEffRhf) for i._ZN6NAV_H_3calEffRhf
    nav_h_ekf.o(i._Z10eml_xgesvdPKfPfS1_S1_) refers to nav_h_ekf.o(i._Z9eml_xnrm2PKf) for eml_xnrm2(const float*)
    nav_h_ekf.o(i._Z10eml_xgesvdPKfPfS1_S1_) refers to nav_h_ekf.o(i._Z7eml_divdf) for eml_div(double, float)
    nav_h_ekf.o(i._Z10eml_xgesvdPKfPfS1_S1_) refers to nav_h_ekf.o(i._Z9eml_xscalfPf) for eml_xscal(float, float*)
    nav_h_ekf.o(i._Z10eml_xgesvdPKfPfS1_S1_) refers to nav_h_ekf.o(i._Z9eml_xdotcPKfS0_) for eml_xdotc(const float*, const float*)
    nav_h_ekf.o(i._Z10eml_xgesvdPKfPfS1_S1_) refers to svd.o(i._Z9b_eml_divff) for b_eml_div(float, float)
    nav_h_ekf.o(i._Z10eml_xgesvdPKfPfS1_S1_) refers to nav_h_ekf.o(i._Z9eml_xaxpyfPf) for eml_xaxpy(float, float*)
    nav_h_ekf.o(i._Z10eml_xgesvdPKfPfS1_S1_) refers to attitudeekf.o(i._ZSt4fabsf) for std::fabs(float)
    nav_h_ekf.o(i._Z10eml_xgesvdPKfPfS1_S1_) refers to nav_h_ekf.o(i._Z11b_eml_xscalfPfi) for b_eml_xscal(float, float*, int)
    nav_h_ekf.o(i._Z10eml_xgesvdPKfPfS1_S1_) refers to rt_nonfinite.o(i._Z8rtIsNaNFf) for rtIsNaNF(float)
    nav_h_ekf.o(i._Z10eml_xgesvdPKfPfS1_S1_) refers to nav_h_ekf.o(i._Z9eml_xrotgPfS_S_S_) for eml_xrotg(float*, float*, float*, float*)
    nav_h_ekf.o(i._Z10eml_xgesvdPKfPfS1_S1_) refers to nav_h_ekf.o(i._Z8eml_xrotPfiiff) for eml_xrot(float*, int, int, float, float)
    nav_h_ekf.o(i._Z10eml_xgesvdPKfPfS1_S1_) refers to nav_h_ekf.o(i._Z9c_eml_divfd) for c_eml_div(float, double)
    nav_h_ekf.o(i._Z10eml_xgesvdPKfPfS1_S1_) refers to nav_h_ekf.o(i._ZSt4sqrtf) for std::sqrt(float)
    nav_h_ekf.o(i._Z10eml_xgesvdPKfPfS1_S1_) refers to nav_h_ekf.o(i._Z9eml_xswapPfii) for eml_xswap(float*, int, int)
    nav_h_ekf.o(i._Z14nav_h_ekf_initv) refers to nav_h_ekf.o(.constdata) for iv0
    nav_h_ekf.o(i._Z14nav_h_ekf_initv) refers to nav_h_ekf.o(.bss) for P
    nav_h_ekf.o(i._Z7eml_divdf) refers to d2f.o(.text) for __aeabi_d2f
    nav_h_ekf.o(i._Z9c_eml_divfd) refers to d2f.o(.text) for __aeabi_d2f
    nav_h_ekf.o(i._Z9eml_xnrm2PKf) refers to attitudeekf.o(i._ZSt4fabsf) for std::fabs(float)
    nav_h_ekf.o(i._Z9eml_xnrm2PKf) refers to nav_h_ekf.o(i._ZSt4sqrtf) for std::sqrt(float)
    nav_h_ekf.o(i._Z9eml_xrotgPfS_S_S_) refers to attitudeekf.o(i._ZSt4fabsf) for std::fabs(float)
    nav_h_ekf.o(i._Z9eml_xrotgPfS_S_S_) refers to nav_h_ekf.o(i._ZSt4sqrtf) for std::sqrt(float)
    nav_h_ekf.o(i._Z9nav_h_ekfPKfS0_S0_S0_S0_S0_hPfS1_S1_) refers to nav_h_ekf.o(i._Z10eml_xgesvdPKfPfS1_S1_) for eml_xgesvd(const float*, float*, float*, float*)
    nav_h_ekf.o(i._Z9nav_h_ekfPKfS0_S0_S0_S0_S0_hPfS1_S1_) refers to nav_h_ekf.o(.bss) for X
    nav_h_ekf.o(i._Z9nav_h_ekfPKfS0_S0_S0_S0_S0_hPfS1_S1_) refers to svd.o(i._Z3svdfPfS_S_) for svd(float, float*, float*, float*)
    nav_h_ekf.o(.ARM.exidx) refers to nav_h_ekf.o(i._Z11b_eml_xscalfPfi) for i._Z11b_eml_xscalfPfi
    nav_h_ekf.o(.ARM.exidx) refers to nav_h_ekf.o(i._Z9c_eml_divfd) for i._Z9c_eml_divfd
    nav_h_ekf.o(.ARM.exidx) refers to nav_h_ekf.o(i._Z7eml_divdf) for i._Z7eml_divdf
    nav_h_ekf.o(.ARM.exidx) refers to nav_h_ekf.o(i._Z9eml_xaxpyfPf) for i._Z9eml_xaxpyfPf
    nav_h_ekf.o(.ARM.exidx) refers to nav_h_ekf.o(i._Z9eml_xdotcPKfS0_) for i._Z9eml_xdotcPKfS0_
    nav_h_ekf.o(.ARM.exidx) refers to nav_h_ekf.o(i._Z9eml_xswapPfii) for i._Z9eml_xswapPfii
    nav_h_ekf.o(.ARM.exidx) refers to nav_h_ekf.o(i._Z8eml_xrotPfiiff) for i._Z8eml_xrotPfiiff
    nav_h_ekf.o(.ARM.exidx) refers to nav_h_ekf.o(i._Z9eml_xrotgPfS_S_S_) for i._Z9eml_xrotgPfS_S_S_
    nav_h_ekf.o(.ARM.exidx) refers to nav_h_ekf.o(i._Z9eml_xscalfPf) for i._Z9eml_xscalfPf
    nav_h_ekf.o(.ARM.exidx) refers to nav_h_ekf.o(i._Z9eml_xnrm2PKf) for i._Z9eml_xnrm2PKf
    nav_h_ekf.o(.ARM.exidx) refers to nav_h_ekf.o(i._Z10eml_xgesvdPKfPfS1_S1_) for i._Z10eml_xgesvdPKfPfS1_S1_
    nav_h_ekf.o(.ARM.exidx) refers to nav_h_ekf.o(i._Z9nav_h_ekfPKfS0_S0_S0_S0_S0_hPfS1_S1_) for i._Z9nav_h_ekfPKfS0_S0_S0_S0_S0_hPfS1_S1_
    nav_h_ekf.o(.ARM.exidx) refers to nav_h_ekf.o(i._Z14nav_h_ekf_initv) for i._Z14nav_h_ekf_initv
    nav_h_ekf_initialize.o(i._Z20nav_h_ekf_initializev) refers to rt_nonfinite.o(i._Z16rt_InitInfAndNaNj) for rt_InitInfAndNaN(unsigned)
    nav_h_ekf_initialize.o(i._Z20nav_h_ekf_initializev) refers to nav_h_ekf.o(i._Z14nav_h_ekf_initv) for nav_h_ekf_init()
    nav_h_ekf_initialize.o(.ARM.exidx) refers to nav_h_ekf_initialize.o(i._Z20nav_h_ekf_initializev) for i._Z20nav_h_ekf_initializev
    nav_h_ekf_terminate.o(.ARM.exidx) refers to nav_h_ekf_terminate.o(i._Z19nav_h_ekf_terminatev) for i._Z19nav_h_ekf_terminatev
    svd.o(i._Z3svdfPfS_S_) refers to svd.o(i._Z9b_eml_divff) for b_eml_div(float, float)
    svd.o(i._Z3svdfPfS_S_) refers to svd.o(i._Z11c_eml_xscalfPfi) for c_eml_xscal(float, float*, int)
    svd.o(.ARM.exidx) refers to svd.o(i._Z11c_eml_xscalfPfi) for i._Z11c_eml_xscalfPfi
    svd.o(.ARM.exidx) refers to svd.o(i._Z9b_eml_divff) for i._Z9b_eml_divff
    svd.o(.ARM.exidx) refers to svd.o(i._Z3svdfPfS_S_) for i._Z3svdfPfS_S_
    dev_rcc.o(i._ZN4_RCC13ConfigurationEv) refers to stm32f4xx_rcc.o(i.RCC_AHB1PeriphClockCmd) for RCC_AHB1PeriphClockCmd
    dev_rcc.o(i._ZN4_RCC13ConfigurationEv) refers to stm32f4xx_rcc.o(i.RCC_APB1PeriphClockCmd) for RCC_APB1PeriphClockCmd
    dev_rcc.o(i._ZN4_RCC13ConfigurationEv) refers to stm32f4xx_rcc.o(i.RCC_APB2PeriphClockCmd) for RCC_APB2PeriphClockCmd
    dev_rcc.o(.ARM.exidx) refers to dev_rcc.o(i._ZN4_RCC13ConfigurationEv) for i._ZN4_RCC13ConfigurationEv
    dev_i2c.o(i._ZN4_I2C10SingleReadEhhPh) refers to dev_i2c.o(i._ZN4_I2C5StartEv) for _I2C::Start()
    dev_i2c.o(i._ZN4_I2C10SingleReadEhhPh) refers to dev_i2c.o(i._ZN4_I2C8SendByteEh) for _I2C::SendByte(unsigned char)
    dev_i2c.o(i._ZN4_I2C10SingleReadEhhPh) refers to dev_i2c.o(i._ZN4_I2C7WaitAckEv) for _I2C::WaitAck()
    dev_i2c.o(i._ZN4_I2C10SingleReadEhhPh) refers to dev_i2c.o(i._ZN4_I2C4StopEv) for _I2C::Stop()
    dev_i2c.o(i._ZN4_I2C10SingleReadEhhPh) refers to dev_i2c.o(i._ZN4_I2C8ReadByteEh) for _I2C::ReadByte(unsigned char)
    dev_i2c.o(i._ZN4_I2C11SingleWriteEhhh) refers to dev_i2c.o(i._ZN4_I2C5StartEv) for _I2C::Start()
    dev_i2c.o(i._ZN4_I2C11SingleWriteEhhh) refers to dev_i2c.o(i._ZN4_I2C8SendByteEh) for _I2C::SendByte(unsigned char)
    dev_i2c.o(i._ZN4_I2C11SingleWriteEhhh) refers to dev_i2c.o(i._ZN4_I2C7WaitAckEv) for _I2C::WaitAck()
    dev_i2c.o(i._ZN4_I2C11SingleWriteEhhh) refers to dev_i2c.o(i._ZN4_I2C4StopEv) for _I2C::Stop()
    dev_i2c.o(i._ZN4_I2C3AckEv) refers to dev_i2c.o(i._ZN4_I2C5DelayEv) for _I2C::Delay()
    dev_i2c.o(i._ZN4_I2C4StopEv) refers to dev_i2c.o(i._ZN4_I2C5DelayEv) for _I2C::Delay()
    dev_i2c.o(i._ZN4_I2C5NoAckEv) refers to dev_i2c.o(i._ZN4_I2C5DelayEv) for _I2C::Delay()
    dev_i2c.o(i._ZN4_I2C5StartEv) refers to dev_i2c.o(i._ZN4_I2C5DelayEv) for _I2C::Delay()
    dev_i2c.o(i._ZN4_I2C7WaitAckEv) refers to dev_i2c.o(i._ZN4_I2C5DelayEv) for _I2C::Delay()
    dev_i2c.o(i._ZN4_I2C7WaitAckEv) refers to dev_i2c.o(i._ZN4_I2C4StopEv) for _I2C::Stop()
    dev_i2c.o(i._ZN4_I2C8MultReadEhhhPh) refers to dev_i2c.o(i._ZN4_I2C5StartEv) for _I2C::Start()
    dev_i2c.o(i._ZN4_I2C8MultReadEhhhPh) refers to dev_i2c.o(i._ZN4_I2C8SendByteEh) for _I2C::SendByte(unsigned char)
    dev_i2c.o(i._ZN4_I2C8MultReadEhhhPh) refers to dev_i2c.o(i._ZN4_I2C7WaitAckEv) for _I2C::WaitAck()
    dev_i2c.o(i._ZN4_I2C8MultReadEhhhPh) refers to dev_i2c.o(i._ZN4_I2C4StopEv) for _I2C::Stop()
    dev_i2c.o(i._ZN4_I2C8MultReadEhhhPh) refers to dev_i2c.o(i._ZN4_I2C8ReadByteEh) for _I2C::ReadByte(unsigned char)
    dev_i2c.o(i._ZN4_I2C8ReadByteEh) refers to dev_i2c.o(i._ZN4_I2C5DelayEv) for _I2C::Delay()
    dev_i2c.o(i._ZN4_I2C8ReadByteEh) refers to dev_i2c.o(i._ZN4_I2C3AckEv) for _I2C::Ack()
    dev_i2c.o(i._ZN4_I2C8ReadByteEh) refers to dev_i2c.o(i._ZN4_I2C5NoAckEv) for _I2C::NoAck()
    dev_i2c.o(i._ZN4_I2C8SendByteEh) refers to dev_i2c.o(i._ZN4_I2C5DelayEv) for _I2C::Delay()
    dev_i2c.o(i._ZN4_I2C9MultWriteEhhhPh) refers to dev_i2c.o(i._ZN4_I2C5StartEv) for _I2C::Start()
    dev_i2c.o(i._ZN4_I2C9MultWriteEhhhPh) refers to dev_i2c.o(i._ZN4_I2C8SendByteEh) for _I2C::SendByte(unsigned char)
    dev_i2c.o(i._ZN4_I2C9MultWriteEhhhPh) refers to dev_i2c.o(i._ZN4_I2C7WaitAckEv) for _I2C::WaitAck()
    dev_i2c.o(i._ZN4_I2C9MultWriteEhhhPh) refers to dev_i2c.o(i._ZN4_I2C4StopEv) for _I2C::Stop()
    dev_i2c.o(.ARM.exidx) refers to dev_i2c.o(i._ZN4_I2C4InitEv) for i._ZN4_I2C4InitEv
    dev_i2c.o(.ARM.exidx) refers to dev_i2c.o(i._ZN4_I2C5DelayEv) for i._ZN4_I2C5DelayEv
    dev_i2c.o(.ARM.exidx) refers to dev_i2c.o(i._ZN4_I2C4StopEv) for i._ZN4_I2C4StopEv
    dev_i2c.o(.ARM.exidx) refers to dev_i2c.o(i._ZN4_I2C7WaitAckEv) for i._ZN4_I2C7WaitAckEv
    dev_i2c.o(.ARM.exidx) refers to dev_i2c.o(i._ZN4_I2C8SendByteEh) for i._ZN4_I2C8SendByteEh
    dev_i2c.o(.ARM.exidx) refers to dev_i2c.o(i._ZN4_I2C5StartEv) for i._ZN4_I2C5StartEv
    dev_i2c.o(.ARM.exidx) refers to dev_i2c.o(i._ZN4_I2C11SingleWriteEhhh) for i._ZN4_I2C11SingleWriteEhhh
    dev_i2c.o(.ARM.exidx) refers to dev_i2c.o(i._ZN4_I2C5NoAckEv) for i._ZN4_I2C5NoAckEv
    dev_i2c.o(.ARM.exidx) refers to dev_i2c.o(i._ZN4_I2C3AckEv) for i._ZN4_I2C3AckEv
    dev_i2c.o(.ARM.exidx) refers to dev_i2c.o(i._ZN4_I2C8ReadByteEh) for i._ZN4_I2C8ReadByteEh
    dev_i2c.o(.ARM.exidx) refers to dev_i2c.o(i._ZN4_I2C10SingleReadEhhPh) for i._ZN4_I2C10SingleReadEhhPh
    dev_i2c.o(.ARM.exidx) refers to dev_i2c.o(i._ZN4_I2C8MultReadEhhhPh) for i._ZN4_I2C8MultReadEhhhPh
    dev_i2c.o(.ARM.exidx) refers to dev_i2c.o(i._ZN4_I2C9MultWriteEhhhPh) for i._ZN4_I2C9MultWriteEhhhPh
    dev_led.o(i._ZN4_LED13ConfigurationEv) refers to stm32f4xx_gpio.o(i.GPIO_SetBits) for GPIO_SetBits
    dev_led.o(i._ZN4_LED13ConfigurationEv) refers to dev_clock.o(i._Z8Delay_msj) for Delay_ms(unsigned)
    dev_led.o(.ARM.exidx) refers to dev_led.o(i._ZN4_LED13ConfigurationEv) for i._ZN4_LED13ConfigurationEv
    dev_port.o(i._ZN5_PORT13ConfigurationEv) refers to stm32f4xx_gpio.o(i.GPIO_Init) for GPIO_Init
    dev_port.o(i._ZN5_PORT13ConfigurationEv) refers to stm32f4xx_gpio.o(i.GPIO_PinAFConfig) for GPIO_PinAFConfig
    dev_port.o(.ARM.exidx) refers to dev_port.o(i._ZN5_PORT13ConfigurationEv) for i._ZN5_PORT13ConfigurationEv
    dev_moto.o(i._ZN5_MOTO12MotoBaseInitEP11TIM_TypeDefh) refers to stm32f4xx_tim.o(i.TIM_TimeBaseInit) for TIM_TimeBaseInit
    dev_moto.o(i._ZN5_MOTO12MotoBaseInitEP11TIM_TypeDefh) refers to stm32f4xx_tim.o(i.TIM_OC1Init) for TIM_OC1Init
    dev_moto.o(i._ZN5_MOTO12MotoBaseInitEP11TIM_TypeDefh) refers to stm32f4xx_tim.o(i.TIM_OC1PreloadConfig) for TIM_OC1PreloadConfig
    dev_moto.o(i._ZN5_MOTO12MotoBaseInitEP11TIM_TypeDefh) refers to stm32f4xx_tim.o(i.TIM_OC2Init) for TIM_OC2Init
    dev_moto.o(i._ZN5_MOTO12MotoBaseInitEP11TIM_TypeDefh) refers to stm32f4xx_tim.o(i.TIM_OC2PreloadConfig) for TIM_OC2PreloadConfig
    dev_moto.o(i._ZN5_MOTO12MotoBaseInitEP11TIM_TypeDefh) refers to stm32f4xx_tim.o(i.TIM_OC3Init) for TIM_OC3Init
    dev_moto.o(i._ZN5_MOTO12MotoBaseInitEP11TIM_TypeDefh) refers to stm32f4xx_tim.o(i.TIM_OC3PreloadConfig) for TIM_OC3PreloadConfig
    dev_moto.o(i._ZN5_MOTO12MotoBaseInitEP11TIM_TypeDefh) refers to stm32f4xx_tim.o(i.TIM_OC4Init) for TIM_OC4Init
    dev_moto.o(i._ZN5_MOTO12MotoBaseInitEP11TIM_TypeDefh) refers to stm32f4xx_tim.o(i.TIM_OC4PreloadConfig) for TIM_OC4PreloadConfig
    dev_moto.o(i._ZN5_MOTO12MotoBaseInitEP11TIM_TypeDefh) refers to stm32f4xx_tim.o(i.TIM_CtrlPWMOutputs) for TIM_CtrlPWMOutputs
    dev_moto.o(i._ZN5_MOTO12MotoBaseInitEP11TIM_TypeDefh) refers to stm32f4xx_tim.o(i.TIM_ARRPreloadConfig) for TIM_ARRPreloadConfig
    dev_moto.o(i._ZN5_MOTO12MotoBaseInitEP11TIM_TypeDefh) refers to stm32f4xx_tim.o(i.TIM_Cmd) for TIM_Cmd
    dev_moto.o(i._ZN5_MOTO12MotoBaseInitEP11TIM_TypeDefh) refers to stm32f4xx_tim.o(i.TIM_SetCompare1) for TIM_SetCompare1
    dev_moto.o(i._ZN5_MOTO12MotoBaseInitEP11TIM_TypeDefh) refers to stm32f4xx_tim.o(i.TIM_SetCompare2) for TIM_SetCompare2
    dev_moto.o(i._ZN5_MOTO12MotoBaseInitEP11TIM_TypeDefh) refers to stm32f4xx_tim.o(i.TIM_SetCompare3) for TIM_SetCompare3
    dev_moto.o(i._ZN5_MOTO12MotoBaseInitEP11TIM_TypeDefh) refers to stm32f4xx_tim.o(i.TIM_SetCompare4) for TIM_SetCompare4
    dev_moto.o(i._ZN5_MOTO6SetPwmEPt) refers to stm32f4xx_tim.o(i.TIM_SetCompare1) for TIM_SetCompare1
    dev_moto.o(i._ZN5_MOTO6SetPwmEPt) refers to stm32f4xx_tim.o(i.TIM_SetCompare2) for TIM_SetCompare2
    dev_moto.o(i._ZN5_MOTO6SetPwmEPt) refers to stm32f4xx_tim.o(i.TIM_SetCompare3) for TIM_SetCompare3
    dev_moto.o(i._ZN5_MOTO6SetPwmEPt) refers to stm32f4xx_tim.o(i.TIM_SetCompare4) for TIM_SetCompare4
    dev_moto.o(i._ZN5_MOTO8MotoInitEv) refers to dev_moto.o(i._ZN5_MOTO12MotoBaseInitEP11TIM_TypeDefh) for _MOTO::MotoBaseInit(TIM_TypeDef*, unsigned char)
    dev_moto.o(.ARM.exidx) refers to dev_moto.o(i._ZN5_MOTO12MotoBaseInitEP11TIM_TypeDefh) for i._ZN5_MOTO12MotoBaseInitEP11TIM_TypeDefh
    dev_moto.o(.ARM.exidx) refers to dev_moto.o(i._ZN5_MOTO8MotoInitEv) for i._ZN5_MOTO8MotoInitEv
    dev_moto.o(.ARM.exidx) refers to dev_moto.o(i._ZN5_MOTO6SetPwmEPt) for i._ZN5_MOTO6SetPwmEPt
    dev_nvic.o(i._ZN5_NVIC13ConfigurationEv) refers to misc.o(i.NVIC_PriorityGroupConfig) for NVIC_PriorityGroupConfig
    dev_nvic.o(i._ZN5_NVIC13ConfigurationEv) refers to misc.o(i.NVIC_Init) for NVIC_Init
    dev_nvic.o(.ARM.exidx) refers to dev_nvic.o(i._ZN5_NVIC13ConfigurationEv) for i._ZN5_NVIC13ConfigurationEv
    dev_usart.o(i._ZN6_USART10Usart2CallEv) refers to stm32f4xx_usart.o(i.USART_GetFlagStatus) for USART_GetFlagStatus
    dev_usart.o(i._ZN6_USART10Usart2CallEv) refers to stm32f4xx_usart.o(i.USART_ReceiveData) for USART_ReceiveData
    dev_usart.o(i._ZN6_USART10Usart2CallEv) refers to dev_mavlink.o(i._ZN8_MAVLINK16Data_Receive_AnlEPhh) for _MAVLINK::Data_Receive_Anl(unsigned char*, unsigned char)
    dev_usart.o(i._ZN6_USART10Usart2CallEv) refers to dev_usart.o(.data) for TxCounter
    dev_usart.o(i._ZN6_USART10Usart2CallEv) refers to dev_usart.o(.bss) for TxBuffer
    dev_usart.o(i._ZN6_USART10Usart2CallEv) refers to dev_mavlink.o(.bss) for Mavlink
    dev_usart.o(i._ZN6_USART10Usart3CallEv) refers to stm32f4xx_usart.o(i.USART_GetITStatus) for USART_GetITStatus
    dev_usart.o(i._ZN6_USART10Usart3CallEv) refers to stm32f4xx_usart.o(i.USART_ReceiveData) for USART_ReceiveData
    dev_usart.o(i._ZN6_USART10Usart3CallEv) refers to dev_gps.o(i._Z17GPS_DataCacheCallh) for GPS_DataCacheCall(unsigned char)
    dev_usart.o(i._ZN6_USART10Usart3CallEv) refers to stm32f4xx_usart.o(i.USART_ClearITPendingBit) for USART_ClearITPendingBit
    dev_usart.o(i._ZN6_USART10Usart6CallEv) refers to stm32f4xx_usart.o(i.USART_GetITStatus) for USART_GetITStatus
    dev_usart.o(i._ZN6_USART10Usart6CallEv) refers to dev_us100.o(i._ZN6_US1007disCallEv) for _US100::disCall()
    dev_usart.o(i._ZN6_USART10Usart6CallEv) refers to stm32f4xx_usart.o(i.USART_ClearITPendingBit) for USART_ClearITPendingBit
    dev_usart.o(i._ZN6_USART10Usart6CallEv) refers to dev_us100.o(.bss) for Us100
    dev_usart.o(i._ZN6_USART13ConfigurationEv) refers to stm32f4xx_usart.o(i.USART_DeInit) for USART_DeInit
    dev_usart.o(i._ZN6_USART13ConfigurationEv) refers to stm32f4xx_usart.o(i.USART_Init) for USART_Init
    dev_usart.o(i._ZN6_USART13ConfigurationEv) refers to stm32f4xx_usart.o(i.USART_ITConfig) for USART_ITConfig
    dev_usart.o(i._ZN6_USART13ConfigurationEv) refers to stm32f4xx_usart.o(i.USART_Cmd) for USART_Cmd
    dev_usart.o(i._ZN6_USART13Uart2_Put_BufEPhh) refers to stm32f4xx_usart.o(i.USART_ITConfig) for USART_ITConfig
    dev_usart.o(i._ZN6_USART13Uart2_Put_BufEPhh) refers to dev_usart.o(.data) for count
    dev_usart.o(i._ZN6_USART13Uart2_Put_BufEPhh) refers to dev_usart.o(.bss) for TxBuffer
    dev_usart.o(i.fputc) refers to stm32f4xx_usart.o(i.USART_GetFlagStatus) for USART_GetFlagStatus
    dev_usart.o(i.fputc) refers to stm32f4xx_usart.o(i.USART_SendData) for USART_SendData
    dev_usart.o(.ARM.exidx) refers to dev_usart.o(i.fputc) for i.fputc
    dev_usart.o(.ARM.exidx) refers to dev_usart.o(i._ZN6_USART13ConfigurationEv) for i._ZN6_USART13ConfigurationEv
    dev_usart.o(.ARM.exidx) refers to dev_usart.o(i._ZN6_USART10Usart2CallEv) for i._ZN6_USART10Usart2CallEv
    dev_usart.o(.ARM.exidx) refers to dev_usart.o(i._ZN6_USART10Usart3CallEv) for i._ZN6_USART10Usart3CallEv
    dev_usart.o(.ARM.exidx) refers to dev_usart.o(i._ZN6_USART10Usart6CallEv) for i._ZN6_USART10Usart6CallEv
    dev_usart.o(.ARM.exidx) refers to dev_usart.o(i._ZN6_USART13Uart2_Put_BufEPhh) for i._ZN6_USART13Uart2_Put_BufEPhh
    dev_debus.o(i._ZN6_DEBUS9RemotCallEv) refers to dev_dma.o(.bss) for Dma
    dev_debus.o(.ARM.exidx) refers to dev_debus.o(i._ZN6_DEBUS9RemotCallEv) for i._ZN6_DEBUS9RemotCallEv
    dev_clock.o(i.SysTick_Handler) refers to dev_clock.o(i._Z8sys_timev) for sys_time()
    dev_clock.o(i.SysTick_Handler) refers to dev_clock.o(.data) for sysTickUptime
    dev_clock.o(i._Z10Loop_checkv) refers to dev_clock.o(.bss) for loop
    dev_clock.o(i._Z11Get_Cycle_Th) refers to dev_clock.o(i._Z13GetSysTime_usv) for GetSysTime_us()
    dev_clock.o(i._Z11Get_Cycle_Th) refers to dev_clock.o(.bss) for Cycle_T
    dev_clock.o(i._Z13GetSysTime_usv) refers to dev_clock.o(.data) for sysTickUptime
    dev_clock.o(i._Z15Cycle_Time_Initv) refers to dev_clock.o(i._Z11Get_Cycle_Th) for Get_Cycle_T(unsigned char)
    dev_clock.o(i._Z21SysTick_Configurationv) refers to stm32f4xx_rcc.o(i.RCC_GetClocksFreq) for RCC_GetClocksFreq
    dev_clock.o(i._Z21SysTick_Configurationv) refers to misc.o(i.SysTick_CLKSourceConfig) for SysTick_CLKSourceConfig
    dev_clock.o(i._Z8Delay_msj) refers to dev_clock.o(i._Z8Delay_usj) for Delay_us(unsigned)
    dev_clock.o(i._Z8Delay_usj) refers to dev_clock.o(i._Z13GetSysTime_usv) for GetSysTime_us()
    dev_clock.o(i._Z8sys_timev) refers to dev_clock.o(i._Z10Loop_checkv) for Loop_check()
    dev_clock.o(i._Z8sys_timev) refers to dev_clock.o(.data) for time_1ms
    dev_clock.o(.ARM.exidx) refers to dev_clock.o(i._Z21SysTick_Configurationv) for i._Z21SysTick_Configurationv
    dev_clock.o(.ARM.exidx) refers to dev_clock.o(i._Z13GetSysTime_usv) for i._Z13GetSysTime_usv
    dev_clock.o(.ARM.exidx) refers to dev_clock.o(i._Z8Delay_usj) for i._Z8Delay_usj
    dev_clock.o(.ARM.exidx) refers to dev_clock.o(i._Z8Delay_msj) for i._Z8Delay_msj
    dev_clock.o(.ARM.exidx) refers to dev_clock.o(i._Z11Get_Cycle_Th) for i._Z11Get_Cycle_Th
    dev_clock.o(.ARM.exidx) refers to dev_clock.o(i._Z15Cycle_Time_Initv) for i._Z15Cycle_Time_Initv
    dev_clock.o(.ARM.exidx) refers to dev_clock.o(i._Z10Loop_checkv) for i._Z10Loop_checkv
    dev_clock.o(.ARM.exidx) refers to dev_clock.o(i._Z8sys_timev) for i._Z8sys_timev
    dev_clock.o(.ARM.exidx) refers to dev_clock.o(i.SysTick_Handler) for i.SysTick_Handler
    dev_ak8975.o(i._ZN7_AK897510DataSampleEv) refers to dev_i2c.o(i._ZN4_I2C10SingleReadEhhPh) for _I2C::SingleRead(unsigned char, unsigned char, unsigned char*)
    dev_ak8975.o(i._ZN7_AK897510DataSampleEv) refers to cal_vector3.o(t._ZNK7Vector3IfEmiERKS0_) for Vector3<float>::operator -(const Vector3<float>&) const
    dev_ak8975.o(i._ZN7_AK897510DataSampleEv) refers to cal_vector3.o(t._ZNK7Vector3IfEmlEf) for Vector3<float>::operator *(float) const
    dev_ak8975.o(i._ZN7_AK897510DataSampleEv) refers to cal_vector3.o(t._ZNK7Vector3IfEplERKS0_) for Vector3<float>::operator +(const Vector3<float>&) const
    dev_ak8975.o(i._ZN7_AK897510DataSampleEv) refers to dev_ak8975.o(i._ZN7_AK897512MagCalOffsetEv) for _AK8975::MagCalOffset()
    dev_ak8975.o(i._ZN7_AK897510DataSampleEv) refers to dev_ak8975.o(i._ZN7_AK897512SampleTrigerEv) for _AK8975::SampleTriger()
    dev_ak8975.o(i._ZN7_AK897512MagCalOffsetEv) refers to imu_dcm.o(t._ZN7Vector3IfEC1Efff) for Vector3<float>::Vector3(float, float, float)
    dev_ak8975.o(i._ZN7_AK897512MagCalOffsetEv) refers to cxa_guard_acquire.o(i.__cxa_guard_acquire) for __cxa_guard_acquire
    dev_ak8975.o(i._ZN7_AK897512MagCalOffsetEv) refers to f2d.o(.text) for __aeabi_f2d
    dev_ak8975.o(i._ZN7_AK897512MagCalOffsetEv) refers to cdrcmple.o(.text) for __aeabi_cdrcmple
    dev_ak8975.o(i._ZN7_AK897512MagCalOffsetEv) refers to cdcmple.o(.text) for __aeabi_cdcmple
    dev_ak8975.o(i._ZN7_AK897512MagCalOffsetEv) refers to cal_vector3.o(t._ZNK7Vector3IfEplERKS0_) for Vector3<float>::operator +(const Vector3<float>&) const
    dev_ak8975.o(i._ZN7_AK897512MagCalOffsetEv) refers to cal_vector3.o(t._ZNK7Vector3IfEmlEf) for Vector3<float>::operator *(float) const
    dev_ak8975.o(i._ZN7_AK897512MagCalOffsetEv) refers to uav_parameter.o(i._ZN10_PARAMETER15SaveMagOffersetE7Vector3IfE) for _PARAMETER::SaveMagOfferset(Vector3<float>)
    dev_ak8975.o(i._ZN7_AK897512MagCalOffsetEv) refers to uav_parameter.o(i._ZN10_PARAMETER15ReadMagOffersetEv) for _PARAMETER::ReadMagOfferset()
    dev_ak8975.o(i._ZN7_AK897512MagCalOffsetEv) refers to dev_ak8975.o(t._ZN7Vector3IfEclEfff) for Vector3<float>::operator ()(float, float, float)
    dev_ak8975.o(i._ZN7_AK897512MagCalOffsetEv) refers to dev_ak8975.o(.data) for _ZGVtemMag
    dev_ak8975.o(i._ZN7_AK897512MagCalOffsetEv) refers to dev_ak8975.o(.bss) for temMag
    dev_ak8975.o(i._ZN7_AK897512MagCalOffsetEv) refers to uav_parameter.o(.bss) for Pamameter
    dev_ak8975.o(i._ZN7_AK897512SampleTrigerEv) refers to dev_i2c.o(i._ZN4_I2C11SingleWriteEhhh) for _I2C::SingleWrite(unsigned char, unsigned char, unsigned char)
    dev_ak8975.o(i.__sti___14_dev_ak8975_cpp_Ak8975) refers to imu.o(t._ZN7Vector3IfEC1Ev) for Vector3<float>::Vector3()
    dev_ak8975.o(i.__sti___14_dev_ak8975_cpp_Ak8975) refers to dev_ak8975.o(.bss) for Ak8975
    dev_ak8975.o(.ARM.exidx) refers to dev_ak8975.o(i._ZN7_AK897512SampleTrigerEv) for i._ZN7_AK897512SampleTrigerEv
    dev_ak8975.o(.ARM.exidx) refers to dev_ak8975.o(i._ZN7_AK897512MagCalOffsetEv) for i._ZN7_AK897512MagCalOffsetEv
    dev_ak8975.o(.ARM.exidx) refers to dev_ak8975.o(i._ZN7_AK897510DataSampleEv) for i._ZN7_AK897510DataSampleEv
    dev_ak8975.o(.ARM.exidx) refers to dev_ak8975.o(i.__sti___14_dev_ak8975_cpp_Ak8975) for i.__sti___14_dev_ak8975_cpp_Ak8975
    dev_ak8975.o(.init_array) refers to dev_ak8975.o(i.__sti___14_dev_ak8975_cpp_Ak8975) for __sti___14_dev_ak8975_cpp_Ak8975
    dev_ak8975.o(.init_array) refers to cpp_init.o(.text) for __cpp_initialize__aeabi_
    dev_mavlink.o(i._ZN8_MAVLINK10Send_CheckEhh) refers to dev_mavlink.o(i._ZN8_MAVLINK9Send_DataEPhh) for _MAVLINK::Send_Data(unsigned char*, unsigned char)
    dev_mavlink.o(i._ZN8_MAVLINK10Send_PowerEtt) refers to dev_mavlink.o(i._ZN8_MAVLINK9Send_DataEPhh) for _MAVLINK::Send_Data(unsigned char*, unsigned char)
    dev_mavlink.o(i._ZN8_MAVLINK11Send_RCDataEtttttttttt) refers to dev_mavlink.o(i._ZN8_MAVLINK9Send_DataEPhh) for _MAVLINK::Send_Data(unsigned char*, unsigned char)
    dev_mavlink.o(i._ZN8_MAVLINK11Send_SenserEsssssssss) refers to dev_mavlink.o(i._ZN8_MAVLINK9Send_DataEPhh) for _MAVLINK::Send_Data(unsigned char*, unsigned char)
    dev_mavlink.o(i._ZN8_MAVLINK11Send_StatusEfffihh) refers to dev_mavlink.o(i._ZN8_MAVLINK9Send_DataEPhh) for _MAVLINK::Send_Data(unsigned char*, unsigned char)
    dev_mavlink.o(i._ZN8_MAVLINK12Send_MotoPWMEtttttttt) refers to dev_mavlink.o(i._ZN8_MAVLINK9Send_DataEPhh) for _MAVLINK::Send_Data(unsigned char*, unsigned char)
    dev_mavlink.o(i._ZN8_MAVLINK12Send_Senser2Eit) refers to dev_mavlink.o(i._ZN8_MAVLINK9Send_DataEPhh) for _MAVLINK::Send_Data(unsigned char*, unsigned char)
    dev_mavlink.o(i._ZN8_MAVLINK12Send_VersionEhtttt) refers to dev_mavlink.o(i._ZN8_MAVLINK9Send_DataEPhh) for _MAVLINK::Send_Data(unsigned char*, unsigned char)
    dev_mavlink.o(i._ZN8_MAVLINK13Data_ExchangeEv) refers to dev_mavlink.o(i._ZN8_MAVLINK12Send_VersionEhtttt) for _MAVLINK::Send_Version(unsigned char, unsigned short, unsigned short, unsigned short, unsigned short)
    dev_mavlink.o(i._ZN8_MAVLINK13Data_ExchangeEv) refers to dev_mavlink.o(i._ZN8_MAVLINK11Send_StatusEfffihh) for _MAVLINK::Send_Status(float, float, float, int, unsigned char, unsigned char)
    dev_mavlink.o(i._ZN8_MAVLINK13Data_ExchangeEv) refers to dev_mavlink.o(i._ZN8_MAVLINK11Send_SenserEsssssssss) for _MAVLINK::Send_Senser(short, short, short, short, short, short, short, short, short)
    dev_mavlink.o(i._ZN8_MAVLINK13Data_ExchangeEv) refers to dev_mavlink.o(i._ZN8_MAVLINK12Send_Senser2Eit) for _MAVLINK::Send_Senser2(int, unsigned short)
    dev_mavlink.o(i._ZN8_MAVLINK13Data_ExchangeEv) refers to dev_mavlink.o(i._ZN8_MAVLINK11Send_RCDataEtttttttttt) for _MAVLINK::Send_RCData(unsigned short, unsigned short, unsigned short, unsigned short, unsigned short, unsigned short, unsigned short, unsigned short, unsigned short, unsigned short)
    dev_mavlink.o(i._ZN8_MAVLINK13Data_ExchangeEv) refers to dev_mavlink.o(i._ZN8_MAVLINK10Send_PowerEtt) for _MAVLINK::Send_Power(unsigned short, unsigned short)
    dev_mavlink.o(i._ZN8_MAVLINK13Data_ExchangeEv) refers to dev_mavlink.o(i._ZN8_MAVLINK8Send_PIDEhfffffffff) for _MAVLINK::Send_PID(unsigned char, float, float, float, float, float, float, float, float, float)
    dev_mavlink.o(i._ZN8_MAVLINK13Data_ExchangeEv) refers to dev_mavlink.o(.data) for cnt
    dev_mavlink.o(i._ZN8_MAVLINK13Data_ExchangeEv) refers to imu.o(.bss) for imu
    dev_mavlink.o(i._ZN8_MAVLINK13Data_ExchangeEv) refers to dev_mavlink.o(.bss) for debug
    dev_mavlink.o(i._ZN8_MAVLINK13Data_ExchangeEv) refers to dev_mup6050.o(.bss) for Mpu6050
    dev_mavlink.o(i._ZN8_MAVLINK13Data_ExchangeEv) refers to uav_rc.o(.bss) for Rc
    dev_mavlink.o(i._ZN8_MAVLINK13Data_ExchangeEv) refers to uav_control.o(.bss) for qAngle
    dev_mavlink.o(i._ZN8_MAVLINK13Data_ExchangeEv) refers to uav_attitude.o(.bss) for z_spe
    dev_mavlink.o(i._ZN8_MAVLINK16Data_Receive_AnlEPhh) refers to uav_parameter.o(i._ZN10_PARAMETER12SaveAnglePIDEv) for _PARAMETER::SaveAnglePID()
    dev_mavlink.o(i._ZN8_MAVLINK16Data_Receive_AnlEPhh) refers to dev_clock.o(i._Z8Delay_msj) for Delay_ms(unsigned)
    dev_mavlink.o(i._ZN8_MAVLINK16Data_Receive_AnlEPhh) refers to uav_parameter.o(i._ZN10_PARAMETER12ReadAnglePIDEv) for _PARAMETER::ReadAnglePID()
    dev_mavlink.o(i._ZN8_MAVLINK16Data_Receive_AnlEPhh) refers to dev_mavlink.o(i._ZN8_MAVLINK10Send_CheckEhh) for _MAVLINK::Send_Check(unsigned char, unsigned char)
    dev_mavlink.o(i._ZN8_MAVLINK16Data_Receive_AnlEPhh) refers to uav_parameter.o(i._ZN10_PARAMETER14SaveAngularPIDEv) for _PARAMETER::SaveAngularPID()
    dev_mavlink.o(i._ZN8_MAVLINK16Data_Receive_AnlEPhh) refers to uav_parameter.o(i._ZN10_PARAMETER14ReadAngularPIDEv) for _PARAMETER::ReadAngularPID()
    dev_mavlink.o(i._ZN8_MAVLINK16Data_Receive_AnlEPhh) refers to uav_parameter.o(i._ZN10_PARAMETER18Save_UL_DIS_SPEPIDEv) for _PARAMETER::Save_UL_DIS_SPEPID()
    dev_mavlink.o(i._ZN8_MAVLINK16Data_Receive_AnlEPhh) refers to uav_parameter.o(i._ZN10_PARAMETER18Read_UL_DIS_SPEPIDEv) for _PARAMETER::Read_UL_DIS_SPEPID()
    dev_mavlink.o(i._ZN8_MAVLINK16Data_Receive_AnlEPhh) refers to dev_mup6050.o(.bss) for Mpu6050
    dev_mavlink.o(i._ZN8_MAVLINK16Data_Receive_AnlEPhh) refers to dev_ak8975.o(.bss) for Ak8975
    dev_mavlink.o(i._ZN8_MAVLINK16Data_Receive_AnlEPhh) refers to uav_control.o(.bss) for qAngle
    dev_mavlink.o(i._ZN8_MAVLINK16Data_Receive_AnlEPhh) refers to uav_parameter.o(.bss) for Pamameter
    dev_mavlink.o(i._ZN8_MAVLINK16Data_Receive_AnlEPhh) refers to uav_attitude.o(.bss) for z_dis
    dev_mavlink.o(i._ZN8_MAVLINK16Data_Receive_AnlEPhh) refers to uav_parameter.o(i._ZN10_PARAMETER18Save_MS_DIS_SPEPIDEv) for _PARAMETER::Save_MS_DIS_SPEPID()
    dev_mavlink.o(i._ZN8_MAVLINK16Data_Receive_AnlEPhh) refers to uav_parameter.o(i._ZN10_PARAMETER18Read_MS_DIS_SPEPIDEv) for _PARAMETER::Read_MS_DIS_SPEPID()
    dev_mavlink.o(i._ZN8_MAVLINK8Send_PIDEhfffffffff) refers to dev_mavlink.o(i._ZN8_MAVLINK9Send_DataEPhh) for _MAVLINK::Send_Data(unsigned char*, unsigned char)
    dev_mavlink.o(i._ZN8_MAVLINK9Send_DataEPhh) refers to dev_usart.o(i._ZN6_USART13Uart2_Put_BufEPhh) for _USART::Uart2_Put_Buf(unsigned char*, unsigned char)
    dev_mavlink.o(i._ZN8_MAVLINK9Send_DataEPhh) refers to dev_usart.o(.data) for Usart
    dev_mavlink.o(.ARM.exidx) refers to dev_mavlink.o(i._ZN8_MAVLINK9Send_DataEPhh) for i._ZN8_MAVLINK9Send_DataEPhh
    dev_mavlink.o(.ARM.exidx) refers to dev_mavlink.o(i._ZN8_MAVLINK10Send_CheckEhh) for i._ZN8_MAVLINK10Send_CheckEhh
    dev_mavlink.o(.ARM.exidx) refers to dev_mavlink.o(i._ZN8_MAVLINK16Data_Receive_AnlEPhh) for i._ZN8_MAVLINK16Data_Receive_AnlEPhh
    dev_mavlink.o(.ARM.exidx) refers to dev_mavlink.o(i._ZN8_MAVLINK11Check_EventEv) for i._ZN8_MAVLINK11Check_EventEv
    dev_mavlink.o(.ARM.exidx) refers to dev_mavlink.o(i._ZN8_MAVLINK8Send_PIDEhfffffffff) for i._ZN8_MAVLINK8Send_PIDEhfffffffff
    dev_mavlink.o(.ARM.exidx) refers to dev_mavlink.o(i._ZN8_MAVLINK10Send_PowerEtt) for i._ZN8_MAVLINK10Send_PowerEtt
    dev_mavlink.o(.ARM.exidx) refers to dev_mavlink.o(i._ZN8_MAVLINK11Send_RCDataEtttttttttt) for i._ZN8_MAVLINK11Send_RCDataEtttttttttt
    dev_mavlink.o(.ARM.exidx) refers to dev_mavlink.o(i._ZN8_MAVLINK12Send_Senser2Eit) for i._ZN8_MAVLINK12Send_Senser2Eit
    dev_mavlink.o(.ARM.exidx) refers to dev_mavlink.o(i._ZN8_MAVLINK11Send_SenserEsssssssss) for i._ZN8_MAVLINK11Send_SenserEsssssssss
    dev_mavlink.o(.ARM.exidx) refers to dev_mavlink.o(i._ZN8_MAVLINK11Send_StatusEfffihh) for i._ZN8_MAVLINK11Send_StatusEfffihh
    dev_mavlink.o(.ARM.exidx) refers to dev_mavlink.o(i._ZN8_MAVLINK12Send_VersionEhtttt) for i._ZN8_MAVLINK12Send_VersionEhtttt
    dev_mavlink.o(.ARM.exidx) refers to dev_mavlink.o(i._ZN8_MAVLINK13Data_ExchangeEv) for i._ZN8_MAVLINK13Data_ExchangeEv
    dev_mavlink.o(.ARM.exidx) refers to dev_mavlink.o(i._ZN8_MAVLINK12Send_MotoPWMEtttttttt) for i._ZN8_MAVLINK12Send_MotoPWMEtttttttt
    dev_ms5611.o(i._ZN7_MS561110DataUpdateEv) refers to dev_ms5611.o(i._ZN7_MS561114PressureSampleEv) for _MS5611::PressureSample()
    dev_ms5611.o(i._ZN7_MS561110DataUpdateEv) refers to dev_ms5611.o(i._ZN7_MS561123TemperatureSampleTrigerEv) for _MS5611::TemperatureSampleTriger()
    dev_ms5611.o(i._ZN7_MS561110DataUpdateEv) refers to dev_ms5611.o(i._ZN7_MS561116BaroAltCalculateEv) for _MS5611::BaroAltCalculate()
    dev_ms5611.o(i._ZN7_MS561110DataUpdateEv) refers to dev_ms5611.o(i._ZN7_MS561117TemperatureSampleEv) for _MS5611::TemperatureSample()
    dev_ms5611.o(i._ZN7_MS561110DataUpdateEv) refers to dev_ms5611.o(i._ZN7_MS561120PressureSampleTrigerEv) for _MS5611::PressureSampleTriger()
    dev_ms5611.o(i._ZN7_MS561110DataUpdateEv) refers to dev_ms5611.o(.data) for state
    dev_ms5611.o(i._ZN7_MS561113ConfigurationEv) refers to dev_clock.o(i._Z8Delay_msj) for Delay_ms(unsigned)
    dev_ms5611.o(i._ZN7_MS561113ConfigurationEv) refers to dev_ms5611.o(i._ZN7_MS56115ResetEv) for _MS5611::Reset()
    dev_ms5611.o(i._ZN7_MS561113ConfigurationEv) refers to dev_ms5611.o(i._ZN7_MS56118ReadPromEv) for _MS5611::ReadProm()
    dev_ms5611.o(i._ZN7_MS561113ConfigurationEv) refers to dev_ms5611.o(i._ZN7_MS561123TemperatureSampleTrigerEv) for _MS5611::TemperatureSampleTriger()
    dev_ms5611.o(i._ZN7_MS561114PressureSampleEv) refers to dev_i2c.o(i._ZN4_I2C8MultReadEhhhPh) for _I2C::MultRead(unsigned char, unsigned char, unsigned char, unsigned char*)
    dev_ms5611.o(i._ZN7_MS561116BaroAltCalculateEv) refers to f2d.o(.text) for __aeabi_f2d
    dev_ms5611.o(i._ZN7_MS561116BaroAltCalculateEv) refers to dmul.o(.text) for __aeabi_dmul
    dev_ms5611.o(i._ZN7_MS561116BaroAltCalculateEv) refers to dadd.o(.text) for __aeabi_dadd
    dev_ms5611.o(i._ZN7_MS561116BaroAltCalculateEv) refers to d2f.o(.text) for __aeabi_d2f
    dev_ms5611.o(i._ZN7_MS561116BaroAltCalculateEv) refers to uav_filter.o(i._ZN6Filter14Moving_AverageEfPftPtS0_) for Filter::Moving_Average(float, float*, unsigned short, unsigned short*, float*)
    dev_ms5611.o(i._ZN7_MS561116BaroAltCalculateEv) refers to dev_ms5611.o(.data) for sum_cnt
    dev_ms5611.o(i._ZN7_MS561116BaroAltCalculateEv) refers to uav_filter.o(.data) for filter
    dev_ms5611.o(i._ZN7_MS561117TemperatureSampleEv) refers to dev_i2c.o(i._ZN4_I2C8MultReadEhhhPh) for _I2C::MultRead(unsigned char, unsigned char, unsigned char, unsigned char*)
    dev_ms5611.o(i._ZN7_MS561120PressureSampleTrigerEv) refers to dev_i2c.o(i._ZN4_I2C11SingleWriteEhhh) for _I2C::SingleWrite(unsigned char, unsigned char, unsigned char)
    dev_ms5611.o(i._ZN7_MS561123TemperatureSampleTrigerEv) refers to dev_i2c.o(i._ZN4_I2C11SingleWriteEhhh) for _I2C::SingleWrite(unsigned char, unsigned char, unsigned char)
    dev_ms5611.o(i._ZN7_MS56115ResetEv) refers to dev_i2c.o(i._ZN4_I2C11SingleWriteEhhh) for _I2C::SingleWrite(unsigned char, unsigned char, unsigned char)
    dev_ms5611.o(i._ZN7_MS56118ReadPromEv) refers to dev_i2c.o(i._ZN4_I2C8MultReadEhhhPh) for _I2C::MultRead(unsigned char, unsigned char, unsigned char, unsigned char*)
    dev_ms5611.o(i.__sti___14_dev_ms5611_cpp_Ms5611) refers to dev_ms5611.o(.bss) for Ms5611
    dev_ms5611.o(.ARM.exidx) refers to dev_ms5611.o(i._ZN7_MS56115ResetEv) for i._ZN7_MS56115ResetEv
    dev_ms5611.o(.ARM.exidx) refers to dev_ms5611.o(i._ZN7_MS56118ReadPromEv) for i._ZN7_MS56118ReadPromEv
    dev_ms5611.o(.ARM.exidx) refers to dev_ms5611.o(i._ZN7_MS561123TemperatureSampleTrigerEv) for i._ZN7_MS561123TemperatureSampleTrigerEv
    dev_ms5611.o(.ARM.exidx) refers to dev_ms5611.o(i._ZN7_MS561120PressureSampleTrigerEv) for i._ZN7_MS561120PressureSampleTrigerEv
    dev_ms5611.o(.ARM.exidx) refers to dev_ms5611.o(i._ZN7_MS561117TemperatureSampleEv) for i._ZN7_MS561117TemperatureSampleEv
    dev_ms5611.o(.ARM.exidx) refers to dev_ms5611.o(i._ZN7_MS561114PressureSampleEv) for i._ZN7_MS561114PressureSampleEv
    dev_ms5611.o(.ARM.exidx) refers to dev_ms5611.o(i._ZN7_MS561116BaroAltCalculateEv) for i._ZN7_MS561116BaroAltCalculateEv
    dev_ms5611.o(.ARM.exidx) refers to dev_ms5611.o(i._ZN7_MS561113ConfigurationEv) for i._ZN7_MS561113ConfigurationEv
    dev_ms5611.o(.ARM.exidx) refers to dev_ms5611.o(i._ZN7_MS561110DataUpdateEv) for i._ZN7_MS561110DataUpdateEv
    dev_ms5611.o(.ARM.exidx) refers to dev_ms5611.o(i.__sti___14_dev_ms5611_cpp_Ms5611) for i.__sti___14_dev_ms5611_cpp_Ms5611
    dev_ms5611.o(.init_array) refers to dev_ms5611.o(i.__sti___14_dev_ms5611_cpp_Ms5611) for __sti___14_dev_ms5611_cpp_Ms5611
    dev_ms5611.o(.init_array) refers to cpp_init.o(.text) for __cpp_initialize__aeabi_
    dev_sd.o(i.SDIO_IRQHandler) refers to dev_sd.o(i._Z16SD_ProcessIRQSrcv) for SD_ProcessIRQSrc()
    dev_sd.o(i._Z10SD_PowerONv) refers to stm32f4xx_sdio.o(i.SDIO_Init) for SDIO_Init
    dev_sd.o(i._Z10SD_PowerONv) refers to stm32f4xx_sdio.o(i.SDIO_SetPowerState) for SDIO_SetPowerState
    dev_sd.o(i._Z10SD_PowerONv) refers to stm32f4xx_sdio.o(i.SDIO_SendCommand) for SDIO_SendCommand
    dev_sd.o(i._Z10SD_PowerONv) refers to dev_sd.o(i._Z8CmdErrorv) for CmdError()
    dev_sd.o(i._Z10SD_PowerONv) refers to dev_sd.o(i._Z13CmdResp7Errorv) for CmdResp7Error()
    dev_sd.o(i._Z10SD_PowerONv) refers to dev_sd.o(i._Z13CmdResp1Errorh) for CmdResp1Error(unsigned char)
    dev_sd.o(i._Z10SD_PowerONv) refers to dev_sd.o(i._Z13CmdResp3Errorv) for CmdResp3Error()
    dev_sd.o(i._Z10SD_PowerONv) refers to dev_sd.o(.bss) for SDIO_InitStructure
    dev_sd.o(i._Z10SD_PowerONv) refers to dev_sd.o(.data) for CardType
    dev_sd.o(i._Z11SDEnWideBush) refers to dev_sd.o(i._Z7FindSCRtPj) for FindSCR(unsigned short, unsigned*)
    dev_sd.o(i._Z11SDEnWideBush) refers to stm32f4xx_sdio.o(i.SDIO_SendCommand) for SDIO_SendCommand
    dev_sd.o(i._Z11SDEnWideBush) refers to dev_sd.o(i._Z13CmdResp1Errorh) for CmdResp1Error(unsigned char)
    dev_sd.o(i._Z11SDEnWideBush) refers to dev_sd.o(.data) for RCA
    dev_sd.o(i._Z11SDEnWideBush) refers to dev_sd.o(.bss) for SDIO_CmdInitStructure
    dev_sd.o(i._Z11SD_GetStatev) refers to dev_sd.o(i._Z13SD_SendStatusPj) for SD_SendStatus(unsigned*)
    dev_sd.o(i._Z11SD_PowerOFFv) refers to stm32f4xx_sdio.o(i.SDIO_SetPowerState) for SDIO_SetPowerState
    dev_sd.o(i._Z11SD_ReadDiskPhjh) refers to dev_sd.o(i._Z12SD_ReadBlockPhxt) for SD_ReadBlock(unsigned char*, long long, unsigned short)
    dev_sd.o(i._Z11SD_ReadDiskPhjh) refers to memcpya.o(.text) for __aeabi_memcpy
    dev_sd.o(i._Z11SD_ReadDiskPhjh) refers to dev_sd.o(i._Z18SD_ReadMultiBlocksPhxtj) for SD_ReadMultiBlocks(unsigned char*, long long, unsigned short, unsigned)
    dev_sd.o(i._Z11SD_ReadDiskPhjh) refers to dev_sd.o(.bss) for SDIO_DATA_BUFFER
    dev_sd.o(i._Z12SD_ReadBlockPhxt) refers to stm32f4xx_sdio.o(i.SDIO_DataConfig) for SDIO_DataConfig
    dev_sd.o(i._Z12SD_ReadBlockPhxt) refers to dev_sd.o(i._Z34convert_from_bytes_to_power_of_twot) for convert_from_bytes_to_power_of_two(unsigned short)
    dev_sd.o(i._Z12SD_ReadBlockPhxt) refers to stm32f4xx_sdio.o(i.SDIO_SendCommand) for SDIO_SendCommand
    dev_sd.o(i._Z12SD_ReadBlockPhxt) refers to dev_sd.o(i._Z13CmdResp1Errorh) for CmdResp1Error(unsigned char)
    dev_sd.o(i._Z12SD_ReadBlockPhxt) refers to dev_sd.o(.emb_text) for INTX_DISABLE()
    dev_sd.o(i._Z12SD_ReadBlockPhxt) refers to stm32f4xx_sdio.o(i.SDIO_GetFlagStatus) for SDIO_GetFlagStatus
    dev_sd.o(i._Z12SD_ReadBlockPhxt) refers to stm32f4xx_sdio.o(i.SDIO_ClearFlag) for SDIO_ClearFlag
    dev_sd.o(i._Z12SD_ReadBlockPhxt) refers to dev_sd.o(i._Z13SD_DMA_ConfigPjjj) for SD_DMA_Config(unsigned*, unsigned, unsigned)
    dev_sd.o(i._Z12SD_ReadBlockPhxt) refers to dev_sd.o(.data) for CardType
    dev_sd.o(i._Z12SD_ReadBlockPhxt) refers to dev_sd.o(.bss) for SDIO_DataInitStructure
    dev_sd.o(i._Z12SD_WriteDiskPhjh) refers to memcpya.o(.text) for __aeabi_memcpy
    dev_sd.o(i._Z12SD_WriteDiskPhjh) refers to dev_sd.o(i._Z13SD_WriteBlockPhxt) for SD_WriteBlock(unsigned char*, long long, unsigned short)
    dev_sd.o(i._Z12SD_WriteDiskPhjh) refers to dev_sd.o(i._Z19SD_WriteMultiBlocksPhxtj) for SD_WriteMultiBlocks(unsigned char*, long long, unsigned short, unsigned)
    dev_sd.o(i._Z12SD_WriteDiskPhjh) refers to dev_sd.o(.bss) for SDIO_DATA_BUFFER
    dev_sd.o(i._Z13CmdResp1Errorh) refers to stm32f4xx_sdio.o(i.SDIO_GetFlagStatus) for SDIO_GetFlagStatus
    dev_sd.o(i._Z13CmdResp1Errorh) refers to stm32f4xx_sdio.o(i.SDIO_ClearFlag) for SDIO_ClearFlag
    dev_sd.o(i._Z13CmdResp1Errorh) refers to dev_sd.o(.data) for state
    dev_sd.o(i._Z13CmdResp2Errorv) refers to stm32f4xx_sdio.o(i.SDIO_ClearFlag) for SDIO_ClearFlag
    dev_sd.o(i._Z13CmdResp2Errorv) refers to stm32f4xx_sdio.o(i.SDIO_GetFlagStatus) for SDIO_GetFlagStatus
    dev_sd.o(i._Z13CmdResp3Errorv) refers to stm32f4xx_sdio.o(i.SDIO_GetFlagStatus) for SDIO_GetFlagStatus
    dev_sd.o(i._Z13CmdResp3Errorv) refers to stm32f4xx_sdio.o(i.SDIO_ClearFlag) for SDIO_ClearFlag
    dev_sd.o(i._Z13CmdResp6ErrorhPt) refers to stm32f4xx_sdio.o(i.SDIO_GetFlagStatus) for SDIO_GetFlagStatus
    dev_sd.o(i._Z13CmdResp6ErrorhPt) refers to stm32f4xx_sdio.o(i.SDIO_ClearFlag) for SDIO_ClearFlag
    dev_sd.o(i._Z13CmdResp7Errorv) refers to stm32f4xx_sdio.o(i.SDIO_ClearFlag) for SDIO_ClearFlag
    dev_sd.o(i._Z13SD_DMA_ConfigPjjj) refers to stm32f4xx_dma.o(i.DMA_GetCmdStatus) for DMA_GetCmdStatus
    dev_sd.o(i._Z13SD_DMA_ConfigPjjj) refers to stm32f4xx_dma.o(i.DMA_DeInit) for DMA_DeInit
    dev_sd.o(i._Z13SD_DMA_ConfigPjjj) refers to stm32f4xx_dma.o(i.DMA_Init) for DMA_Init
    dev_sd.o(i._Z13SD_DMA_ConfigPjjj) refers to stm32f4xx_dma.o(i.DMA_FlowControllerConfig) for DMA_FlowControllerConfig
    dev_sd.o(i._Z13SD_DMA_ConfigPjjj) refers to stm32f4xx_dma.o(i.DMA_Cmd) for DMA_Cmd
    dev_sd.o(i._Z13SD_SendStatusPj) refers to stm32f4xx_sdio.o(i.SDIO_SendCommand) for SDIO_SendCommand
    dev_sd.o(i._Z13SD_SendStatusPj) refers to dev_sd.o(i._Z13CmdResp1Errorh) for CmdResp1Error(unsigned char)
    dev_sd.o(i._Z13SD_SendStatusPj) refers to dev_sd.o(.data) for RCA
    dev_sd.o(i._Z13SD_SendStatusPj) refers to dev_sd.o(.bss) for SDIO_CmdInitStructure
    dev_sd.o(i._Z13SD_WriteBlockPhxt) refers to stm32f4xx_sdio.o(i.SDIO_DataConfig) for SDIO_DataConfig
    dev_sd.o(i._Z13SD_WriteBlockPhxt) refers to dev_sd.o(i._Z34convert_from_bytes_to_power_of_twot) for convert_from_bytes_to_power_of_two(unsigned short)
    dev_sd.o(i._Z13SD_WriteBlockPhxt) refers to stm32f4xx_sdio.o(i.SDIO_SendCommand) for SDIO_SendCommand
    dev_sd.o(i._Z13SD_WriteBlockPhxt) refers to dev_sd.o(i._Z13CmdResp1Errorh) for CmdResp1Error(unsigned char)
    dev_sd.o(i._Z13SD_WriteBlockPhxt) refers to dev_sd.o(.emb_text) for INTX_DISABLE()
    dev_sd.o(i._Z13SD_WriteBlockPhxt) refers to stm32f4xx_sdio.o(i.SDIO_GetFlagStatus) for SDIO_GetFlagStatus
    dev_sd.o(i._Z13SD_WriteBlockPhxt) refers to stm32f4xx_sdio.o(i.SDIO_ClearFlag) for SDIO_ClearFlag
    dev_sd.o(i._Z13SD_WriteBlockPhxt) refers to dev_sd.o(i._Z13SD_DMA_ConfigPjjj) for SD_DMA_Config(unsigned*, unsigned, unsigned)
    dev_sd.o(i._Z13SD_WriteBlockPhxt) refers to dev_sd.o(i._Z7SD_Initv) for SD_Init()
    dev_sd.o(i._Z13SD_WriteBlockPhxt) refers to dev_sd.o(i._Z17IsCardProgrammingPh) for IsCardProgramming(unsigned char*)
    dev_sd.o(i._Z13SD_WriteBlockPhxt) refers to dev_sd.o(.bss) for SDIO_DataInitStructure
    dev_sd.o(i._Z13SD_WriteBlockPhxt) refers to dev_sd.o(.data) for CardType
    dev_sd.o(i._Z14SD_GetCardInfoP11SD_CardInfo) refers to dev_sd.o(.data) for CardType
    dev_sd.o(i._Z14SD_GetCardInfoP11SD_CardInfo) refers to dev_sd.o(.bss) for CSD_Tab
    dev_sd.o(i._Z16SD_ProcessIRQSrcv) refers to stm32f4xx_sdio.o(i.SDIO_GetFlagStatus) for SDIO_GetFlagStatus
    dev_sd.o(i._Z16SD_ProcessIRQSrcv) refers to stm32f4xx_sdio.o(i.SDIO_SendCommand) for SDIO_SendCommand
    dev_sd.o(i._Z16SD_ProcessIRQSrcv) refers to dev_sd.o(i._Z13CmdResp1Errorh) for CmdResp1Error(unsigned char)
    dev_sd.o(i._Z16SD_ProcessIRQSrcv) refers to stm32f4xx_sdio.o(i.SDIO_ClearFlag) for SDIO_ClearFlag
    dev_sd.o(i._Z16SD_ProcessIRQSrcv) refers to dev_sd.o(.data) for StopCondition
    dev_sd.o(i._Z16SD_ProcessIRQSrcv) refers to dev_sd.o(.bss) for SDIO_CmdInitStructure
    dev_sd.o(i._Z16SD_SetDeviceModej) refers to dev_sd.o(.data) for DeviceMode
    dev_sd.o(i._Z16show_sdcard_infov) refers to printfa.o(i.__0printf) for __2printf
    dev_sd.o(i._Z16show_sdcard_infov) refers to dev_sd.o(.bss) for SDCardInfo
    dev_sd.o(i._Z17IsCardProgrammingPh) refers to stm32f4xx_sdio.o(i.SDIO_SendCommand) for SDIO_SendCommand
    dev_sd.o(i._Z17IsCardProgrammingPh) refers to stm32f4xx_sdio.o(i.SDIO_GetFlagStatus) for SDIO_GetFlagStatus
    dev_sd.o(i._Z17IsCardProgrammingPh) refers to stm32f4xx_sdio.o(i.SDIO_ClearFlag) for SDIO_ClearFlag
    dev_sd.o(i._Z17IsCardProgrammingPh) refers to dev_sd.o(.data) for RCA
    dev_sd.o(i._Z17IsCardProgrammingPh) refers to dev_sd.o(.bss) for SDIO_CmdInitStructure
    dev_sd.o(i._Z17SD_SelectDeselectj) refers to stm32f4xx_sdio.o(i.SDIO_SendCommand) for SDIO_SendCommand
    dev_sd.o(i._Z17SD_SelectDeselectj) refers to dev_sd.o(i._Z13CmdResp1Errorh) for CmdResp1Error(unsigned char)
    dev_sd.o(i._Z17SD_SelectDeselectj) refers to dev_sd.o(.bss) for SDIO_CmdInitStructure
    dev_sd.o(i._Z18SD_InitializeCardsv) refers to stm32f4xx_sdio.o(i.SDIO_GetPowerState) for SDIO_GetPowerState
    dev_sd.o(i._Z18SD_InitializeCardsv) refers to stm32f4xx_sdio.o(i.SDIO_SendCommand) for SDIO_SendCommand
    dev_sd.o(i._Z18SD_InitializeCardsv) refers to dev_sd.o(i._Z13CmdResp2Errorv) for CmdResp2Error()
    dev_sd.o(i._Z18SD_InitializeCardsv) refers to dev_sd.o(i._Z13CmdResp6ErrorhPt) for CmdResp6Error(unsigned char, unsigned short*)
    dev_sd.o(i._Z18SD_InitializeCardsv) refers to dev_sd.o(.data) for CardType
    dev_sd.o(i._Z18SD_InitializeCardsv) refers to dev_sd.o(.bss) for SDIO_CmdInitStructure
    dev_sd.o(i._Z18SD_ReadMultiBlocksPhxtj) refers to stm32f4xx_sdio.o(i.SDIO_DataConfig) for SDIO_DataConfig
    dev_sd.o(i._Z18SD_ReadMultiBlocksPhxtj) refers to dev_sd.o(i._Z34convert_from_bytes_to_power_of_twot) for convert_from_bytes_to_power_of_two(unsigned short)
    dev_sd.o(i._Z18SD_ReadMultiBlocksPhxtj) refers to stm32f4xx_sdio.o(i.SDIO_SendCommand) for SDIO_SendCommand
    dev_sd.o(i._Z18SD_ReadMultiBlocksPhxtj) refers to dev_sd.o(i._Z13CmdResp1Errorh) for CmdResp1Error(unsigned char)
    dev_sd.o(i._Z18SD_ReadMultiBlocksPhxtj) refers to dev_sd.o(.emb_text) for INTX_DISABLE()
    dev_sd.o(i._Z18SD_ReadMultiBlocksPhxtj) refers to stm32f4xx_sdio.o(i.SDIO_GetFlagStatus) for SDIO_GetFlagStatus
    dev_sd.o(i._Z18SD_ReadMultiBlocksPhxtj) refers to stm32f4xx_sdio.o(i.SDIO_ClearFlag) for SDIO_ClearFlag
    dev_sd.o(i._Z18SD_ReadMultiBlocksPhxtj) refers to dev_sd.o(i._Z13SD_DMA_ConfigPjjj) for SD_DMA_Config(unsigned*, unsigned, unsigned)
    dev_sd.o(i._Z18SD_ReadMultiBlocksPhxtj) refers to dev_sd.o(.data) for tempbuff
    dev_sd.o(i._Z18SD_ReadMultiBlocksPhxtj) refers to dev_sd.o(.bss) for SDIO_DataInitStructure
    dev_sd.o(i._Z19SD_WriteMultiBlocksPhxtj) refers to stm32f4xx_sdio.o(i.SDIO_DataConfig) for SDIO_DataConfig
    dev_sd.o(i._Z19SD_WriteMultiBlocksPhxtj) refers to dev_sd.o(i._Z34convert_from_bytes_to_power_of_twot) for convert_from_bytes_to_power_of_two(unsigned short)
    dev_sd.o(i._Z19SD_WriteMultiBlocksPhxtj) refers to stm32f4xx_sdio.o(i.SDIO_SendCommand) for SDIO_SendCommand
    dev_sd.o(i._Z19SD_WriteMultiBlocksPhxtj) refers to dev_sd.o(i._Z13CmdResp1Errorh) for CmdResp1Error(unsigned char)
    dev_sd.o(i._Z19SD_WriteMultiBlocksPhxtj) refers to dev_sd.o(.emb_text) for INTX_DISABLE()
    dev_sd.o(i._Z19SD_WriteMultiBlocksPhxtj) refers to stm32f4xx_sdio.o(i.SDIO_GetFlagStatus) for SDIO_GetFlagStatus
    dev_sd.o(i._Z19SD_WriteMultiBlocksPhxtj) refers to stm32f4xx_sdio.o(i.SDIO_ClearFlag) for SDIO_ClearFlag
    dev_sd.o(i._Z19SD_WriteMultiBlocksPhxtj) refers to dev_sd.o(i._Z13SD_DMA_ConfigPjjj) for SD_DMA_Config(unsigned*, unsigned, unsigned)
    dev_sd.o(i._Z19SD_WriteMultiBlocksPhxtj) refers to dev_sd.o(i._Z7SD_Initv) for SD_Init()
    dev_sd.o(i._Z19SD_WriteMultiBlocksPhxtj) refers to dev_sd.o(i._Z17IsCardProgrammingPh) for IsCardProgramming(unsigned char*)
    dev_sd.o(i._Z19SD_WriteMultiBlocksPhxtj) refers to dev_sd.o(.bss) for SDIO_DataInitStructure
    dev_sd.o(i._Z19SD_WriteMultiBlocksPhxtj) refers to dev_sd.o(.data) for CardType
    dev_sd.o(i._Z25SD_EnableWideBusOperationj) refers to dev_sd.o(i._Z11SDEnWideBush) for SDEnWideBus(unsigned char)
    dev_sd.o(i._Z25SD_EnableWideBusOperationj) refers to dev_sd.o(.data) for CardType
    dev_sd.o(i._Z7FindSCRtPj) refers to stm32f4xx_sdio.o(i.SDIO_SendCommand) for SDIO_SendCommand
    dev_sd.o(i._Z7FindSCRtPj) refers to dev_sd.o(i._Z13CmdResp1Errorh) for CmdResp1Error(unsigned char)
    dev_sd.o(i._Z7FindSCRtPj) refers to stm32f4xx_sdio.o(i.SDIO_DataConfig) for SDIO_DataConfig
    dev_sd.o(i._Z7FindSCRtPj) refers to stm32f4xx_sdio.o(i.SDIO_GetFlagStatus) for SDIO_GetFlagStatus
    dev_sd.o(i._Z7FindSCRtPj) refers to stm32f4xx_sdio.o(i.SDIO_ClearFlag) for SDIO_ClearFlag
    dev_sd.o(i._Z7FindSCRtPj) refers to dev_sd.o(.bss) for SDIO_CmdInitStructure
    dev_sd.o(i._Z7FindSCRtPj) refers to dev_sd.o(.data) for RCA
    dev_sd.o(i._Z7SD_Initv) refers to stm32f4xx_rcc.o(i.RCC_AHB1PeriphClockCmd) for RCC_AHB1PeriphClockCmd
    dev_sd.o(i._Z7SD_Initv) refers to stm32f4xx_rcc.o(i.RCC_APB2PeriphClockCmd) for RCC_APB2PeriphClockCmd
    dev_sd.o(i._Z7SD_Initv) refers to stm32f4xx_rcc.o(i.RCC_APB2PeriphResetCmd) for RCC_APB2PeriphResetCmd
    dev_sd.o(i._Z7SD_Initv) refers to stm32f4xx_gpio.o(i.GPIO_Init) for GPIO_Init
    dev_sd.o(i._Z7SD_Initv) refers to stm32f4xx_gpio.o(i.GPIO_PinAFConfig) for GPIO_PinAFConfig
    dev_sd.o(i._Z7SD_Initv) refers to dev_sd.o(i._Z20SDIO_Register_Deinitv) for SDIO_Register_Deinit()
    dev_sd.o(i._Z7SD_Initv) refers to misc.o(i.NVIC_Init) for NVIC_Init
    dev_sd.o(i._Z7SD_Initv) refers to dev_sd.o(i._Z10SD_PowerONv) for SD_PowerON()
    dev_sd.o(i._Z7SD_Initv) refers to dev_sd.o(i._Z18SD_InitializeCardsv) for SD_InitializeCards()
    dev_sd.o(i._Z7SD_Initv) refers to dev_sd.o(i._Z14SD_GetCardInfoP11SD_CardInfo) for SD_GetCardInfo(SD_CardInfo*)
    dev_sd.o(i._Z7SD_Initv) refers to dev_sd.o(i._Z17SD_SelectDeselectj) for SD_SelectDeselect(unsigned)
    dev_sd.o(i._Z7SD_Initv) refers to dev_sd.o(i._Z25SD_EnableWideBusOperationj) for SD_EnableWideBusOperation(unsigned)
    dev_sd.o(i._Z7SD_Initv) refers to dev_sd.o(i._Z14SDIO_Clock_Seth) for SDIO_Clock_Set(unsigned char)
    dev_sd.o(i._Z7SD_Initv) refers to dev_sd.o(i._Z16SD_SetDeviceModej) for SD_SetDeviceMode(unsigned)
    dev_sd.o(i._Z7SD_Initv) refers to dev_sd.o(.bss) for SDCardInfo
    dev_sd.o(i._Z7SD_Initv) refers to dev_sd.o(.data) for CardType
    dev_sd.o(i._Z8CmdErrorv) refers to stm32f4xx_sdio.o(i.SDIO_GetFlagStatus) for SDIO_GetFlagStatus
    dev_sd.o(i._Z8CmdErrorv) refers to stm32f4xx_sdio.o(i.SDIO_ClearFlag) for SDIO_ClearFlag
    dev_sd.o(.ARM.exidx) refers to dev_sd.o(i._Z20SDIO_Register_Deinitv) for i._Z20SDIO_Register_Deinitv
    dev_sd.o(.ARM.exidx) refers to dev_sd.o(i._Z16SD_SetDeviceModej) for i._Z16SD_SetDeviceModej
    dev_sd.o(.ARM.exidx) refers to dev_sd.o(i._Z14SDIO_Clock_Seth) for i._Z14SDIO_Clock_Seth
    dev_sd.o(.ARM.exidx) refers to dev_sd.o(i._Z13CmdResp1Errorh) for i._Z13CmdResp1Errorh
    dev_sd.o(.ARM.exidx) refers to dev_sd.o(i._Z7FindSCRtPj) for i._Z7FindSCRtPj
    dev_sd.o(.ARM.exidx) refers to dev_sd.o(i._Z11SDEnWideBush) for i._Z11SDEnWideBush
    dev_sd.o(.ARM.exidx) refers to dev_sd.o(i._Z25SD_EnableWideBusOperationj) for i._Z25SD_EnableWideBusOperationj
    dev_sd.o(.ARM.exidx) refers to dev_sd.o(i._Z17SD_SelectDeselectj) for i._Z17SD_SelectDeselectj
    dev_sd.o(.ARM.exidx) refers to dev_sd.o(i._Z14SD_GetCardInfoP11SD_CardInfo) for i._Z14SD_GetCardInfoP11SD_CardInfo
    dev_sd.o(.ARM.exidx) refers to dev_sd.o(i._Z13CmdResp2Errorv) for i._Z13CmdResp2Errorv
    dev_sd.o(.ARM.exidx) refers to dev_sd.o(i._Z13CmdResp6ErrorhPt) for i._Z13CmdResp6ErrorhPt
    dev_sd.o(.ARM.exidx) refers to dev_sd.o(i._Z18SD_InitializeCardsv) for i._Z18SD_InitializeCardsv
    dev_sd.o(.ARM.exidx) refers to dev_sd.o(i._Z13CmdResp3Errorv) for i._Z13CmdResp3Errorv
    dev_sd.o(.ARM.exidx) refers to dev_sd.o(i._Z13CmdResp7Errorv) for i._Z13CmdResp7Errorv
    dev_sd.o(.ARM.exidx) refers to dev_sd.o(i._Z8CmdErrorv) for i._Z8CmdErrorv
    dev_sd.o(.ARM.exidx) refers to dev_sd.o(i._Z10SD_PowerONv) for i._Z10SD_PowerONv
    dev_sd.o(.ARM.exidx) refers to dev_sd.o(i._Z7SD_Initv) for i._Z7SD_Initv
    dev_sd.o(.ARM.exidx) refers to dev_sd.o(i._Z11SD_PowerOFFv) for i._Z11SD_PowerOFFv
    dev_sd.o(.ARM.exidx) refers to dev_sd.o(i._Z13SD_DMA_ConfigPjjj) for i._Z13SD_DMA_ConfigPjjj
    dev_sd.o(.ARM.exidx) refers to dev_sd.o(i._Z34convert_from_bytes_to_power_of_twot) for i._Z34convert_from_bytes_to_power_of_twot
    dev_sd.o(.ARM.exidx) refers to dev_sd.o(i._Z12SD_ReadBlockPhxt) for i._Z12SD_ReadBlockPhxt
    dev_sd.o(.ARM.exidx) refers to dev_sd.o(i._Z18SD_ReadMultiBlocksPhxtj) for i._Z18SD_ReadMultiBlocksPhxtj
    dev_sd.o(.ARM.exidx) refers to dev_sd.o(i._Z17IsCardProgrammingPh) for i._Z17IsCardProgrammingPh
    dev_sd.o(.ARM.exidx) refers to dev_sd.o(i._Z13SD_WriteBlockPhxt) for i._Z13SD_WriteBlockPhxt
    dev_sd.o(.ARM.exidx) refers to dev_sd.o(i._Z19SD_WriteMultiBlocksPhxtj) for i._Z19SD_WriteMultiBlocksPhxtj
    dev_sd.o(.ARM.exidx) refers to dev_sd.o(i._Z16SD_ProcessIRQSrcv) for i._Z16SD_ProcessIRQSrcv
    dev_sd.o(.ARM.exidx) refers to dev_sd.o(i.SDIO_IRQHandler) for i.SDIO_IRQHandler
    dev_sd.o(.ARM.exidx) refers to dev_sd.o(i._Z13SD_SendStatusPj) for i._Z13SD_SendStatusPj
    dev_sd.o(.ARM.exidx) refers to dev_sd.o(i._Z11SD_GetStatev) for i._Z11SD_GetStatev
    dev_sd.o(.ARM.exidx) refers to dev_sd.o(i._Z11SD_ReadDiskPhjh) for i._Z11SD_ReadDiskPhjh
    dev_sd.o(.ARM.exidx) refers to dev_sd.o(i._Z12SD_WriteDiskPhjh) for i._Z12SD_WriteDiskPhjh
    dev_sd.o(.ARM.exidx) refers to dev_sd.o(i._Z16show_sdcard_infov) for i._Z16show_sdcard_infov
    dev_mup6050.o(i._ZN8_MPU605010DataSampleEv) refers to uav_filter.o(t._ZN7Vector3IsEC1Ev) for Vector3<short>::Vector3()
    dev_mup6050.o(i._ZN8_MPU605010DataSampleEv) refers to dev_mup6050.o(i._ZN8_MPU60504ReadEv) for _MPU6050::Read()
    dev_mup6050.o(i._ZN8_MPU605010DataSampleEv) refers to dev_mup6050.o(i._ZN8_MPU605013GyroCalOffsetEv) for _MPU6050::GyroCalOffset()
    dev_mup6050.o(i._ZN8_MPU605010DataSampleEv) refers to dev_mup6050.o(i._ZN8_MPU605012AccCalOffsetEv) for _MPU6050::AccCalOffset()
    dev_mup6050.o(i._ZN8_MPU605010DataSampleEv) refers to dev_mup6050.o(i._ZN8_MPU605014GyroAutoOffsetEh) for _MPU6050::GyroAutoOffset(unsigned char)
    dev_mup6050.o(i._ZN8_MPU605010DataSampleEv) refers to cal_vector3.o(t._ZNK7Vector3IfEmiERKS0_) for Vector3<float>::operator -(const Vector3<float>&) const
    dev_mup6050.o(i._ZN8_MPU605010DataSampleEv) refers to dev_mup6050.o(i._ZN8_MPU605011GetGyro2dpsEv) for _MPU6050::GetGyro2dps()
    dev_mup6050.o(i._ZN8_MPU605011GetGyro2dpsEv) refers to cal_math.o(i._Z7radiansf) for radians(float)
    dev_mup6050.o(i._ZN8_MPU605011I2CwriteBitEhhhh) refers to dev_i2c.o(i._ZN4_I2C8MultReadEhhhPh) for _I2C::MultRead(unsigned char, unsigned char, unsigned char, unsigned char*)
    dev_mup6050.o(i._ZN8_MPU605011I2CwriteBitEhhhh) refers to dev_i2c.o(i._ZN4_I2C11SingleWriteEhhh) for _I2C::SingleWrite(unsigned char, unsigned char, unsigned char)
    dev_mup6050.o(i._ZN8_MPU605012AccCalOffsetEv) refers to cxa_guard_acquire.o(i.__cxa_guard_acquire) for __cxa_guard_acquire
    dev_mup6050.o(i._ZN8_MPU605012AccCalOffsetEv) refers to imu.o(t._ZN7Vector3IfEC1Ev) for Vector3<float>::Vector3()
    dev_mup6050.o(i._ZN8_MPU605012AccCalOffsetEv) refers to dev_ak8975.o(t._ZN7Vector3IfEclEfff) for Vector3<float>::operator ()(float, float, float)
    dev_mup6050.o(i._ZN8_MPU605012AccCalOffsetEv) refers to cal_vector3.o(t._ZNK7Vector3IfEdvEf) for Vector3<float>::operator /(float) const
    dev_mup6050.o(i._ZN8_MPU605012AccCalOffsetEv) refers to uav_parameter.o(i._ZN10_PARAMETER15SaveAccOffersetE7Vector3IfE) for _PARAMETER::SaveAccOfferset(Vector3<float>)
    dev_mup6050.o(i._ZN8_MPU605012AccCalOffsetEv) refers to dev_clock.o(i._Z8Delay_msj) for Delay_ms(unsigned)
    dev_mup6050.o(i._ZN8_MPU605012AccCalOffsetEv) refers to uav_parameter.o(i._ZN10_PARAMETER15ReadAccOffersetEv) for _PARAMETER::ReadAccOfferset()
    dev_mup6050.o(i._ZN8_MPU605012AccCalOffsetEv) refers to dev_mup6050.o(.data) for _ZGVtempAcc
    dev_mup6050.o(i._ZN8_MPU605012AccCalOffsetEv) refers to dev_mup6050.o(.bss) for tempAcc
    dev_mup6050.o(i._ZN8_MPU605012AccCalOffsetEv) refers to uav_parameter.o(.bss) for Pamameter
    dev_mup6050.o(i._ZN8_MPU605012I2CwriteBitsEhhhhh) refers to dev_i2c.o(i._ZN4_I2C8MultReadEhhhPh) for _I2C::MultRead(unsigned char, unsigned char, unsigned char, unsigned char*)
    dev_mup6050.o(i._ZN8_MPU605012I2CwriteBitsEhhhhh) refers to dev_i2c.o(i._ZN4_I2C11SingleWriteEhhh) for _I2C::SingleWrite(unsigned char, unsigned char, unsigned char)
    dev_mup6050.o(i._ZN8_MPU605012SetI2CBypassEh) refers to dev_mup6050.o(i._ZN8_MPU605011I2CwriteBitEhhhh) for _MPU6050::I2CwriteBit(unsigned char, unsigned char, unsigned char, unsigned char)
    dev_mup6050.o(i._ZN8_MPU605013ConfigurationEt) refers to dev_mup6050.o(i._ZN8_MPU60508SetSleepEh) for _MPU6050::SetSleep(unsigned char)
    dev_mup6050.o(i._ZN8_MPU605013ConfigurationEt) refers to dev_clock.o(i._Z8Delay_msj) for Delay_ms(unsigned)
    dev_mup6050.o(i._ZN8_MPU605013ConfigurationEt) refers to dev_mup6050.o(i._ZN8_MPU605014SetClockSourceEh) for _MPU6050::SetClockSource(unsigned char)
    dev_mup6050.o(i._ZN8_MPU605013ConfigurationEt) refers to dev_mup6050.o(i._ZN8_MPU60509SetSampleEt) for _MPU6050::SetSample(unsigned short)
    dev_mup6050.o(i._ZN8_MPU605013ConfigurationEt) refers to dev_mup6050.o(i._ZN8_MPU605021SetFullScaleGyroRangeEh) for _MPU6050::SetFullScaleGyroRange(unsigned char)
    dev_mup6050.o(i._ZN8_MPU605013ConfigurationEt) refers to dev_mup6050.o(i._ZN8_MPU605022SetFullScaleAccelRangeEh) for _MPU6050::SetFullScaleAccelRange(unsigned char)
    dev_mup6050.o(i._ZN8_MPU605013ConfigurationEt) refers to dev_mup6050.o(i._ZN8_MPU60507SetDLPFEh) for _MPU6050::SetDLPF(unsigned char)
    dev_mup6050.o(i._ZN8_MPU605013ConfigurationEt) refers to dev_mup6050.o(i._ZN8_MPU605016SetI2CMasterModeEh) for _MPU6050::SetI2CMasterMode(unsigned char)
    dev_mup6050.o(i._ZN8_MPU605013ConfigurationEt) refers to dev_mup6050.o(i._ZN8_MPU605012SetI2CBypassEh) for _MPU6050::SetI2CBypass(unsigned char)
    dev_mup6050.o(i._ZN8_MPU605013GyroCalOffsetEv) refers to cxa_guard_acquire.o(i.__cxa_guard_acquire) for __cxa_guard_acquire
    dev_mup6050.o(i._ZN8_MPU605013GyroCalOffsetEv) refers to imu.o(t._ZN7Vector3IfEC1Ev) for Vector3<float>::Vector3()
    dev_mup6050.o(i._ZN8_MPU605013GyroCalOffsetEv) refers to dev_ak8975.o(t._ZN7Vector3IfEclEfff) for Vector3<float>::operator ()(float, float, float)
    dev_mup6050.o(i._ZN8_MPU605013GyroCalOffsetEv) refers to cal_vector3.o(t._ZN7Vector3IfEpLERKS0_) for Vector3<float>::operator +=(const Vector3<float>&)
    dev_mup6050.o(i._ZN8_MPU605013GyroCalOffsetEv) refers to cal_vector3.o(t._ZNK7Vector3IfEdvEf) for Vector3<float>::operator /(float) const
    dev_mup6050.o(i._ZN8_MPU605013GyroCalOffsetEv) refers to uav_parameter.o(i._ZN10_PARAMETER15SaveGyrOffersetE7Vector3IfE) for _PARAMETER::SaveGyrOfferset(Vector3<float>)
    dev_mup6050.o(i._ZN8_MPU605013GyroCalOffsetEv) refers to dev_clock.o(i._Z8Delay_msj) for Delay_ms(unsigned)
    dev_mup6050.o(i._ZN8_MPU605013GyroCalOffsetEv) refers to uav_parameter.o(i._ZN10_PARAMETER15ReadGyrOffersetEv) for _PARAMETER::ReadGyrOfferset()
    dev_mup6050.o(i._ZN8_MPU605013GyroCalOffsetEv) refers to dev_mup6050.o(.data) for _ZGVtempGyro
    dev_mup6050.o(i._ZN8_MPU605013GyroCalOffsetEv) refers to dev_mup6050.o(.bss) for tempGyro
    dev_mup6050.o(i._ZN8_MPU605013GyroCalOffsetEv) refers to uav_parameter.o(.bss) for Pamameter
    dev_mup6050.o(i._ZN8_MPU605014SetClockSourceEh) refers to dev_mup6050.o(i._ZN8_MPU605012I2CwriteBitsEhhhhh) for _MPU6050::I2CwriteBits(unsigned char, unsigned char, unsigned char, unsigned char, unsigned char)
    dev_mup6050.o(i._ZN8_MPU605016SetI2CMasterModeEh) refers to dev_mup6050.o(i._ZN8_MPU605011I2CwriteBitEhhhh) for _MPU6050::I2CwriteBit(unsigned char, unsigned char, unsigned char, unsigned char)
    dev_mup6050.o(i._ZN8_MPU605021SetFullScaleGyroRangeEh) refers to dev_mup6050.o(i._ZN8_MPU605012I2CwriteBitsEhhhhh) for _MPU6050::I2CwriteBits(unsigned char, unsigned char, unsigned char, unsigned char, unsigned char)
    dev_mup6050.o(i._ZN8_MPU605022SetFullScaleAccelRangeEh) refers to dev_mup6050.o(i._ZN8_MPU605012I2CwriteBitsEhhhhh) for _MPU6050::I2CwriteBits(unsigned char, unsigned char, unsigned char, unsigned char, unsigned char)
    dev_mup6050.o(i._ZN8_MPU60504ReadEv) refers to dev_i2c.o(i._ZN4_I2C8MultReadEhhhPh) for _I2C::MultRead(unsigned char, unsigned char, unsigned char, unsigned char*)
    dev_mup6050.o(i._ZN8_MPU60507SetDLPFEh) refers to dev_mup6050.o(i._ZN8_MPU605012I2CwriteBitsEhhhhh) for _MPU6050::I2CwriteBits(unsigned char, unsigned char, unsigned char, unsigned char, unsigned char)
    dev_mup6050.o(i._ZN8_MPU60508SetSleepEh) refers to dev_mup6050.o(i._ZN8_MPU605011I2CwriteBitEhhhh) for _MPU6050::I2CwriteBit(unsigned char, unsigned char, unsigned char, unsigned char)
    dev_mup6050.o(i._ZN8_MPU60509SetSampleEt) refers to dev_i2c.o(i._ZN4_I2C11SingleWriteEhhh) for _I2C::SingleWrite(unsigned char, unsigned char, unsigned char)
    dev_mup6050.o(i.__sti___15_dev_mup6050_cpp_Mpu6050) refers to dev_mup6050.o(i._ZN8_MPU6050C1Ev) for _MPU6050::_MPU6050()
    dev_mup6050.o(i.__sti___15_dev_mup6050_cpp_Mpu6050) refers to dev_mup6050.o(.bss) for Mpu6050
    dev_mup6050.o(.ARM.exidx) refers to dev_mup6050.o(i._ZN8_MPU60504ReadEv) for i._ZN8_MPU60504ReadEv
    dev_mup6050.o(.ARM.exidx) refers to dev_mup6050.o(i._ZN8_MPU605011I2CwriteBitEhhhh) for i._ZN8_MPU605011I2CwriteBitEhhhh
    dev_mup6050.o(.ARM.exidx) refers to dev_mup6050.o(i._ZN8_MPU605012SetI2CBypassEh) for i._ZN8_MPU605012SetI2CBypassEh
    dev_mup6050.o(.ARM.exidx) refers to dev_mup6050.o(i._ZN8_MPU605016SetI2CMasterModeEh) for i._ZN8_MPU605016SetI2CMasterModeEh
    dev_mup6050.o(.ARM.exidx) refers to dev_mup6050.o(i._ZN8_MPU605012I2CwriteBitsEhhhhh) for i._ZN8_MPU605012I2CwriteBitsEhhhhh
    dev_mup6050.o(.ARM.exidx) refers to dev_mup6050.o(i._ZN8_MPU60507SetDLPFEh) for i._ZN8_MPU60507SetDLPFEh
    dev_mup6050.o(.ARM.exidx) refers to dev_mup6050.o(i._ZN8_MPU605022SetFullScaleAccelRangeEh) for i._ZN8_MPU605022SetFullScaleAccelRangeEh
    dev_mup6050.o(.ARM.exidx) refers to dev_mup6050.o(i._ZN8_MPU605021SetFullScaleGyroRangeEh) for i._ZN8_MPU605021SetFullScaleGyroRangeEh
    dev_mup6050.o(.ARM.exidx) refers to dev_mup6050.o(i._ZN8_MPU60509SetSampleEt) for i._ZN8_MPU60509SetSampleEt
    dev_mup6050.o(.ARM.exidx) refers to dev_mup6050.o(i._ZN8_MPU605014SetClockSourceEh) for i._ZN8_MPU605014SetClockSourceEh
    dev_mup6050.o(.ARM.exidx) refers to dev_mup6050.o(i._ZN8_MPU60508SetSleepEh) for i._ZN8_MPU60508SetSleepEh
    dev_mup6050.o(.ARM.exidx) refers to dev_mup6050.o(i._ZN8_MPU605013ConfigurationEt) for i._ZN8_MPU605013ConfigurationEt
    dev_mup6050.o(.ARM.exidx) refers to dev_mup6050.o(i._ZN8_MPU605011GetGyro2dpsEv) for i._ZN8_MPU605011GetGyro2dpsEv
    dev_mup6050.o(.ARM.exidx) refers to dev_mup6050.o(i._ZN8_MPU605014GyroAutoOffsetEh) for i._ZN8_MPU605014GyroAutoOffsetEh
    dev_mup6050.o(.ARM.exidx) refers to dev_mup6050.o(i._ZN8_MPU605012AccCalOffsetEv) for i._ZN8_MPU605012AccCalOffsetEv
    dev_mup6050.o(.ARM.exidx) refers to dev_mup6050.o(i._ZN8_MPU605013GyroCalOffsetEv) for i._ZN8_MPU605013GyroCalOffsetEv
    dev_mup6050.o(.ARM.exidx) refers to dev_mup6050.o(i._ZN8_MPU605010DataSampleEv) for i._ZN8_MPU605010DataSampleEv
    dev_mup6050.o(.ARM.exidx) refers to dev_mup6050.o(i.__sti___15_dev_mup6050_cpp_Mpu6050) for i.__sti___15_dev_mup6050_cpp_Mpu6050
    dev_mup6050.o(.init_array) refers to dev_mup6050.o(i.__sti___15_dev_mup6050_cpp_Mpu6050) for __sti___15_dev_mup6050_cpp_Mpu6050
    dev_mup6050.o(.init_array) refers to cpp_init.o(.text) for __cpp_initialize__aeabi_
    dev_spi.o(i._Z13SPI1_SetSpeedh) refers to stm32f4xx_spi.o(i.SPI_Init) for SPI_Init
    dev_spi.o(i._Z13SPI1_SetSpeedh) refers to stm32f4xx_spi.o(i.SPI_Cmd) for SPI_Cmd
    dev_spi.o(i._Z13SPI1_SetSpeedh) refers to dev_spi.o(.bss) for SPI_InitStructure
    dev_spi.o(i._Z18SPI1_ReadWriteByteh) refers to stm32f4xx_spi.o(i.SPI_I2S_GetFlagStatus) for SPI_I2S_GetFlagStatus
    dev_spi.o(i._Z18SPI1_ReadWriteByteh) refers to stm32f4xx_spi.o(i.SPI_I2S_SendData) for SPI_I2S_SendData
    dev_spi.o(i._Z18SPI1_ReadWriteByteh) refers to stm32f4xx_spi.o(i.SPI_I2S_ReceiveData) for SPI_I2S_ReceiveData
    dev_spi.o(i._Z9SPI1_Initv) refers to stm32f4xx_rcc.o(i.RCC_AHB1PeriphClockCmd) for RCC_AHB1PeriphClockCmd
    dev_spi.o(i._Z9SPI1_Initv) refers to stm32f4xx_rcc.o(i.RCC_APB2PeriphClockCmd) for RCC_APB2PeriphClockCmd
    dev_spi.o(i._Z9SPI1_Initv) refers to stm32f4xx_gpio.o(i.GPIO_PinAFConfig) for GPIO_PinAFConfig
    dev_spi.o(i._Z9SPI1_Initv) refers to stm32f4xx_gpio.o(i.GPIO_Init) for GPIO_Init
    dev_spi.o(i._Z9SPI1_Initv) refers to stm32f4xx_gpio.o(i.GPIO_SetBits) for GPIO_SetBits
    dev_spi.o(i._Z9SPI1_Initv) refers to stm32f4xx_spi.o(i.SPI_Init) for SPI_Init
    dev_spi.o(i._Z9SPI1_Initv) refers to stm32f4xx_spi.o(i.SPI_Cmd) for SPI_Cmd
    dev_spi.o(i._Z9SPI1_Initv) refers to dev_spi.o(i._Z18SPI1_ReadWriteByteh) for SPI1_ReadWriteByte(unsigned char)
    dev_spi.o(i._Z9SPI1_Initv) refers to dev_spi.o(.bss) for SPI_InitStructure
    dev_spi.o(.ARM.exidx) refers to dev_spi.o(i._Z18SPI1_ReadWriteByteh) for i._Z18SPI1_ReadWriteByteh
    dev_spi.o(.ARM.exidx) refers to dev_spi.o(i._Z9SPI1_Initv) for i._Z9SPI1_Initv
    dev_spi.o(.ARM.exidx) refers to dev_spi.o(i._Z13SPI1_SetSpeedh) for i._Z13SPI1_SetSpeedh
    dev_flash.o(i._ZN11_FLASH25Q3214SPI_Flash_ReadEPhjt) refers to stm32f4xx_gpio.o(i.GPIO_ResetBits) for GPIO_ResetBits
    dev_flash.o(i._ZN11_FLASH25Q3214SPI_Flash_ReadEPhjt) refers to dev_spi.o(i._Z18SPI1_ReadWriteByteh) for SPI1_ReadWriteByte(unsigned char)
    dev_flash.o(i._ZN11_FLASH25Q3214SPI_Flash_ReadEPhjt) refers to stm32f4xx_gpio.o(i.GPIO_SetBits) for GPIO_SetBits
    dev_flash.o(i._ZN11_FLASH25Q3215SPI_Flash_WriteEPhjt) refers to dev_flash.o(i._ZN11_FLASH25Q3214SPI_Flash_ReadEPhjt) for _FLASH25Q32::SPI_Flash_Read(unsigned char*, unsigned, unsigned short)
    dev_flash.o(i._ZN11_FLASH25Q3215SPI_Flash_WriteEPhjt) refers to dev_flash.o(i._ZN11_FLASH25Q3222SPI_Flash_Erase_SectorEj) for _FLASH25Q32::SPI_Flash_Erase_Sector(unsigned)
    dev_flash.o(i._ZN11_FLASH25Q3215SPI_Flash_WriteEPhjt) refers to dev_flash.o(i._ZN11_FLASH25Q3223SPI_Flash_Write_NoCheckEPhjt) for _FLASH25Q32::SPI_Flash_Write_NoCheck(unsigned char*, unsigned, unsigned short)
    dev_flash.o(i._ZN11_FLASH25Q3215SPI_Flash_WriteEPhjt) refers to dev_flash.o(.bss) for SPI_FLASH_BUF
    dev_flash.o(i._ZN11_FLASH25Q3216SPI_Flash_ReadIDEv) refers to stm32f4xx_gpio.o(i.GPIO_ResetBits) for GPIO_ResetBits
    dev_flash.o(i._ZN11_FLASH25Q3216SPI_Flash_ReadIDEv) refers to dev_spi.o(i._Z18SPI1_ReadWriteByteh) for SPI1_ReadWriteByte(unsigned char)
    dev_flash.o(i._ZN11_FLASH25Q3216SPI_Flash_ReadIDEv) refers to stm32f4xx_gpio.o(i.GPIO_SetBits) for GPIO_SetBits
    dev_flash.o(i._ZN11_FLASH25Q3216SPI_Flash_ReadSREv) refers to stm32f4xx_gpio.o(i.GPIO_ResetBits) for GPIO_ResetBits
    dev_flash.o(i._ZN11_FLASH25Q3216SPI_Flash_ReadSREv) refers to dev_spi.o(i._Z18SPI1_ReadWriteByteh) for SPI1_ReadWriteByte(unsigned char)
    dev_flash.o(i._ZN11_FLASH25Q3216SPI_Flash_ReadSREv) refers to stm32f4xx_gpio.o(i.GPIO_SetBits) for GPIO_SetBits
    dev_flash.o(i._ZN11_FLASH25Q3216SPI_Flash_Read_fEjPft) refers to dev_flash.o(i._ZN11_FLASH25Q3214SPI_Flash_ReadEPhjt) for _FLASH25Q32::SPI_Flash_Read(unsigned char*, unsigned, unsigned short)
    dev_flash.o(i._ZN11_FLASH25Q3216SPI_Flash_WAKEUPEv) refers to stm32f4xx_gpio.o(i.GPIO_ResetBits) for GPIO_ResetBits
    dev_flash.o(i._ZN11_FLASH25Q3216SPI_Flash_WAKEUPEv) refers to dev_spi.o(i._Z18SPI1_ReadWriteByteh) for SPI1_ReadWriteByte(unsigned char)
    dev_flash.o(i._ZN11_FLASH25Q3216SPI_Flash_WAKEUPEv) refers to stm32f4xx_gpio.o(i.GPIO_SetBits) for GPIO_SetBits
    dev_flash.o(i._ZN11_FLASH25Q3216SPI_Flash_WAKEUPEv) refers to dev_clock.o(i._Z8Delay_usj) for Delay_us(unsigned)
    dev_flash.o(i._ZN11_FLASH25Q3217SPI_Flash_Write_fEjPft) refers to dev_flash.o(i._ZN11_FLASH25Q3215SPI_Flash_WriteEPhjt) for _FLASH25Q32::SPI_Flash_Write(unsigned char*, unsigned, unsigned short)
    dev_flash.o(i._ZN11_FLASH25Q3218SPI_FLASH_Write_SREh) refers to stm32f4xx_gpio.o(i.GPIO_ResetBits) for GPIO_ResetBits
    dev_flash.o(i._ZN11_FLASH25Q3218SPI_FLASH_Write_SREh) refers to dev_spi.o(i._Z18SPI1_ReadWriteByteh) for SPI1_ReadWriteByte(unsigned char)
    dev_flash.o(i._ZN11_FLASH25Q3218SPI_FLASH_Write_SREh) refers to stm32f4xx_gpio.o(i.GPIO_SetBits) for GPIO_SetBits
    dev_flash.o(i._ZN11_FLASH25Q3219SPI_Flash_PowerDownEv) refers to stm32f4xx_gpio.o(i.GPIO_ResetBits) for GPIO_ResetBits
    dev_flash.o(i._ZN11_FLASH25Q3219SPI_Flash_PowerDownEv) refers to dev_spi.o(i._Z18SPI1_ReadWriteByteh) for SPI1_ReadWriteByte(unsigned char)
    dev_flash.o(i._ZN11_FLASH25Q3219SPI_Flash_PowerDownEv) refers to stm32f4xx_gpio.o(i.GPIO_SetBits) for GPIO_SetBits
    dev_flash.o(i._ZN11_FLASH25Q3219SPI_Flash_PowerDownEv) refers to dev_clock.o(i._Z8Delay_usj) for Delay_us(unsigned)
    dev_flash.o(i._ZN11_FLASH25Q3219SPI_Flash_Wait_BusyEv) refers to dev_flash.o(i._ZN11_FLASH25Q3216SPI_Flash_ReadSREv) for _FLASH25Q32::SPI_Flash_ReadSR()
    dev_flash.o(i._ZN11_FLASH25Q3220SPI_Flash_Erase_ChipEv) refers to dev_flash.o(i._ZN11_FLASH25Q3222SPI_FLASH_Write_EnableEv) for _FLASH25Q32::SPI_FLASH_Write_Enable()
    dev_flash.o(i._ZN11_FLASH25Q3220SPI_Flash_Erase_ChipEv) refers to dev_flash.o(i._ZN11_FLASH25Q3219SPI_Flash_Wait_BusyEv) for _FLASH25Q32::SPI_Flash_Wait_Busy()
    dev_flash.o(i._ZN11_FLASH25Q3220SPI_Flash_Erase_ChipEv) refers to stm32f4xx_gpio.o(i.GPIO_ResetBits) for GPIO_ResetBits
    dev_flash.o(i._ZN11_FLASH25Q3220SPI_Flash_Erase_ChipEv) refers to dev_spi.o(i._Z18SPI1_ReadWriteByteh) for SPI1_ReadWriteByte(unsigned char)
    dev_flash.o(i._ZN11_FLASH25Q3220SPI_Flash_Erase_ChipEv) refers to stm32f4xx_gpio.o(i.GPIO_SetBits) for GPIO_SetBits
    dev_flash.o(i._ZN11_FLASH25Q3220SPI_Flash_Write_PageEPhjt) refers to dev_flash.o(i._ZN11_FLASH25Q3222SPI_FLASH_Write_EnableEv) for _FLASH25Q32::SPI_FLASH_Write_Enable()
    dev_flash.o(i._ZN11_FLASH25Q3220SPI_Flash_Write_PageEPhjt) refers to stm32f4xx_gpio.o(i.GPIO_ResetBits) for GPIO_ResetBits
    dev_flash.o(i._ZN11_FLASH25Q3220SPI_Flash_Write_PageEPhjt) refers to dev_spi.o(i._Z18SPI1_ReadWriteByteh) for SPI1_ReadWriteByte(unsigned char)
    dev_flash.o(i._ZN11_FLASH25Q3220SPI_Flash_Write_PageEPhjt) refers to stm32f4xx_gpio.o(i.GPIO_SetBits) for GPIO_SetBits
    dev_flash.o(i._ZN11_FLASH25Q3220SPI_Flash_Write_PageEPhjt) refers to dev_flash.o(i._ZN11_FLASH25Q3219SPI_Flash_Wait_BusyEv) for _FLASH25Q32::SPI_Flash_Wait_Busy()
    dev_flash.o(i._ZN11_FLASH25Q3222SPI_FLASH_Write_EnableEv) refers to stm32f4xx_gpio.o(i.GPIO_ResetBits) for GPIO_ResetBits
    dev_flash.o(i._ZN11_FLASH25Q3222SPI_FLASH_Write_EnableEv) refers to dev_spi.o(i._Z18SPI1_ReadWriteByteh) for SPI1_ReadWriteByte(unsigned char)
    dev_flash.o(i._ZN11_FLASH25Q3222SPI_FLASH_Write_EnableEv) refers to stm32f4xx_gpio.o(i.GPIO_SetBits) for GPIO_SetBits
    dev_flash.o(i._ZN11_FLASH25Q3222SPI_Flash_Erase_SectorEj) refers to dev_flash.o(i._ZN11_FLASH25Q3222SPI_FLASH_Write_EnableEv) for _FLASH25Q32::SPI_FLASH_Write_Enable()
    dev_flash.o(i._ZN11_FLASH25Q3222SPI_Flash_Erase_SectorEj) refers to dev_flash.o(i._ZN11_FLASH25Q3219SPI_Flash_Wait_BusyEv) for _FLASH25Q32::SPI_Flash_Wait_Busy()
    dev_flash.o(i._ZN11_FLASH25Q3222SPI_Flash_Erase_SectorEj) refers to stm32f4xx_gpio.o(i.GPIO_ResetBits) for GPIO_ResetBits
    dev_flash.o(i._ZN11_FLASH25Q3222SPI_Flash_Erase_SectorEj) refers to dev_spi.o(i._Z18SPI1_ReadWriteByteh) for SPI1_ReadWriteByte(unsigned char)
    dev_flash.o(i._ZN11_FLASH25Q3222SPI_Flash_Erase_SectorEj) refers to stm32f4xx_gpio.o(i.GPIO_SetBits) for GPIO_SetBits
    dev_flash.o(i._ZN11_FLASH25Q3223SPI_FLASH_Write_DisableEv) refers to stm32f4xx_gpio.o(i.GPIO_ResetBits) for GPIO_ResetBits
    dev_flash.o(i._ZN11_FLASH25Q3223SPI_FLASH_Write_DisableEv) refers to dev_spi.o(i._Z18SPI1_ReadWriteByteh) for SPI1_ReadWriteByte(unsigned char)
    dev_flash.o(i._ZN11_FLASH25Q3223SPI_FLASH_Write_DisableEv) refers to stm32f4xx_gpio.o(i.GPIO_SetBits) for GPIO_SetBits
    dev_flash.o(i._ZN11_FLASH25Q3223SPI_Flash_Write_NoCheckEPhjt) refers to dev_flash.o(i._ZN11_FLASH25Q3220SPI_Flash_Write_PageEPhjt) for _FLASH25Q32::SPI_Flash_Write_Page(unsigned char*, unsigned, unsigned short)
    dev_flash.o(i._ZN11_FLASH25Q325Init_Ev) refers to dev_spi.o(i._Z9SPI1_Initv) for SPI1_Init()
    dev_flash.o(i._ZN11_FLASH25Q325Init_Ev) refers to dev_spi.o(i._Z13SPI1_SetSpeedh) for SPI1_SetSpeed(unsigned char)
    dev_flash.o(i._ZN11_FLASH25Q325Init_Ev) refers to dev_flash.o(i._ZN11_FLASH25Q3216SPI_Flash_ReadIDEv) for _FLASH25Q32::SPI_Flash_ReadID()
    dev_flash.o(i._ZN11_FLASH25Q325Init_Ev) refers to printfa.o(i.__0printf) for __2printf
    dev_flash.o(i._ZN11_FLASH25Q325Init_Ev) refers to dev_flash.o(.data) for SPI_FLASH_TYPE
    dev_flash.o(.ARM.exidx) refers to dev_flash.o(i._ZN11_FLASH25Q3216SPI_Flash_ReadIDEv) for i._ZN11_FLASH25Q3216SPI_Flash_ReadIDEv
    dev_flash.o(.ARM.exidx) refers to dev_flash.o(i._ZN11_FLASH25Q325Init_Ev) for i._ZN11_FLASH25Q325Init_Ev
    dev_flash.o(.ARM.exidx) refers to dev_flash.o(i._ZN11_FLASH25Q3216SPI_Flash_ReadSREv) for i._ZN11_FLASH25Q3216SPI_Flash_ReadSREv
    dev_flash.o(.ARM.exidx) refers to dev_flash.o(i._ZN11_FLASH25Q3218SPI_FLASH_Write_SREh) for i._ZN11_FLASH25Q3218SPI_FLASH_Write_SREh
    dev_flash.o(.ARM.exidx) refers to dev_flash.o(i._ZN11_FLASH25Q3222SPI_FLASH_Write_EnableEv) for i._ZN11_FLASH25Q3222SPI_FLASH_Write_EnableEv
    dev_flash.o(.ARM.exidx) refers to dev_flash.o(i._ZN11_FLASH25Q3223SPI_FLASH_Write_DisableEv) for i._ZN11_FLASH25Q3223SPI_FLASH_Write_DisableEv
    dev_flash.o(.ARM.exidx) refers to dev_flash.o(i._ZN11_FLASH25Q3214SPI_Flash_ReadEPhjt) for i._ZN11_FLASH25Q3214SPI_Flash_ReadEPhjt
    dev_flash.o(.ARM.exidx) refers to dev_flash.o(i._ZN11_FLASH25Q3219SPI_Flash_Wait_BusyEv) for i._ZN11_FLASH25Q3219SPI_Flash_Wait_BusyEv
    dev_flash.o(.ARM.exidx) refers to dev_flash.o(i._ZN11_FLASH25Q3220SPI_Flash_Write_PageEPhjt) for i._ZN11_FLASH25Q3220SPI_Flash_Write_PageEPhjt
    dev_flash.o(.ARM.exidx) refers to dev_flash.o(i._ZN11_FLASH25Q3223SPI_Flash_Write_NoCheckEPhjt) for i._ZN11_FLASH25Q3223SPI_Flash_Write_NoCheckEPhjt
    dev_flash.o(.ARM.exidx) refers to dev_flash.o(i._ZN11_FLASH25Q3222SPI_Flash_Erase_SectorEj) for i._ZN11_FLASH25Q3222SPI_Flash_Erase_SectorEj
    dev_flash.o(.ARM.exidx) refers to dev_flash.o(i._ZN11_FLASH25Q3215SPI_Flash_WriteEPhjt) for i._ZN11_FLASH25Q3215SPI_Flash_WriteEPhjt
    dev_flash.o(.ARM.exidx) refers to dev_flash.o(i._ZN11_FLASH25Q3220SPI_Flash_Erase_ChipEv) for i._ZN11_FLASH25Q3220SPI_Flash_Erase_ChipEv
    dev_flash.o(.ARM.exidx) refers to dev_flash.o(i._ZN11_FLASH25Q3219SPI_Flash_PowerDownEv) for i._ZN11_FLASH25Q3219SPI_Flash_PowerDownEv
    dev_flash.o(.ARM.exidx) refers to dev_flash.o(i._ZN11_FLASH25Q3216SPI_Flash_WAKEUPEv) for i._ZN11_FLASH25Q3216SPI_Flash_WAKEUPEv
    dev_flash.o(.ARM.exidx) refers to dev_flash.o(i._ZN11_FLASH25Q3216SPI_Flash_Read_fEjPft) for i._ZN11_FLASH25Q3216SPI_Flash_Read_fEjPft
    dev_flash.o(.ARM.exidx) refers to dev_flash.o(i._ZN11_FLASH25Q3217SPI_Flash_Write_fEjPft) for i._ZN11_FLASH25Q3217SPI_Flash_Write_fEjPft
    dev_dma.o(i.DMA2_Stream2_IRQHandler) refers to stm32f4xx_dma.o(i.DMA_GetITStatus) for DMA_GetITStatus
    dev_dma.o(i.DMA2_Stream2_IRQHandler) refers to stm32f4xx_dma.o(i.DMA_ClearFlag) for DMA_ClearFlag
    dev_dma.o(i.DMA2_Stream2_IRQHandler) refers to stm32f4xx_dma.o(i.DMA_ClearITPendingBit) for DMA_ClearITPendingBit
    dev_dma.o(i.DMA2_Stream2_IRQHandler) refers to dev_debus.o(i._ZN6_DEBUS9RemotCallEv) for _DEBUS::RemotCall()
    dev_dma.o(i.DMA2_Stream2_IRQHandler) refers to dev_debus.o(.bss) for Debus
    dev_dma.o(i._ZN4_DMA13ConfigurationEv) refers to stm32f4xx_usart.o(i.USART_DMACmd) for USART_DMACmd
    dev_dma.o(i._ZN4_DMA13ConfigurationEv) refers to stm32f4xx_dma.o(i.DMA_DeInit) for DMA_DeInit
    dev_dma.o(i._ZN4_DMA13ConfigurationEv) refers to stm32f4xx_dma.o(i.DMA_Init) for DMA_Init
    dev_dma.o(i._ZN4_DMA13ConfigurationEv) refers to stm32f4xx_dma.o(i.DMA_ITConfig) for DMA_ITConfig
    dev_dma.o(i._ZN4_DMA13ConfigurationEv) refers to stm32f4xx_dma.o(i.DMA_Cmd) for DMA_Cmd
    dev_dma.o(.ARM.exidx) refers to dev_dma.o(i.DMA2_Stream2_IRQHandler) for i.DMA2_Stream2_IRQHandler
    dev_dma.o(.ARM.exidx) refers to dev_dma.o(i._ZN4_DMA13ConfigurationEv) for i._ZN4_DMA13ConfigurationEv
    dev_us100.o(i._ZN6_US10012SampleTrigerEf) refers to stm32f4xx_usart.o(i.USART_SendData) for USART_SendData
    dev_us100.o(i._ZN6_US1007disCallEv) refers to stm32f4xx_usart.o(i.USART_ReceiveData) for USART_ReceiveData
    dev_us100.o(i._ZN6_US1007disCallEv) refers to f2d.o(.text) for __aeabi_f2d
    dev_us100.o(i._ZN6_US1007disCallEv) refers to ddiv.o(.text) for __aeabi_ddiv
    dev_us100.o(i._ZN6_US1007disCallEv) refers to d2f.o(.text) for __aeabi_d2f
    dev_us100.o(i._ZN6_US1007disCallEv) refers to dev_us100.o(.data) for disTem
    dev_us100.o(.ARM.exidx) refers to dev_us100.o(i._ZN6_US10012SampleTrigerEf) for i._ZN6_US10012SampleTrigerEf
    dev_us100.o(.ARM.exidx) refers to dev_us100.o(i._ZN6_US1007disCallEv) for i._ZN6_US1007disCallEv
    dev_gps.o(i._Z12GPS_AnalysisP8nmea_msgPh) refers to dev_gps.o(i._Z19NMEA_GPGSV_AnalysisP8nmea_msgPh) for NMEA_GPGSV_Analysis(nmea_msg*, unsigned char*)
    dev_gps.o(i._Z12GPS_AnalysisP8nmea_msgPh) refers to dev_gps.o(i._Z19NMEA_GPGGA_AnalysisP8nmea_msgPh) for NMEA_GPGGA_Analysis(nmea_msg*, unsigned char*)
    dev_gps.o(i._Z12GPS_AnalysisP8nmea_msgPh) refers to dev_gps.o(i._Z19NMEA_GPGSA_AnalysisP8nmea_msgPh) for NMEA_GPGSA_Analysis(nmea_msg*, unsigned char*)
    dev_gps.o(i._Z12GPS_AnalysisP8nmea_msgPh) refers to dev_gps.o(i._Z19NMEA_GPRMC_AnalysisP8nmea_msgPh) for NMEA_GPRMC_Analysis(nmea_msg*, unsigned char*)
    dev_gps.o(i._Z12GPS_AnalysisP8nmea_msgPh) refers to dev_gps.o(i._Z19NMEA_GPVTG_AnalysisP8nmea_msgPh) for NMEA_GPVTG_Analysis(nmea_msg*, unsigned char*)
    dev_gps.o(i._Z12NMEA_Str2numPhS_) refers to dev_gps.o(i._Z8NMEA_Powhh) for NMEA_Pow(unsigned char, unsigned char)
    dev_gps.o(i._Z17GPS_DataCacheCallh) refers to dev_gps.o(.data) for GPSUSART_RX_STA
    dev_gps.o(i._Z17GPS_DataCacheCallh) refers to dev_gps.o(.bss) for GPSUSART_RX_BUF
    dev_gps.o(i._Z19NMEA_GPGGA_AnalysisP8nmea_msgPh) refers to strstr.o(.text) for strstr
    dev_gps.o(i._Z19NMEA_GPGGA_AnalysisP8nmea_msgPh) refers to dev_gps.o(i._Z14NMEA_Comma_PosPhh) for NMEA_Comma_Pos(unsigned char*, unsigned char)
    dev_gps.o(i._Z19NMEA_GPGGA_AnalysisP8nmea_msgPh) refers to dev_gps.o(i._Z12NMEA_Str2numPhS_) for NMEA_Str2num(unsigned char*, unsigned char*)
    dev_gps.o(i._Z19NMEA_GPGSA_AnalysisP8nmea_msgPh) refers to strstr.o(.text) for strstr
    dev_gps.o(i._Z19NMEA_GPGSA_AnalysisP8nmea_msgPh) refers to dev_gps.o(i._Z14NMEA_Comma_PosPhh) for NMEA_Comma_Pos(unsigned char*, unsigned char)
    dev_gps.o(i._Z19NMEA_GPGSA_AnalysisP8nmea_msgPh) refers to dev_gps.o(i._Z12NMEA_Str2numPhS_) for NMEA_Str2num(unsigned char*, unsigned char*)
    dev_gps.o(i._Z19NMEA_GPGSV_AnalysisP8nmea_msgPh) refers to strstr.o(.text) for strstr
    dev_gps.o(i._Z19NMEA_GPGSV_AnalysisP8nmea_msgPh) refers to dev_gps.o(i._Z14NMEA_Comma_PosPhh) for NMEA_Comma_Pos(unsigned char*, unsigned char)
    dev_gps.o(i._Z19NMEA_GPGSV_AnalysisP8nmea_msgPh) refers to dev_gps.o(i._Z12NMEA_Str2numPhS_) for NMEA_Str2num(unsigned char*, unsigned char*)
    dev_gps.o(i._Z19NMEA_GPRMC_AnalysisP8nmea_msgPh) refers to strstr.o(.text) for strstr
    dev_gps.o(i._Z19NMEA_GPRMC_AnalysisP8nmea_msgPh) refers to dev_gps.o(i._Z14NMEA_Comma_PosPhh) for NMEA_Comma_Pos(unsigned char*, unsigned char)
    dev_gps.o(i._Z19NMEA_GPRMC_AnalysisP8nmea_msgPh) refers to dev_gps.o(i._Z12NMEA_Str2numPhS_) for NMEA_Str2num(unsigned char*, unsigned char*)
    dev_gps.o(i._Z19NMEA_GPRMC_AnalysisP8nmea_msgPh) refers to dev_gps.o(i._Z8NMEA_Powhh) for NMEA_Pow(unsigned char, unsigned char)
    dev_gps.o(i._Z19NMEA_GPVTG_AnalysisP8nmea_msgPh) refers to strstr.o(.text) for strstr
    dev_gps.o(i._Z19NMEA_GPVTG_AnalysisP8nmea_msgPh) refers to dev_gps.o(i._Z14NMEA_Comma_PosPhh) for NMEA_Comma_Pos(unsigned char*, unsigned char)
    dev_gps.o(i._Z19NMEA_GPVTG_AnalysisP8nmea_msgPh) refers to dev_gps.o(i._Z12NMEA_Str2numPhS_) for NMEA_Str2num(unsigned char*, unsigned char*)
    dev_gps.o(i._Z19NMEA_GPVTG_AnalysisP8nmea_msgPh) refers to dev_gps.o(i._Z8NMEA_Powhh) for NMEA_Pow(unsigned char, unsigned char)
    dev_gps.o(i._Z8GPS_Callv) refers to dev_gps.o(i._Z12GPS_AnalysisP8nmea_msgPh) for GPS_Analysis(nmea_msg*, unsigned char*)
    dev_gps.o(i._Z8GPS_Callv) refers to dev_gps.o(.data) for GPSUSART_RX_STA
    dev_gps.o(i._Z8GPS_Callv) refers to dev_gps.o(.bss) for GPSUSART_RX_BUF
    dev_gps.o(.ARM.exidx) refers to dev_gps.o(i._Z14NMEA_Comma_PosPhh) for i._Z14NMEA_Comma_PosPhh
    dev_gps.o(.ARM.exidx) refers to dev_gps.o(i._Z8NMEA_Powhh) for i._Z8NMEA_Powhh
    dev_gps.o(.ARM.exidx) refers to dev_gps.o(i._Z12NMEA_Str2numPhS_) for i._Z12NMEA_Str2numPhS_
    dev_gps.o(.ARM.exidx) refers to dev_gps.o(i._Z19NMEA_GPGSV_AnalysisP8nmea_msgPh) for i._Z19NMEA_GPGSV_AnalysisP8nmea_msgPh
    dev_gps.o(.ARM.exidx) refers to dev_gps.o(i._Z19NMEA_GPGGA_AnalysisP8nmea_msgPh) for i._Z19NMEA_GPGGA_AnalysisP8nmea_msgPh
    dev_gps.o(.ARM.exidx) refers to dev_gps.o(i._Z19NMEA_GPGSA_AnalysisP8nmea_msgPh) for i._Z19NMEA_GPGSA_AnalysisP8nmea_msgPh
    dev_gps.o(.ARM.exidx) refers to dev_gps.o(i._Z19NMEA_GPRMC_AnalysisP8nmea_msgPh) for i._Z19NMEA_GPRMC_AnalysisP8nmea_msgPh
    dev_gps.o(.ARM.exidx) refers to dev_gps.o(i._Z19NMEA_GPVTG_AnalysisP8nmea_msgPh) for i._Z19NMEA_GPVTG_AnalysisP8nmea_msgPh
    dev_gps.o(.ARM.exidx) refers to dev_gps.o(i._Z12GPS_AnalysisP8nmea_msgPh) for i._Z12GPS_AnalysisP8nmea_msgPh
    dev_gps.o(.ARM.exidx) refers to dev_gps.o(i._Z8GPS_Callv) for i._Z8GPS_Callv
    dev_gps.o(.ARM.exidx) refers to dev_gps.o(i._Z17GPS_DataCacheCallh) for i._Z17GPS_DataCacheCallh
    cal_math.o(i._Z12pythagorous2ff) refers to cal_math.o(i._Z2sqf) for sq(float)
    cal_math.o(i._Z12pythagorous2ff) refers to sqrtf.o(i.__hardfp_sqrtf) for __hardfp_sqrtf
    cal_math.o(i._Z12pythagorous3fff) refers to cal_math.o(i._Z2sqf) for sq(float)
    cal_math.o(i._Z12pythagorous3fff) refers to sqrtf.o(i.__hardfp_sqrtf) for __hardfp_sqrtf
    cal_math.o(i._Z12pythagorous4ffff) refers to cal_math.o(i._Z2sqf) for sq(float)
    cal_math.o(i._Z12pythagorous4ffff) refers to sqrtf.o(i.__hardfp_sqrtf) for __hardfp_sqrtf
    cal_math.o(.ARM.exidx) refers to cal_math.o(i._Z7invSqrtf) for i._Z7invSqrtf
    cal_math.o(.ARM.exidx) refers to cal_math.o(i._Z7radiansf) for i._Z7radiansf
    cal_math.o(.ARM.exidx) refers to cal_math.o(i._Z7degreesf) for i._Z7degreesf
    cal_math.o(.ARM.exidx) refers to cal_math.o(i._Z2sqf) for i._Z2sqf
    cal_math.o(.ARM.exidx) refers to cal_math.o(i._Z12pythagorous2ff) for i._Z12pythagorous2ff
    cal_math.o(.ARM.exidx) refers to cal_math.o(i._Z12pythagorous3fff) for i._Z12pythagorous3fff
    cal_math.o(.ARM.exidx) refers to cal_math.o(i._Z12pythagorous4ffff) for i._Z12pythagorous4ffff
    cal_math.o(.ARM.exidx) refers to cal_math.o(i._Z9deathzoomff) for i._Z9deathzoomff
    cal_math.o(.ARM.exidx) refers to cal_math.o(i._Z14To_180_degreesf) for i._Z14To_180_degreesf
    cal_quaternion.o(i._ZN10Quaternion10from_eulerEfff) refers to cosf.o(i.__hardfp_cosf) for __hardfp_cosf
    cal_quaternion.o(i._ZN10Quaternion10from_eulerEfff) refers to sinf.o(i.__hardfp_sinf) for __hardfp_sinf
    cal_quaternion.o(i._ZN10Quaternion13earth_to_bodyER7Vector3IfE) refers to imu.o(t._ZN7Vector3IfEC1Ev) for Vector3<float>::Vector3()
    cal_quaternion.o(i._ZN10Quaternion13earth_to_bodyER7Vector3IfE) refers to cal_quaternion.o(i._ZN10Quaternion15rotation_matrixER7Matrix3IfE) for Quaternion::rotation_matrix(Matrix3<float>&)
    cal_quaternion.o(i._ZN10Quaternion13earth_to_bodyER7Vector3IfE) refers to cal_matrix3.o(t._ZNK7Matrix3IfEmlERK7Vector3IfE) for Matrix3<float>::operator *(const Vector3<float>&) const
    cal_quaternion.o(i._ZN10Quaternion15Runge_Kutta_1stER7Vector3IfEf) refers to f2d.o(.text) for __aeabi_f2d
    cal_quaternion.o(i._ZN10Quaternion15Runge_Kutta_1stER7Vector3IfEf) refers to dmul.o(.text) for __aeabi_dmul
    cal_quaternion.o(i._ZN10Quaternion15Runge_Kutta_1stER7Vector3IfEf) refers to dadd.o(.text) for __aeabi_dadd
    cal_quaternion.o(i._ZN10Quaternion15Runge_Kutta_1stER7Vector3IfEf) refers to d2f.o(.text) for __aeabi_d2f
    cal_quaternion.o(i._ZN10Quaternion8to_eulerEPfS0_S0_) refers to atan2f.o(i.__hardfp_atan2f) for __hardfp_atan2f
    cal_quaternion.o(i._ZN10Quaternion8to_eulerEPfS0_S0_) refers to cal_math.o(i._Z7degreesf) for degrees(float)
    cal_quaternion.o(i._ZN10Quaternion8to_eulerEPfS0_S0_) refers to asinf.o(i.__hardfp_asinf) for __hardfp_asinf
    cal_quaternion.o(i._ZN10Quaternion9normalizeEv) refers to cal_math.o(i._Z12pythagorous4ffff) for pythagorous4(float, float, float, float)
    cal_quaternion.o(.ARM.exidx) refers to cal_quaternion.o(i._ZN10Quaternion9normalizeEv) for i._ZN10Quaternion9normalizeEv
    cal_quaternion.o(.ARM.exidx) refers to cal_quaternion.o(i._ZN10Quaternion15rotation_matrixER7Matrix3IfE) for i._ZN10Quaternion15rotation_matrixER7Matrix3IfE
    cal_quaternion.o(.ARM.exidx) refers to cal_quaternion.o(i._ZN10Quaternion14vector_gravityER7Vector3IfE) for i._ZN10Quaternion14vector_gravityER7Vector3IfE
    cal_quaternion.o(.ARM.exidx) refers to cal_quaternion.o(i._ZN10Quaternion13earth_to_bodyER7Vector3IfE) for i._ZN10Quaternion13earth_to_bodyER7Vector3IfE
    cal_quaternion.o(.ARM.exidx) refers to cal_quaternion.o(i._ZN10Quaternion15Runge_Kutta_1stER7Vector3IfEf) for i._ZN10Quaternion15Runge_Kutta_1stER7Vector3IfEf
    cal_quaternion.o(.ARM.exidx) refers to cal_quaternion.o(i._ZN10Quaternion10from_eulerEfff) for i._ZN10Quaternion10from_eulerEfff
    cal_quaternion.o(.ARM.exidx) refers to cal_quaternion.o(i._ZN10Quaternion8to_eulerEPfS0_S0_) for i._ZN10Quaternion8to_eulerEPfS0_S0_
    cal_adrc.o(i._Z14ExtendStObsCalR13Extend_St_Obsffff) refers to fal.o(i._Z3falfff) for fal(float, float, float)
    cal_adrc.o(i._Z14ExtendStObsCalR13Extend_St_Obsffff) refers to fhan.o(i._Z4fhanffff) for fhan(float, float, float, float)
    cal_adrc.o(i._Z15ExtendStObsCal2R14Extend_St_Obs2fffffff) refers to fal.o(i._Z3falfff) for fal(float, float, float)
    cal_adrc.o(i._Z15ExtendStObsCal2R14Extend_St_Obs2fffffff) refers to cal_adrc.o(.data) for fa
    cal_adrc.o(i._Z15TrackingDiffCalR13Tracking_Diffff) refers to fhan.o(i._Z4fhanffff) for fhan(float, float, float, float)
    cal_adrc.o(i._Z8dt2dtalpffRfffS_R4lpid) refers to cal_adrc.o(i._Z15TrackingDiffCalR13Tracking_Diffff) for TrackingDiffCal(Tracking_Diff&, float, float)
    cal_adrc.o(i._Z8dt2dtalpffRfffS_R4lpid) refers to cal_adrc.o(.bss) for td_i
    cal_adrc.o(.ARM.exidx) refers to cal_adrc.o(i._Z16TrackingDiffInitR13Tracking_Difff) for i._Z16TrackingDiffInitR13Tracking_Difff
    cal_adrc.o(.ARM.exidx) refers to cal_adrc.o(i._Z15TrackingDiffCalR13Tracking_Diffff) for i._Z15TrackingDiffCalR13Tracking_Diffff
    cal_adrc.o(.ARM.exidx) refers to cal_adrc.o(i._Z15ExtendStObsInitR13Extend_St_Obsff) for i._Z15ExtendStObsInitR13Extend_St_Obsff
    cal_adrc.o(.ARM.exidx) refers to cal_adrc.o(i._Z16ExtendStObsInit2R14Extend_St_Obs2f) for i._Z16ExtendStObsInit2R14Extend_St_Obs2f
    cal_adrc.o(.ARM.exidx) refers to cal_adrc.o(i._Z14ExtendStObsCalR13Extend_St_Obsffff) for i._Z14ExtendStObsCalR13Extend_St_Obsffff
    cal_adrc.o(.ARM.exidx) refers to cal_adrc.o(i._Z8dt2dtalpffRfffS_R4lpid) for i._Z8dt2dtalpffRfffS_R4lpid
    cal_adrc.o(.ARM.exidx) refers to cal_adrc.o(i._Z15ExtendStObsCal2R14Extend_St_Obs2fffffff) for i._Z15ExtendStObsCal2R14Extend_St_Obs2fffffff
    fhan.o(i._Z4fhanffff) refers to sqrtf.o(i.__hardfp_sqrtf) for __hardfp_sqrtf
    fhan.o(.ARM.exidx) refers to fhan.o(i._Z4fhanffff) for i._Z4fhanffff
    fal.o(i._Z11rt_powf_snfff) refers to rt_nonfinite.o(i._Z8rtIsNaNFf) for rtIsNaNF(float)
    fal.o(i._Z11rt_powf_snfff) refers to d2f.o(.text) for __aeabi_d2f
    fal.o(i._Z11rt_powf_snfff) refers to attitudeekf.o(i._ZSt4fabsf) for std::fabs(float)
    fal.o(i._Z11rt_powf_snfff) refers to rt_nonfinite.o(i._Z8rtIsInfFf) for rtIsInfF(float)
    fal.o(i._Z11rt_powf_snfff) refers to sqrtf.o(i.__hardfp_sqrtf) for __hardfp_sqrtf
    fal.o(i._Z11rt_powf_snfff) refers to floorf.o(i.__hardfp_floorf) for __hardfp_floorf
    fal.o(i._Z11rt_powf_snfff) refers to powf.o(i.__hardfp_powf) for __hardfp_powf
    fal.o(i._Z11rt_powf_snfff) refers to rt_nonfinite.o(.data) for rtNaN
    fal.o(i._Z3falfff) refers to attitudeekf.o(i._ZSt4fabsf) for std::fabs(float)
    fal.o(i._Z3falfff) refers to fal.o(i._Z11rt_powf_snfff) for rt_powf_snf(float, float)
    fal.o(.ARM.exidx) refers to fal.o(i._Z11rt_powf_snfff) for i._Z11rt_powf_snfff
    fal.o(.ARM.exidx) refers to fal.o(i._Z3falfff) for i._Z3falfff
    fal_initialize.o(i._Z14fal_initializev) refers to rt_nonfinite.o(i._Z16rt_InitInfAndNaNj) for rt_InitInfAndNaN(unsigned)
    fal_initialize.o(.ARM.exidx) refers to fal_initialize.o(i._Z14fal_initializev) for i._Z14fal_initializev
    fal_terminate.o(.ARM.exidx) refers to fal_terminate.o(i._Z13fal_terminatev) for i._Z13fal_terminatev
    rt_nonfinite.o(i._Z16rt_InitInfAndNaNj) refers to rtgetnan_1.o(i._Z8rtGetNaNv) for rtGetNaN()
    rt_nonfinite.o(i._Z16rt_InitInfAndNaNj) refers to rtgetnan_1.o(i._Z9rtGetNaNFv) for rtGetNaNF()
    rt_nonfinite.o(i._Z16rt_InitInfAndNaNj) refers to rtgetinf_1.o(i._Z8rtGetInfv) for rtGetInf()
    rt_nonfinite.o(i._Z16rt_InitInfAndNaNj) refers to rtgetinf_1.o(i._Z9rtGetInfFv) for rtGetInfF()
    rt_nonfinite.o(i._Z16rt_InitInfAndNaNj) refers to rtgetinf_1.o(i._Z13rtGetMinusInfv) for rtGetMinusInf()
    rt_nonfinite.o(i._Z16rt_InitInfAndNaNj) refers to rtgetinf_1.o(i._Z14rtGetMinusInfFv) for rtGetMinusInfF()
    rt_nonfinite.o(i._Z16rt_InitInfAndNaNj) refers to rt_nonfinite.o(.data) for rtNaN
    rt_nonfinite.o(i._Z7rtIsInfd) refers to cdcmple.o(.text) for __aeabi_cdcmpeq
    rt_nonfinite.o(i._Z7rtIsInfd) refers to rt_nonfinite.o(.data) for rtInf
    rt_nonfinite.o(i._Z7rtIsNaNd) refers to cdcmple.o(.text) for __aeabi_cdcmpeq
    rt_nonfinite.o(i._Z8rtIsInfFf) refers to rt_nonfinite.o(.data) for rtInfF
    rt_nonfinite.o(.ARM.exidx) refers to rt_nonfinite.o(i._Z16rt_InitInfAndNaNj) for i._Z16rt_InitInfAndNaNj
    rt_nonfinite.o(.ARM.exidx) refers to rt_nonfinite.o(i._Z7rtIsInfd) for i._Z7rtIsInfd
    rt_nonfinite.o(.ARM.exidx) refers to rt_nonfinite.o(i._Z8rtIsInfFf) for i._Z8rtIsInfFf
    rt_nonfinite.o(.ARM.exidx) refers to rt_nonfinite.o(i._Z7rtIsNaNd) for i._Z7rtIsNaNd
    rt_nonfinite.o(.ARM.exidx) refers to rt_nonfinite.o(i._Z8rtIsNaNFf) for i._Z8rtIsNaNFf
    rtgetinf_1.o(i._Z13rtGetMinusInfv) refers to rtgetinf_1.o(i._Z14rtGetMinusInfFv) for rtGetMinusInfF()
    rtgetinf_1.o(i._Z13rtGetMinusInfv) refers to f2d.o(.text) for __aeabi_f2d
    rtgetinf_1.o(i._Z8rtGetInfv) refers to rtgetinf_1.o(i._Z9rtGetInfFv) for rtGetInfF()
    rtgetinf_1.o(i._Z8rtGetInfv) refers to f2d.o(.text) for __aeabi_f2d
    rtgetinf_1.o(.ARM.exidx) refers to rtgetinf_1.o(i._Z9rtGetInfFv) for i._Z9rtGetInfFv
    rtgetinf_1.o(.ARM.exidx) refers to rtgetinf_1.o(i._Z8rtGetInfv) for i._Z8rtGetInfv
    rtgetinf_1.o(.ARM.exidx) refers to rtgetinf_1.o(i._Z14rtGetMinusInfFv) for i._Z14rtGetMinusInfFv
    rtgetinf_1.o(.ARM.exidx) refers to rtgetinf_1.o(i._Z13rtGetMinusInfv) for i._Z13rtGetMinusInfv
    rtgetnan_1.o(i._Z8rtGetNaNv) refers to rtgetnan_1.o(i._Z9rtGetNaNFv) for rtGetNaNF()
    rtgetnan_1.o(i._Z8rtGetNaNv) refers to f2d.o(.text) for __aeabi_f2d
    rtgetnan_1.o(.ARM.exidx) refers to rtgetnan_1.o(i._Z9rtGetNaNFv) for i._Z9rtGetNaNFv
    rtgetnan_1.o(.ARM.exidx) refers to rtgetnan_1.o(i._Z8rtGetNaNv) for i._Z8rtGetNaNv
    stm32f4xx_it.o(i.USART2_IRQHandler) refers to dev_usart.o(i._ZN6_USART10Usart2CallEv) for _USART::Usart2Call()
    stm32f4xx_it.o(i.USART2_IRQHandler) refers to dev_usart.o(.data) for Usart
    stm32f4xx_it.o(i.USART3_IRQHandler) refers to dev_usart.o(i._ZN6_USART10Usart3CallEv) for _USART::Usart3Call()
    stm32f4xx_it.o(i.USART3_IRQHandler) refers to dev_usart.o(.data) for Usart
    stm32f4xx_it.o(i.USART6_IRQHandler) refers to dev_usart.o(i._ZN6_USART10Usart6CallEv) for _USART::Usart6Call()
    stm32f4xx_it.o(i.USART6_IRQHandler) refers to dev_usart.o(.data) for Usart
    stm32f4xx_it.o(.ARM.exidx) refers to stm32f4xx_it.o(i.USART2_IRQHandler) for i.USART2_IRQHandler
    stm32f4xx_it.o(.ARM.exidx) refers to stm32f4xx_it.o(i.USART3_IRQHandler) for i.USART3_IRQHandler
    stm32f4xx_it.o(.ARM.exidx) refers to stm32f4xx_it.o(i.USART6_IRQHandler) for i.USART6_IRQHandler
    stm32f4xx_it.o(.ARM.exidx) refers to stm32f4xx_it.o(i.NMI_Handler) for i.NMI_Handler
    stm32f4xx_it.o(.ARM.exidx) refers to stm32f4xx_it.o(i.HardFault_Handler) for i.HardFault_Handler
    stm32f4xx_it.o(.ARM.exidx) refers to stm32f4xx_it.o(i.MemManage_Handler) for i.MemManage_Handler
    stm32f4xx_it.o(.ARM.exidx) refers to stm32f4xx_it.o(i.BusFault_Handler) for i.BusFault_Handler
    stm32f4xx_it.o(.ARM.exidx) refers to stm32f4xx_it.o(i.UsageFault_Handler) for i.UsageFault_Handler
    stm32f4xx_it.o(.ARM.exidx) refers to stm32f4xx_it.o(i.SVC_Handler) for i.SVC_Handler
    stm32f4xx_it.o(.ARM.exidx) refers to stm32f4xx_it.o(i.DebugMon_Handler) for i.DebugMon_Handler
    stm32f4xx_it.o(.ARM.exidx) refers to stm32f4xx_it.o(i.PendSV_Handler) for i.PendSV_Handler
    diskio.o(i.disk_initialize) refers to printfa.o(i.__0printf) for __2printf
    diskio.o(i.disk_initialize) refers to dev_sd.o(i._Z7SD_Initv) for SD_Init()
    diskio.o(i.disk_ioctl) refers to printfa.o(i.__0printf) for __2printf
    diskio.o(i.disk_ioctl) refers to ldiv.o(.text) for __aeabi_ldivmod
    diskio.o(i.disk_ioctl) refers to dev_sd.o(.bss) for SDCardInfo
    diskio.o(i.disk_read) refers to printfa.o(i.__0printf) for __2printf
    diskio.o(i.disk_read) refers to dev_sd.o(i._Z11SD_ReadDiskPhjh) for SD_ReadDisk(unsigned char*, unsigned, unsigned char)
    diskio.o(i.disk_status) refers to dev_sd.o(i._Z7SD_Initv) for SD_Init()
    diskio.o(i.disk_write) refers to dev_sd.o(i._Z12SD_WriteDiskPhjh) for SD_WriteDisk(unsigned char*, unsigned, unsigned char)
    diskio.o(.ARM.exidx) refers to diskio.o(i.disk_status) for i.disk_status
    diskio.o(.ARM.exidx) refers to diskio.o(i.disk_initialize) for i.disk_initialize
    diskio.o(.ARM.exidx) refers to diskio.o(i.disk_read) for i.disk_read
    diskio.o(.ARM.exidx) refers to diskio.o(i.disk_write) for i.disk_write
    diskio.o(.ARM.exidx) refers to diskio.o(i.disk_ioctl) for i.disk_ioctl
    diskio.o(.ARM.exidx) refers to diskio.o(i.get_fattime) for i.get_fattime
    ff.o(i._Z10dir_removeP3DIR) refers to ff.o(i._Z7dir_sdiP3DIRj) for dir_sdi(DIR*, unsigned)
    ff.o(i._Z10dir_removeP3DIR) refers to ff.o(i._Z11move_windowP5FATFSm) for move_window(FATFS*, unsigned long)
    ff.o(i._Z10dir_removeP3DIR) refers to ff.o(i._Z7mem_setPvij) for mem_set(void*, int, unsigned)
    ff.o(i._Z11create_nameP3DIRPPKc) refers to ff.o(i._Z7mem_setPvij) for mem_set(void*, int, unsigned)
    ff.o(i._Z11create_nameP3DIRPPKc) refers to ff.o(i._Z7chk_chrPKci) for chk_chr(const char*, int)
    ff.o(i._Z11find_volumePP5FATFSPPKch) refers to ff.o(i._Z12get_ldnumberPPKc) for get_ldnumber(const char**)
    ff.o(i._Z11find_volumePP5FATFSPPKch) refers to diskio.o(i.disk_status) for disk_status
    ff.o(i._Z11find_volumePP5FATFSPPKch) refers to diskio.o(i.disk_initialize) for disk_initialize
    ff.o(i._Z11find_volumePP5FATFSPPKch) refers to diskio.o(i.disk_ioctl) for disk_ioctl
    ff.o(i._Z11find_volumePP5FATFSPPKch) refers to ff.o(i._Z8check_fsP5FATFSm) for check_fs(FATFS*, unsigned long)
    ff.o(i._Z11find_volumePP5FATFSPPKch) refers to ff.o(i._Z11move_windowP5FATFSm) for move_window(FATFS*, unsigned long)
    ff.o(i._Z11find_volumePP5FATFSPPKch) refers to ff.o(.data) for FatFs
    ff.o(i._Z11follow_pathP3DIRPKc) refers to ff.o(i._Z7dir_sdiP3DIRj) for dir_sdi(DIR*, unsigned)
    ff.o(i._Z11follow_pathP3DIRPKc) refers to ff.o(i._Z11create_nameP3DIRPPKc) for create_name(DIR*, const char**)
    ff.o(i._Z11follow_pathP3DIRPKc) refers to ff.o(i._Z8dir_findP3DIR) for dir_find(DIR*)
    ff.o(i._Z11follow_pathP3DIRPKc) refers to ff.o(i._Z8ld_clustP5FATFSPh) for ld_clust(FATFS*, unsigned char*)
    ff.o(i._Z11move_windowP5FATFSm) refers to ff.o(i._Z11sync_windowP5FATFS) for sync_window(FATFS*)
    ff.o(i._Z11move_windowP5FATFSm) refers to diskio.o(i.disk_read) for disk_read
    ff.o(i._Z11sync_windowP5FATFS) refers to diskio.o(i.disk_write) for disk_write
    ff.o(i._Z12create_chainP5FATFSm) refers to ff.o(i._Z7get_fatP5FATFSm) for get_fat(FATFS*, unsigned long)
    ff.o(i._Z12create_chainP5FATFSm) refers to ff.o(i._Z7put_fatP5FATFSmm) for put_fat(FATFS*, unsigned long, unsigned long)
    ff.o(i._Z12dir_registerP3DIR) refers to ff.o(i._Z9dir_allocP3DIRj) for dir_alloc(DIR*, unsigned)
    ff.o(i._Z12dir_registerP3DIR) refers to ff.o(i._Z11move_windowP5FATFSm) for move_window(FATFS*, unsigned long)
    ff.o(i._Z12dir_registerP3DIR) refers to ff.o(i._Z7mem_setPvij) for mem_set(void*, int, unsigned)
    ff.o(i._Z12dir_registerP3DIR) refers to ff.o(i._Z7mem_cpyPvPKvj) for mem_cpy(void*, const void*, unsigned)
    ff.o(i._Z12remove_chainP5FATFSm) refers to ff.o(i._Z7get_fatP5FATFSm) for get_fat(FATFS*, unsigned long)
    ff.o(i._Z12remove_chainP5FATFSm) refers to ff.o(i._Z7put_fatP5FATFSmm) for put_fat(FATFS*, unsigned long, unsigned long)
    ff.o(i._Z7dir_sdiP3DIRj) refers to ff.o(i._Z7get_fatP5FATFSm) for get_fat(FATFS*, unsigned long)
    ff.o(i._Z7dir_sdiP3DIRj) refers to ff.o(i._Z10clust2sectP5FATFSm) for clust2sect(FATFS*, unsigned long)
    ff.o(i._Z7get_fatP5FATFSm) refers to ff.o(i._Z11move_windowP5FATFSm) for move_window(FATFS*, unsigned long)
    ff.o(i._Z7put_fatP5FATFSmm) refers to ff.o(i._Z11move_windowP5FATFSm) for move_window(FATFS*, unsigned long)
    ff.o(i._Z7sync_fsP5FATFS) refers to ff.o(i._Z11sync_windowP5FATFS) for sync_window(FATFS*)
    ff.o(i._Z7sync_fsP5FATFS) refers to ff.o(i._Z7mem_setPvij) for mem_set(void*, int, unsigned)
    ff.o(i._Z7sync_fsP5FATFS) refers to diskio.o(i.disk_write) for disk_write
    ff.o(i._Z7sync_fsP5FATFS) refers to diskio.o(i.disk_ioctl) for disk_ioctl
    ff.o(i._Z8check_fsP5FATFSm) refers to ff.o(i._Z11move_windowP5FATFSm) for move_window(FATFS*, unsigned long)
    ff.o(i._Z8dir_findP3DIR) refers to ff.o(i._Z7dir_sdiP3DIRj) for dir_sdi(DIR*, unsigned)
    ff.o(i._Z8dir_findP3DIR) refers to ff.o(i._Z11move_windowP5FATFSm) for move_window(FATFS*, unsigned long)
    ff.o(i._Z8dir_findP3DIR) refers to ff.o(i._Z7mem_cmpPKvS0_j) for mem_cmp(const void*, const void*, unsigned)
    ff.o(i._Z8dir_findP3DIR) refers to ff.o(i._Z8dir_nextP3DIRi) for dir_next(DIR*, int)
    ff.o(i._Z8dir_nextP3DIRi) refers to ff.o(i._Z7get_fatP5FATFSm) for get_fat(FATFS*, unsigned long)
    ff.o(i._Z8dir_nextP3DIRi) refers to ff.o(i._Z12create_chainP5FATFSm) for create_chain(FATFS*, unsigned long)
    ff.o(i._Z8dir_nextP3DIRi) refers to ff.o(i._Z11sync_windowP5FATFS) for sync_window(FATFS*)
    ff.o(i._Z8dir_nextP3DIRi) refers to ff.o(i._Z7mem_setPvij) for mem_set(void*, int, unsigned)
    ff.o(i._Z8dir_nextP3DIRi) refers to ff.o(i._Z10clust2sectP5FATFSm) for clust2sect(FATFS*, unsigned long)
    ff.o(i._Z8dir_readP3DIRi) refers to ff.o(i._Z11move_windowP5FATFSm) for move_window(FATFS*, unsigned long)
    ff.o(i._Z8dir_readP3DIRi) refers to ff.o(i._Z8dir_nextP3DIRi) for dir_next(DIR*, int)
    ff.o(i._Z8putc_bfdP7putbuffc) refers to ff.o(i.f_write) for f_write
    ff.o(i._Z8validatePv) refers to diskio.o(i.disk_status) for disk_status
    ff.o(i._Z9dir_allocP3DIRj) refers to ff.o(i._Z7dir_sdiP3DIRj) for dir_sdi(DIR*, unsigned)
    ff.o(i._Z9dir_allocP3DIRj) refers to ff.o(i._Z11move_windowP5FATFSm) for move_window(FATFS*, unsigned long)
    ff.o(i._Z9dir_allocP3DIRj) refers to ff.o(i._Z8dir_nextP3DIRi) for dir_next(DIR*, int)
    ff.o(i.f_chmod) refers to ff.o(i._Z11find_volumePP5FATFSPPKch) for find_volume(FATFS**, const char**, unsigned char)
    ff.o(i.f_chmod) refers to ff.o(i._Z11follow_pathP3DIRPKc) for follow_path(DIR*, const char*)
    ff.o(i.f_chmod) refers to ff.o(i._Z7sync_fsP5FATFS) for sync_fs(FATFS*)
    ff.o(i.f_close) refers to ff.o(i.f_sync) for f_sync
    ff.o(i.f_close) refers to ff.o(i._Z8validatePv) for validate(void*)
    ff.o(i.f_closedir) refers to ff.o(i._Z8validatePv) for validate(void*)
    ff.o(i.f_getfree) refers to ff.o(i._Z11find_volumePP5FATFSPPKch) for find_volume(FATFS**, const char**, unsigned char)
    ff.o(i.f_getfree) refers to ff.o(i._Z7get_fatP5FATFSm) for get_fat(FATFS*, unsigned long)
    ff.o(i.f_getfree) refers to ff.o(i._Z11move_windowP5FATFSm) for move_window(FATFS*, unsigned long)
    ff.o(i.f_gets) refers to ff.o(i.f_read) for f_read
    ff.o(i.f_lseek) refers to ff.o(i._Z8validatePv) for validate(void*)
    ff.o(i.f_lseek) refers to ff.o(i._Z7get_fatP5FATFSm) for get_fat(FATFS*, unsigned long)
    ff.o(i.f_lseek) refers to ff.o(i._Z10clmt_clustP3FILm) for clmt_clust(FIL*, unsigned long)
    ff.o(i.f_lseek) refers to ff.o(i._Z10clust2sectP5FATFSm) for clust2sect(FATFS*, unsigned long)
    ff.o(i.f_lseek) refers to diskio.o(i.disk_write) for disk_write
    ff.o(i.f_lseek) refers to diskio.o(i.disk_read) for disk_read
    ff.o(i.f_lseek) refers to ff.o(i._Z12create_chainP5FATFSm) for create_chain(FATFS*, unsigned long)
    ff.o(i.f_mkdir) refers to diskio.o(i.get_fattime) for get_fattime
    ff.o(i.f_mkdir) refers to ff.o(i._Z11find_volumePP5FATFSPPKch) for find_volume(FATFS**, const char**, unsigned char)
    ff.o(i.f_mkdir) refers to ff.o(i._Z11follow_pathP3DIRPKc) for follow_path(DIR*, const char*)
    ff.o(i.f_mkdir) refers to ff.o(i._Z12create_chainP5FATFSm) for create_chain(FATFS*, unsigned long)
    ff.o(i.f_mkdir) refers to ff.o(i._Z11sync_windowP5FATFS) for sync_window(FATFS*)
    ff.o(i.f_mkdir) refers to ff.o(i._Z10clust2sectP5FATFSm) for clust2sect(FATFS*, unsigned long)
    ff.o(i.f_mkdir) refers to ff.o(i._Z7mem_setPvij) for mem_set(void*, int, unsigned)
    ff.o(i.f_mkdir) refers to ff.o(i._Z8st_clustPhm) for st_clust(unsigned char*, unsigned long)
    ff.o(i.f_mkdir) refers to ff.o(i._Z7mem_cpyPvPKvj) for mem_cpy(void*, const void*, unsigned)
    ff.o(i.f_mkdir) refers to ff.o(i._Z12dir_registerP3DIR) for dir_register(DIR*)
    ff.o(i.f_mkdir) refers to ff.o(i._Z12remove_chainP5FATFSm) for remove_chain(FATFS*, unsigned long)
    ff.o(i.f_mkdir) refers to ff.o(i._Z7sync_fsP5FATFS) for sync_fs(FATFS*)
    ff.o(i.f_mkfs) refers to ff.o(i._Z12get_ldnumberPPKc) for get_ldnumber(const char**)
    ff.o(i.f_mkfs) refers to diskio.o(i.disk_initialize) for disk_initialize
    ff.o(i.f_mkfs) refers to diskio.o(i.disk_ioctl) for disk_ioctl
    ff.o(i.f_mkfs) refers to ff.o(i._Z7mem_setPvij) for mem_set(void*, int, unsigned)
    ff.o(i.f_mkfs) refers to diskio.o(i.disk_write) for disk_write
    ff.o(i.f_mkfs) refers to ff.o(i._Z7mem_cpyPvPKvj) for mem_cpy(void*, const void*, unsigned)
    ff.o(i.f_mkfs) refers to diskio.o(i.get_fattime) for get_fattime
    ff.o(i.f_mkfs) refers to ff.o(.data) for FatFs
    ff.o(i.f_mkfs) refers to ff.o(.constdata) for vst
    ff.o(i.f_mount) refers to ff.o(i._Z12get_ldnumberPPKc) for get_ldnumber(const char**)
    ff.o(i.f_mount) refers to ff.o(i._Z11find_volumePP5FATFSPPKch) for find_volume(FATFS**, const char**, unsigned char)
    ff.o(i.f_mount) refers to ff.o(.data) for FatFs
    ff.o(i.f_open) refers to ff.o(i._Z11find_volumePP5FATFSPPKch) for find_volume(FATFS**, const char**, unsigned char)
    ff.o(i.f_open) refers to ff.o(i._Z11follow_pathP3DIRPKc) for follow_path(DIR*, const char*)
    ff.o(i.f_open) refers to ff.o(i._Z12dir_registerP3DIR) for dir_register(DIR*)
    ff.o(i.f_open) refers to diskio.o(i.get_fattime) for get_fattime
    ff.o(i.f_open) refers to ff.o(i._Z8ld_clustP5FATFSPh) for ld_clust(FATFS*, unsigned char*)
    ff.o(i.f_open) refers to ff.o(i._Z8st_clustPhm) for st_clust(unsigned char*, unsigned long)
    ff.o(i.f_open) refers to ff.o(i._Z12remove_chainP5FATFSm) for remove_chain(FATFS*, unsigned long)
    ff.o(i.f_open) refers to ff.o(i._Z11move_windowP5FATFSm) for move_window(FATFS*, unsigned long)
    ff.o(i.f_opendir) refers to ff.o(i._Z11find_volumePP5FATFSPPKch) for find_volume(FATFS**, const char**, unsigned char)
    ff.o(i.f_opendir) refers to ff.o(i._Z11follow_pathP3DIRPKc) for follow_path(DIR*, const char*)
    ff.o(i.f_opendir) refers to ff.o(i._Z8ld_clustP5FATFSPh) for ld_clust(FATFS*, unsigned char*)
    ff.o(i.f_opendir) refers to ff.o(i._Z7dir_sdiP3DIRj) for dir_sdi(DIR*, unsigned)
    ff.o(i.f_printf) refers to ff.o(i._Z8putc_bfdP7putbuffc) for putc_bfd(putbuff*, char)
    ff.o(i.f_printf) refers to ff.o(i.f_write) for f_write
    ff.o(i.f_putc) refers to ff.o(i._Z8putc_bfdP7putbuffc) for putc_bfd(putbuff*, char)
    ff.o(i.f_putc) refers to ff.o(i.f_write) for f_write
    ff.o(i.f_puts) refers to ff.o(i._Z8putc_bfdP7putbuffc) for putc_bfd(putbuff*, char)
    ff.o(i.f_puts) refers to ff.o(i.f_write) for f_write
    ff.o(i.f_read) refers to ff.o(i._Z8validatePv) for validate(void*)
    ff.o(i.f_read) refers to ff.o(i._Z10clmt_clustP3FILm) for clmt_clust(FIL*, unsigned long)
    ff.o(i.f_read) refers to ff.o(i._Z7get_fatP5FATFSm) for get_fat(FATFS*, unsigned long)
    ff.o(i.f_read) refers to ff.o(i._Z10clust2sectP5FATFSm) for clust2sect(FATFS*, unsigned long)
    ff.o(i.f_read) refers to diskio.o(i.disk_read) for disk_read
    ff.o(i.f_read) refers to ff.o(i._Z7mem_cpyPvPKvj) for mem_cpy(void*, const void*, unsigned)
    ff.o(i.f_read) refers to diskio.o(i.disk_write) for disk_write
    ff.o(i.f_readdir) refers to ff.o(i._Z8validatePv) for validate(void*)
    ff.o(i.f_readdir) refers to ff.o(i._Z7dir_sdiP3DIRj) for dir_sdi(DIR*, unsigned)
    ff.o(i.f_readdir) refers to ff.o(i._Z8dir_readP3DIRi) for dir_read(DIR*, int)
    ff.o(i.f_readdir) refers to ff.o(i._Z12get_fileinfoP3DIRP7FILINFO) for get_fileinfo(DIR*, FILINFO*)
    ff.o(i.f_readdir) refers to ff.o(i._Z8dir_nextP3DIRi) for dir_next(DIR*, int)
    ff.o(i.f_rename) refers to ff.o(i._Z11find_volumePP5FATFSPPKch) for find_volume(FATFS**, const char**, unsigned char)
    ff.o(i.f_rename) refers to ff.o(i._Z11follow_pathP3DIRPKc) for follow_path(DIR*, const char*)
    ff.o(i.f_rename) refers to ff.o(i._Z7mem_cpyPvPKvj) for mem_cpy(void*, const void*, unsigned)
    ff.o(i.f_rename) refers to ff.o(i._Z12get_ldnumberPPKc) for get_ldnumber(const char**)
    ff.o(i.f_rename) refers to ff.o(i._Z12dir_registerP3DIR) for dir_register(DIR*)
    ff.o(i.f_rename) refers to ff.o(i._Z8ld_clustP5FATFSPh) for ld_clust(FATFS*, unsigned char*)
    ff.o(i.f_rename) refers to ff.o(i._Z10clust2sectP5FATFSm) for clust2sect(FATFS*, unsigned long)
    ff.o(i.f_rename) refers to ff.o(i._Z11move_windowP5FATFSm) for move_window(FATFS*, unsigned long)
    ff.o(i.f_rename) refers to ff.o(i._Z8st_clustPhm) for st_clust(unsigned char*, unsigned long)
    ff.o(i.f_rename) refers to ff.o(i._Z10dir_removeP3DIR) for dir_remove(DIR*)
    ff.o(i.f_rename) refers to ff.o(i._Z7sync_fsP5FATFS) for sync_fs(FATFS*)
    ff.o(i.f_stat) refers to ff.o(i._Z11find_volumePP5FATFSPPKch) for find_volume(FATFS**, const char**, unsigned char)
    ff.o(i.f_stat) refers to ff.o(i._Z11follow_pathP3DIRPKc) for follow_path(DIR*, const char*)
    ff.o(i.f_stat) refers to ff.o(i._Z12get_fileinfoP3DIRP7FILINFO) for get_fileinfo(DIR*, FILINFO*)
    ff.o(i.f_sync) refers to ff.o(i._Z8validatePv) for validate(void*)
    ff.o(i.f_sync) refers to diskio.o(i.disk_write) for disk_write
    ff.o(i.f_sync) refers to ff.o(i._Z11move_windowP5FATFSm) for move_window(FATFS*, unsigned long)
    ff.o(i.f_sync) refers to ff.o(i._Z8st_clustPhm) for st_clust(unsigned char*, unsigned long)
    ff.o(i.f_sync) refers to diskio.o(i.get_fattime) for get_fattime
    ff.o(i.f_sync) refers to ff.o(i._Z7sync_fsP5FATFS) for sync_fs(FATFS*)
    ff.o(i.f_truncate) refers to ff.o(i._Z8validatePv) for validate(void*)
    ff.o(i.f_truncate) refers to ff.o(i._Z12remove_chainP5FATFSm) for remove_chain(FATFS*, unsigned long)
    ff.o(i.f_truncate) refers to ff.o(i._Z7get_fatP5FATFSm) for get_fat(FATFS*, unsigned long)
    ff.o(i.f_truncate) refers to ff.o(i._Z7put_fatP5FATFSmm) for put_fat(FATFS*, unsigned long, unsigned long)
    ff.o(i.f_truncate) refers to diskio.o(i.disk_write) for disk_write
    ff.o(i.f_unlink) refers to ff.o(i._Z11find_volumePP5FATFSPPKch) for find_volume(FATFS**, const char**, unsigned char)
    ff.o(i.f_unlink) refers to ff.o(i._Z11follow_pathP3DIRPKc) for follow_path(DIR*, const char*)
    ff.o(i.f_unlink) refers to ff.o(i._Z8ld_clustP5FATFSPh) for ld_clust(FATFS*, unsigned char*)
    ff.o(i.f_unlink) refers to ff.o(i._Z7mem_cpyPvPKvj) for mem_cpy(void*, const void*, unsigned)
    ff.o(i.f_unlink) refers to ff.o(i._Z7dir_sdiP3DIRj) for dir_sdi(DIR*, unsigned)
    ff.o(i.f_unlink) refers to ff.o(i._Z8dir_readP3DIRi) for dir_read(DIR*, int)
    ff.o(i.f_unlink) refers to ff.o(i._Z10dir_removeP3DIR) for dir_remove(DIR*)
    ff.o(i.f_unlink) refers to ff.o(i._Z12remove_chainP5FATFSm) for remove_chain(FATFS*, unsigned long)
    ff.o(i.f_unlink) refers to ff.o(i._Z7sync_fsP5FATFS) for sync_fs(FATFS*)
    ff.o(i.f_utime) refers to ff.o(i._Z11find_volumePP5FATFSPPKch) for find_volume(FATFS**, const char**, unsigned char)
    ff.o(i.f_utime) refers to ff.o(i._Z11follow_pathP3DIRPKc) for follow_path(DIR*, const char*)
    ff.o(i.f_utime) refers to ff.o(i._Z7sync_fsP5FATFS) for sync_fs(FATFS*)
    ff.o(i.f_write) refers to ff.o(i._Z8validatePv) for validate(void*)
    ff.o(i.f_write) refers to ff.o(i._Z12create_chainP5FATFSm) for create_chain(FATFS*, unsigned long)
    ff.o(i.f_write) refers to ff.o(i._Z10clmt_clustP3FILm) for clmt_clust(FIL*, unsigned long)
    ff.o(i.f_write) refers to diskio.o(i.disk_write) for disk_write
    ff.o(i.f_write) refers to ff.o(i._Z10clust2sectP5FATFSm) for clust2sect(FATFS*, unsigned long)
    ff.o(i.f_write) refers to ff.o(i._Z7mem_cpyPvPKvj) for mem_cpy(void*, const void*, unsigned)
    ff.o(i.f_write) refers to diskio.o(i.disk_read) for disk_read
    ff.o(.ARM.exidx) refers to ff.o(i._Z7mem_cpyPvPKvj) for i._Z7mem_cpyPvPKvj
    ff.o(.ARM.exidx) refers to ff.o(i._Z7mem_setPvij) for i._Z7mem_setPvij
    ff.o(.ARM.exidx) refers to ff.o(i._Z7mem_cmpPKvS0_j) for i._Z7mem_cmpPKvS0_j
    ff.o(.ARM.exidx) refers to ff.o(i._Z7chk_chrPKci) for i._Z7chk_chrPKci
    ff.o(.ARM.exidx) refers to ff.o(i._Z11sync_windowP5FATFS) for i._Z11sync_windowP5FATFS
    ff.o(.ARM.exidx) refers to ff.o(i._Z11move_windowP5FATFSm) for i._Z11move_windowP5FATFSm
    ff.o(.ARM.exidx) refers to ff.o(i._Z7sync_fsP5FATFS) for i._Z7sync_fsP5FATFS
    ff.o(.ARM.exidx) refers to ff.o(i._Z10clust2sectP5FATFSm) for i._Z10clust2sectP5FATFSm
    ff.o(.ARM.exidx) refers to ff.o(i._Z7get_fatP5FATFSm) for i._Z7get_fatP5FATFSm
    ff.o(.ARM.exidx) refers to ff.o(i._Z7put_fatP5FATFSmm) for i._Z7put_fatP5FATFSmm
    ff.o(.ARM.exidx) refers to ff.o(i._Z12remove_chainP5FATFSm) for i._Z12remove_chainP5FATFSm
    ff.o(.ARM.exidx) refers to ff.o(i._Z12create_chainP5FATFSm) for i._Z12create_chainP5FATFSm
    ff.o(.ARM.exidx) refers to ff.o(i._Z10clmt_clustP3FILm) for i._Z10clmt_clustP3FILm
    ff.o(.ARM.exidx) refers to ff.o(i._Z7dir_sdiP3DIRj) for i._Z7dir_sdiP3DIRj
    ff.o(.ARM.exidx) refers to ff.o(i._Z8dir_nextP3DIRi) for i._Z8dir_nextP3DIRi
    ff.o(.ARM.exidx) refers to ff.o(i._Z9dir_allocP3DIRj) for i._Z9dir_allocP3DIRj
    ff.o(.ARM.exidx) refers to ff.o(i._Z8ld_clustP5FATFSPh) for i._Z8ld_clustP5FATFSPh
    ff.o(.ARM.exidx) refers to ff.o(i._Z8st_clustPhm) for i._Z8st_clustPhm
    ff.o(.ARM.exidx) refers to ff.o(i._Z8dir_findP3DIR) for i._Z8dir_findP3DIR
    ff.o(.ARM.exidx) refers to ff.o(i._Z8dir_readP3DIRi) for i._Z8dir_readP3DIRi
    ff.o(.ARM.exidx) refers to ff.o(i._Z12dir_registerP3DIR) for i._Z12dir_registerP3DIR
    ff.o(.ARM.exidx) refers to ff.o(i._Z10dir_removeP3DIR) for i._Z10dir_removeP3DIR
    ff.o(.ARM.exidx) refers to ff.o(i._Z12get_fileinfoP3DIRP7FILINFO) for i._Z12get_fileinfoP3DIRP7FILINFO
    ff.o(.ARM.exidx) refers to ff.o(i._Z11create_nameP3DIRPPKc) for i._Z11create_nameP3DIRPPKc
    ff.o(.ARM.exidx) refers to ff.o(i._Z11follow_pathP3DIRPKc) for i._Z11follow_pathP3DIRPKc
    ff.o(.ARM.exidx) refers to ff.o(i._Z12get_ldnumberPPKc) for i._Z12get_ldnumberPPKc
    ff.o(.ARM.exidx) refers to ff.o(i._Z8check_fsP5FATFSm) for i._Z8check_fsP5FATFSm
    ff.o(.ARM.exidx) refers to ff.o(i._Z11find_volumePP5FATFSPPKch) for i._Z11find_volumePP5FATFSPPKch
    ff.o(.ARM.exidx) refers to ff.o(i._Z8validatePv) for i._Z8validatePv
    ff.o(.ARM.exidx) refers to ff.o(i.f_mount) for i.f_mount
    ff.o(.ARM.exidx) refers to ff.o(i.f_open) for i.f_open
    ff.o(.ARM.exidx) refers to ff.o(i.f_read) for i.f_read
    ff.o(.ARM.exidx) refers to ff.o(i.f_write) for i.f_write
    ff.o(.ARM.exidx) refers to ff.o(i.f_sync) for i.f_sync
    ff.o(.ARM.exidx) refers to ff.o(i.f_close) for i.f_close
    ff.o(.ARM.exidx) refers to ff.o(i.f_lseek) for i.f_lseek
    ff.o(.ARM.exidx) refers to ff.o(i.f_opendir) for i.f_opendir
    ff.o(.ARM.exidx) refers to ff.o(i.f_closedir) for i.f_closedir
    ff.o(.ARM.exidx) refers to ff.o(i.f_readdir) for i.f_readdir
    ff.o(.ARM.exidx) refers to ff.o(i.f_stat) for i.f_stat
    ff.o(.ARM.exidx) refers to ff.o(i.f_getfree) for i.f_getfree
    ff.o(.ARM.exidx) refers to ff.o(i.f_truncate) for i.f_truncate
    ff.o(.ARM.exidx) refers to ff.o(i.f_unlink) for i.f_unlink
    ff.o(.ARM.exidx) refers to ff.o(i.f_mkdir) for i.f_mkdir
    ff.o(.ARM.exidx) refers to ff.o(i.f_chmod) for i.f_chmod
    ff.o(.ARM.exidx) refers to ff.o(i.f_rename) for i.f_rename
    ff.o(.ARM.exidx) refers to ff.o(i.f_utime) for i.f_utime
    ff.o(.ARM.exidx) refers to ff.o(i.f_mkfs) for i.f_mkfs
    ff.o(.ARM.exidx) refers to ff.o(i.f_gets) for i.f_gets
    ff.o(.ARM.exidx) refers to ff.o(i._Z8putc_bfdP7putbuffc) for i._Z8putc_bfdP7putbuffc
    ff.o(.ARM.exidx) refers to ff.o(i.f_putc) for i.f_putc
    ff.o(.ARM.exidx) refers to ff.o(i.f_puts) for i.f_puts
    ff.o(.ARM.exidx) refers to ff.o(i.f_printf) for i.f_printf
    control_v.o(i._ZN8CONTROL_1VEv) refers to cal_math.o(i._Z9deathzoomff) for deathzoom(float, float)
    control_v.o(i._ZN8CONTROL_1VEv) refers to control_v.o(.bss) for vzpid
    control_v.o(i._ZN8CONTROL_1VEv) refers to uav_rc.o(.bss) for Rc
    control_v.o(i._ZN8CONTROL_1VEv) refers to nav_speed.o(.bss) for nav_v
    control_v.o(i._ZN8CONTROL_1VEv) refers to control_v.o(.data) for leo
    control_v.o(i._ZN8CONTROL_1VEv) refers to imu.o(.bss) for imu
    control_v.o(.ARM.exidx) refers to control_v.o(i._ZN8CONTROL_1VEv) for i._ZN8CONTROL_1VEv
    startup_stm32f40_41xxx.o(RESET) refers to startup_stm32f40_41xxx.o(STACK) for __initial_sp
    startup_stm32f40_41xxx.o(RESET) refers to startup_stm32f40_41xxx.o(.text) for Reset_Handler
    startup_stm32f40_41xxx.o(RESET) refers to stm32f4xx_it.o(i.NMI_Handler) for NMI_Handler
    startup_stm32f40_41xxx.o(RESET) refers to stm32f4xx_it.o(i.HardFault_Handler) for HardFault_Handler
    startup_stm32f40_41xxx.o(RESET) refers to stm32f4xx_it.o(i.MemManage_Handler) for MemManage_Handler
    startup_stm32f40_41xxx.o(RESET) refers to stm32f4xx_it.o(i.BusFault_Handler) for BusFault_Handler
    startup_stm32f40_41xxx.o(RESET) refers to stm32f4xx_it.o(i.UsageFault_Handler) for UsageFault_Handler
    startup_stm32f40_41xxx.o(RESET) refers to stm32f4xx_it.o(i.SVC_Handler) for SVC_Handler
    startup_stm32f40_41xxx.o(RESET) refers to stm32f4xx_it.o(i.DebugMon_Handler) for DebugMon_Handler
    startup_stm32f40_41xxx.o(RESET) refers to stm32f4xx_it.o(i.PendSV_Handler) for PendSV_Handler
    startup_stm32f40_41xxx.o(RESET) refers to dev_clock.o(i.SysTick_Handler) for SysTick_Handler
    startup_stm32f40_41xxx.o(RESET) refers to stm32f4xx_it.o(i.USART2_IRQHandler) for USART2_IRQHandler
    startup_stm32f40_41xxx.o(RESET) refers to stm32f4xx_it.o(i.USART3_IRQHandler) for USART3_IRQHandler
    startup_stm32f40_41xxx.o(RESET) refers to dev_sd.o(i.SDIO_IRQHandler) for SDIO_IRQHandler
    startup_stm32f40_41xxx.o(RESET) refers to dev_dma.o(i.DMA2_Stream2_IRQHandler) for DMA2_Stream2_IRQHandler
    startup_stm32f40_41xxx.o(RESET) refers to stm32f4xx_it.o(i.USART6_IRQHandler) for USART6_IRQHandler
    startup_stm32f40_41xxx.o(.text) refers to system_stm32f4xx.o(i.SystemInit) for SystemInit
    startup_stm32f40_41xxx.o(.text) refers to entry.o(.ARM.Collect$$$$00000000) for __main
    system_stm32f4xx.o(i.SystemCoreClockUpdate) refers to system_stm32f4xx.o(.data) for SystemCoreClock
    system_stm32f4xx.o(i.SystemInit) refers to system_stm32f4xx.o(i._Z11SetSysClockv) for SetSysClock()
    system_stm32f4xx.o(.ARM.exidx) refers to system_stm32f4xx.o(i._Z11SetSysClockv) for i._Z11SetSysClockv
    system_stm32f4xx.o(.ARM.exidx) refers to system_stm32f4xx.o(i.SystemInit) for i.SystemInit
    system_stm32f4xx.o(.ARM.exidx) refers to system_stm32f4xx.o(i.SystemCoreClockUpdate) for i.SystemCoreClockUpdate
    stm32f4xx_gpio.o(i.GPIO_DeInit) refers to stm32f4xx_rcc.o(i.RCC_AHB1PeriphResetCmd) for RCC_AHB1PeriphResetCmd
    stm32f4xx_rcc.o(i.RCC_GetClocksFreq) refers to stm32f4xx_rcc.o(.data) for APBAHBPrescTable
    stm32f4xx_rcc.o(i.RCC_WaitForHSEStartUp) refers to stm32f4xx_rcc.o(i.RCC_GetFlagStatus) for RCC_GetFlagStatus
    stm32f4xx_sdio.o(i.SDIO_DeInit) refers to stm32f4xx_rcc.o(i.RCC_APB2PeriphResetCmd) for RCC_APB2PeriphResetCmd
    stm32f4xx_spi.o(i.SPI_I2S_DeInit) refers to stm32f4xx_rcc.o(i.RCC_APB2PeriphResetCmd) for RCC_APB2PeriphResetCmd
    stm32f4xx_spi.o(i.SPI_I2S_DeInit) refers to stm32f4xx_rcc.o(i.RCC_APB1PeriphResetCmd) for RCC_APB1PeriphResetCmd
    stm32f4xx_tim.o(i.TIM_DeInit) refers to stm32f4xx_rcc.o(i.RCC_APB2PeriphResetCmd) for RCC_APB2PeriphResetCmd
    stm32f4xx_tim.o(i.TIM_DeInit) refers to stm32f4xx_rcc.o(i.RCC_APB1PeriphResetCmd) for RCC_APB1PeriphResetCmd
    stm32f4xx_tim.o(i.TIM_ETRClockMode1Config) refers to stm32f4xx_tim.o(i.TIM_ETRConfig) for TIM_ETRConfig
    stm32f4xx_tim.o(i.TIM_ETRClockMode2Config) refers to stm32f4xx_tim.o(i.TIM_ETRConfig) for TIM_ETRConfig
    stm32f4xx_tim.o(i.TIM_ICInit) refers to stm32f4xx_tim.o(i.TI1_Config) for TI1_Config
    stm32f4xx_tim.o(i.TIM_ICInit) refers to stm32f4xx_tim.o(i.TIM_SetIC1Prescaler) for TIM_SetIC1Prescaler
    stm32f4xx_tim.o(i.TIM_ICInit) refers to stm32f4xx_tim.o(i.TI2_Config) for TI2_Config
    stm32f4xx_tim.o(i.TIM_ICInit) refers to stm32f4xx_tim.o(i.TIM_SetIC2Prescaler) for TIM_SetIC2Prescaler
    stm32f4xx_tim.o(i.TIM_ICInit) refers to stm32f4xx_tim.o(i.TI3_Config) for TI3_Config
    stm32f4xx_tim.o(i.TIM_ICInit) refers to stm32f4xx_tim.o(i.TIM_SetIC3Prescaler) for TIM_SetIC3Prescaler
    stm32f4xx_tim.o(i.TIM_ICInit) refers to stm32f4xx_tim.o(i.TI4_Config) for TI4_Config
    stm32f4xx_tim.o(i.TIM_ICInit) refers to stm32f4xx_tim.o(i.TIM_SetIC4Prescaler) for TIM_SetIC4Prescaler
    stm32f4xx_tim.o(i.TIM_ITRxExternalClockConfig) refers to stm32f4xx_tim.o(i.TIM_SelectInputTrigger) for TIM_SelectInputTrigger
    stm32f4xx_tim.o(i.TIM_PWMIConfig) refers to stm32f4xx_tim.o(i.TI1_Config) for TI1_Config
    stm32f4xx_tim.o(i.TIM_PWMIConfig) refers to stm32f4xx_tim.o(i.TIM_SetIC1Prescaler) for TIM_SetIC1Prescaler
    stm32f4xx_tim.o(i.TIM_PWMIConfig) refers to stm32f4xx_tim.o(i.TI2_Config) for TI2_Config
    stm32f4xx_tim.o(i.TIM_PWMIConfig) refers to stm32f4xx_tim.o(i.TIM_SetIC2Prescaler) for TIM_SetIC2Prescaler
    stm32f4xx_tim.o(i.TIM_TIxExternalClockConfig) refers to stm32f4xx_tim.o(i.TI2_Config) for TI2_Config
    stm32f4xx_tim.o(i.TIM_TIxExternalClockConfig) refers to stm32f4xx_tim.o(i.TI1_Config) for TI1_Config
    stm32f4xx_tim.o(i.TIM_TIxExternalClockConfig) refers to stm32f4xx_tim.o(i.TIM_SelectInputTrigger) for TIM_SelectInputTrigger
    stm32f4xx_usart.o(i.USART_DeInit) refers to stm32f4xx_rcc.o(i.RCC_APB2PeriphResetCmd) for RCC_APB2PeriphResetCmd
    stm32f4xx_usart.o(i.USART_DeInit) refers to stm32f4xx_rcc.o(i.RCC_APB1PeriphResetCmd) for RCC_APB1PeriphResetCmd
    stm32f4xx_usart.o(i.USART_Init) refers to stm32f4xx_rcc.o(i.RCC_GetClocksFreq) for RCC_GetClocksFreq
    cxa_guard_acquire.o(.ARM.exidx) refers to cxa_guard_acquire.o(i.__cxa_guard_acquire) for i.__cxa_guard_acquire
    cxa_guard_release.o(.ARM.exidx) refers to cxa_guard_release.o(i.__cxa_guard_release) for i.__cxa_guard_release
    aeabi_atexit.o(i.__aeabi_atexit) refers (Special) to cxa_finalize.o(i.__cxa_finalize) for __cxa_finalize
    aeabi_atexit.o(i.__aeabi_atexit) refers (Special) to cpp_final.o(.text) for __rt_lib_shutdown_cpp_1
    aeabi_atexit.o(i.__aeabi_atexit) refers to malloc.o(i.malloc) for malloc
    aeabi_atexit.o(i.__aeabi_atexit) refers to cpp_dtor.o(.text) for __rt_ddtor_pointer_addr
    aeabi_atexit.o(.ARM.exidx) refers (Special) to cxa_finalize.o(i.__cxa_finalize) for __cxa_finalize
    aeabi_atexit.o(.ARM.exidx) refers (Special) to cpp_final.o(.text) for __rt_lib_shutdown_cpp_1
    aeabi_atexit.o(.ARM.exidx) refers to aeabi_atexit.o(i.__aeabi_atexit) for i.__aeabi_atexit
    aeabi_vec_ctor_nocookie_nodtor.o(.ARM.exidx) refers to aeabi_vec_ctor_nocookie_nodtor.o(i.__aeabi_vec_ctor_nocookie_nodtor) for i.__aeabi_vec_ctor_nocookie_nodtor
    aeabi_vec_ctor_nocookie_nodtor.o(.ARM.exidx) refers to cpp_unwinder.o(.text) for __aeabi_unwind_cpp_pr0
    acosf.o(i.__hardfp_acosf) refers (Special) to iusefp.o(.text) for __I$use$fp
    acosf.o(i.__hardfp_acosf) refers to sqrtf.o(i.sqrtf) for sqrtf
    acosf.o(i.__hardfp_acosf) refers to funder.o(i.__mathlib_flt_infnan) for __mathlib_flt_infnan
    acosf.o(i.__hardfp_acosf) refers to errno.o(i.__set_errno) for __set_errno
    acosf.o(i.__hardfp_acosf) refers to funder.o(i.__mathlib_flt_invalid) for __mathlib_flt_invalid
    acosf.o(i.__softfp_acosf) refers (Special) to iusefp.o(.text) for __I$use$fp
    acosf.o(i.__softfp_acosf) refers to acosf.o(i.__hardfp_acosf) for __hardfp_acosf
    acosf.o(i.acosf) refers (Special) to iusefp.o(.text) for __I$use$fp
    acosf.o(i.acosf) refers to acosf.o(i.__hardfp_acosf) for __hardfp_acosf
    acosf_x.o(i.____hardfp_acosf$lsc) refers (Special) to iusefp.o(.text) for __I$use$fp
    acosf_x.o(i.____hardfp_acosf$lsc) refers to sqrtf.o(i.sqrtf) for sqrtf
    acosf_x.o(i.____hardfp_acosf$lsc) refers to funder.o(i.__mathlib_flt_infnan) for __mathlib_flt_infnan
    acosf_x.o(i.____hardfp_acosf$lsc) refers to errno.o(i.__set_errno) for __set_errno
    acosf_x.o(i.____softfp_acosf$lsc) refers (Special) to iusefp.o(.text) for __I$use$fp
    acosf_x.o(i.____softfp_acosf$lsc) refers to acosf_x.o(i.____hardfp_acosf$lsc) for ____hardfp_acosf$lsc
    acosf_x.o(i.__acosf$lsc) refers (Special) to iusefp.o(.text) for __I$use$fp
    acosf_x.o(i.__acosf$lsc) refers to acosf_x.o(i.____hardfp_acosf$lsc) for ____hardfp_acosf$lsc
    asinf.o(i.__hardfp_asinf) refers (Special) to iusefp.o(.text) for __I$use$fp
    asinf.o(i.__hardfp_asinf) refers to sqrtf.o(i.sqrtf) for sqrtf
    asinf.o(i.__hardfp_asinf) refers to fpclassifyf.o(i.__ARM_fpclassifyf) for __ARM_fpclassifyf
    asinf.o(i.__hardfp_asinf) refers to funder.o(i.__mathlib_flt_underflow) for __mathlib_flt_underflow
    asinf.o(i.__hardfp_asinf) refers to funder.o(i.__mathlib_flt_infnan) for __mathlib_flt_infnan
    asinf.o(i.__hardfp_asinf) refers to errno.o(i.__set_errno) for __set_errno
    asinf.o(i.__hardfp_asinf) refers to funder.o(i.__mathlib_flt_invalid) for __mathlib_flt_invalid
    asinf.o(i.__softfp_asinf) refers (Special) to iusefp.o(.text) for __I$use$fp
    asinf.o(i.__softfp_asinf) refers to asinf.o(i.__hardfp_asinf) for __hardfp_asinf
    asinf.o(i.asinf) refers (Special) to iusefp.o(.text) for __I$use$fp
    asinf.o(i.asinf) refers to asinf.o(i.__hardfp_asinf) for __hardfp_asinf
    asinf_x.o(i.____hardfp_asinf$lsc) refers (Special) to iusefp.o(.text) for __I$use$fp
    asinf_x.o(i.____hardfp_asinf$lsc) refers to sqrtf.o(i.sqrtf) for sqrtf
    asinf_x.o(i.____hardfp_asinf$lsc) refers to funder.o(i.__mathlib_flt_infnan) for __mathlib_flt_infnan
    asinf_x.o(i.____hardfp_asinf$lsc) refers to errno.o(i.__set_errno) for __set_errno
    asinf_x.o(i.____softfp_asinf$lsc) refers (Special) to iusefp.o(.text) for __I$use$fp
    asinf_x.o(i.____softfp_asinf$lsc) refers to asinf_x.o(i.____hardfp_asinf$lsc) for ____hardfp_asinf$lsc
    asinf_x.o(i.__asinf$lsc) refers (Special) to iusefp.o(.text) for __I$use$fp
    asinf_x.o(i.__asinf$lsc) refers to asinf_x.o(i.____hardfp_asinf$lsc) for ____hardfp_asinf$lsc
    atan2f.o(i.__hardfp_atan2f) refers (Special) to iusefp.o(.text) for __I$use$fp
    atan2f.o(i.__hardfp_atan2f) refers to fpclassifyf.o(i.__ARM_fpclassifyf) for __ARM_fpclassifyf
    atan2f.o(i.__hardfp_atan2f) refers to funder.o(i.__mathlib_flt_underflow) for __mathlib_flt_underflow
    atan2f.o(i.__hardfp_atan2f) refers to funder.o(i.__mathlib_flt_infnan2) for __mathlib_flt_infnan2
    atan2f.o(i.__softfp_atan2f) refers (Special) to iusefp.o(.text) for __I$use$fp
    atan2f.o(i.__softfp_atan2f) refers to atan2f.o(i.__hardfp_atan2f) for __hardfp_atan2f
    atan2f.o(i.atan2f) refers (Special) to iusefp.o(.text) for __I$use$fp
    atan2f.o(i.atan2f) refers to atan2f.o(i.__hardfp_atan2f) for __hardfp_atan2f
    atan2f_x.o(i.____hardfp_atan2f$lsc) refers (Special) to iusefp.o(.text) for __I$use$fp
    atan2f_x.o(i.____hardfp_atan2f$lsc) refers to funder.o(i.__mathlib_flt_infnan2) for __mathlib_flt_infnan2
    atan2f_x.o(i.____hardfp_atan2f$lsc) refers to errno.o(i.__set_errno) for __set_errno
    atan2f_x.o(i.____softfp_atan2f$lsc) refers (Special) to iusefp.o(.text) for __I$use$fp
    atan2f_x.o(i.____softfp_atan2f$lsc) refers to atan2f_x.o(i.____hardfp_atan2f$lsc) for ____hardfp_atan2f$lsc
    atan2f_x.o(i.__atan2f$lsc) refers (Special) to iusefp.o(.text) for __I$use$fp
    atan2f_x.o(i.__atan2f$lsc) refers to atan2f_x.o(i.____hardfp_atan2f$lsc) for ____hardfp_atan2f$lsc
    cos.o(i.__hardfp_cos) refers (Special) to iusefp.o(.text) for __I$use$fp
    cos.o(i.__hardfp_cos) refers to errno.o(i.__set_errno) for __set_errno
    cos.o(i.__hardfp_cos) refers to dunder.o(i.__mathlib_dbl_invalid) for __mathlib_dbl_invalid
    cos.o(i.__hardfp_cos) refers to dunder.o(i.__mathlib_dbl_infnan) for __mathlib_dbl_infnan
    cos.o(i.__hardfp_cos) refers to rred.o(i.__ieee754_rem_pio2) for __ieee754_rem_pio2
    cos.o(i.__hardfp_cos) refers to sin_i.o(i.__kernel_sin) for __kernel_sin
    cos.o(i.__hardfp_cos) refers to cos_i.o(i.__kernel_cos) for __kernel_cos
    cos.o(i.__softfp_cos) refers (Special) to iusefp.o(.text) for __I$use$fp
    cos.o(i.__softfp_cos) refers to cos.o(i.__hardfp_cos) for __hardfp_cos
    cos.o(i.cos) refers (Special) to iusefp.o(.text) for __I$use$fp
    cos.o(i.cos) refers to cos.o(i.__hardfp_cos) for __hardfp_cos
    cos_x.o(i.____hardfp_cos$lsc) refers (Special) to iusefp.o(.text) for __I$use$fp
    cos_x.o(i.____hardfp_cos$lsc) refers to errno.o(i.__set_errno) for __set_errno
    cos_x.o(i.____hardfp_cos$lsc) refers to dunder.o(i.__mathlib_dbl_infnan) for __mathlib_dbl_infnan
    cos_x.o(i.____hardfp_cos$lsc) refers to rred.o(i.__ieee754_rem_pio2) for __ieee754_rem_pio2
    cos_x.o(i.____hardfp_cos$lsc) refers to sin_i.o(i.__kernel_sin) for __kernel_sin
    cos_x.o(i.____hardfp_cos$lsc) refers to cos_i.o(i.__kernel_cos) for __kernel_cos
    cos_x.o(i.____softfp_cos$lsc) refers (Special) to iusefp.o(.text) for __I$use$fp
    cos_x.o(i.____softfp_cos$lsc) refers to cos_x.o(i.____hardfp_cos$lsc) for ____hardfp_cos$lsc
    cos_x.o(i.__cos$lsc) refers (Special) to iusefp.o(.text) for __I$use$fp
    cos_x.o(i.__cos$lsc) refers to cos_x.o(i.____hardfp_cos$lsc) for ____hardfp_cos$lsc
    cosf.o(i.__hardfp_cosf) refers (Special) to iusefp.o(.text) for __I$use$fp
    cosf.o(i.__hardfp_cosf) refers to rredf.o(i.__mathlib_rredf2) for __mathlib_rredf2
    cosf.o(i.__hardfp_cosf) refers to errno.o(i.__set_errno) for __set_errno
    cosf.o(i.__hardfp_cosf) refers to funder.o(i.__mathlib_flt_invalid) for __mathlib_flt_invalid
    cosf.o(i.__hardfp_cosf) refers to funder.o(i.__mathlib_flt_infnan) for __mathlib_flt_infnan
    cosf.o(i.__softfp_cosf) refers (Special) to iusefp.o(.text) for __I$use$fp
    cosf.o(i.__softfp_cosf) refers to cosf.o(i.__hardfp_cosf) for __hardfp_cosf
    cosf.o(i.cosf) refers (Special) to iusefp.o(.text) for __I$use$fp
    cosf.o(i.cosf) refers to cosf.o(i.__hardfp_cosf) for __hardfp_cosf
    cosf_x.o(i.____hardfp_cosf$lsc) refers (Special) to iusefp.o(.text) for __I$use$fp
    cosf_x.o(i.____hardfp_cosf$lsc) refers to rredf.o(i.__mathlib_rredf2) for __mathlib_rredf2
    cosf_x.o(i.____hardfp_cosf$lsc) refers to errno.o(i.__set_errno) for __set_errno
    cosf_x.o(i.____hardfp_cosf$lsc) refers to funder.o(i.__mathlib_flt_infnan) for __mathlib_flt_infnan
    cosf_x.o(i.____softfp_cosf$lsc) refers (Special) to iusefp.o(.text) for __I$use$fp
    cosf_x.o(i.____softfp_cosf$lsc) refers to cosf_x.o(i.____hardfp_cosf$lsc) for ____hardfp_cosf$lsc
    cosf_x.o(i.__cosf$lsc) refers (Special) to iusefp.o(.text) for __I$use$fp
    cosf_x.o(i.__cosf$lsc) refers to cosf_x.o(i.____hardfp_cosf$lsc) for ____hardfp_cosf$lsc
    fabs.o(i.__hardfp_fabs) refers (Special) to iusefp.o(.text) for __I$use$fp
    fabs.o(i.__softfp_fabs) refers (Special) to iusefp.o(.text) for __I$use$fp
    fabs.o(i.fabs) refers (Special) to iusefp.o(.text) for __I$use$fp
    floorf.o(i.__hardfp_floorf) refers (Special) to iusefp.o(.text) for __I$use$fp
    floorf.o(i.__softfp_floorf) refers (Special) to iusefp.o(.text) for __I$use$fp
    floorf.o(i.floorf) refers (Special) to iusefp.o(.text) for __I$use$fp
    powf.o(i.__hardfp_powf) refers (Special) to iusefp.o(.text) for __I$use$fp
    powf.o(i.__hardfp_powf) refers to fpclassifyf.o(i.__ARM_fpclassifyf) for __ARM_fpclassifyf
    powf.o(i.__hardfp_powf) refers to funder.o(i.__mathlib_flt_underflow) for __mathlib_flt_underflow
    powf.o(i.__hardfp_powf) refers to errno.o(i.__set_errno) for __set_errno
    powf.o(i.__hardfp_powf) refers to funder.o(i.__mathlib_flt_overflow) for __mathlib_flt_overflow
    powf.o(i.__hardfp_powf) refers to funder.o(i.__mathlib_flt_invalid) for __mathlib_flt_invalid
    powf.o(i.__hardfp_powf) refers to powf.o(.constdata) for .constdata
    powf.o(i.__hardfp_powf) refers to funder.o(i.__mathlib_flt_infnan2) for __mathlib_flt_infnan2
    powf.o(i.__hardfp_powf) refers to funder.o(i.__mathlib_flt_divzero) for __mathlib_flt_divzero
    powf.o(i.__softfp_powf) refers (Special) to iusefp.o(.text) for __I$use$fp
    powf.o(i.__softfp_powf) refers to powf.o(i.__hardfp_powf) for __hardfp_powf
    powf.o(i.powf) refers (Special) to iusefp.o(.text) for __I$use$fp
    powf.o(i.powf) refers to powf.o(i.__hardfp_powf) for __hardfp_powf
    powf.o(.constdata) refers (Special) to iusefp.o(.text) for __I$use$fp
    powf_x.o(i.____hardfp_powf$lsc) refers (Special) to iusefp.o(.text) for __I$use$fp
    powf_x.o(i.____hardfp_powf$lsc) refers to fpstat.o(.text) for __ieee_status
    powf_x.o(i.____hardfp_powf$lsc) refers to errno.o(i.__set_errno) for __set_errno
    powf_x.o(i.____hardfp_powf$lsc) refers to powf_x.o(.constdata) for .constdata
    powf_x.o(i.____hardfp_powf$lsc) refers to funder.o(i.__mathlib_flt_infnan2) for __mathlib_flt_infnan2
    powf_x.o(i.____softfp_powf$lsc) refers (Special) to iusefp.o(.text) for __I$use$fp
    powf_x.o(i.____softfp_powf$lsc) refers to powf_x.o(i.____hardfp_powf$lsc) for ____hardfp_powf$lsc
    powf_x.o(i.__powf$lsc) refers (Special) to iusefp.o(.text) for __I$use$fp
    powf_x.o(i.__powf$lsc) refers to powf_x.o(i.____hardfp_powf$lsc) for ____hardfp_powf$lsc
    powf_x.o(.constdata) refers (Special) to iusefp.o(.text) for __I$use$fp
    sin.o(i.__hardfp_sin) refers (Special) to iusefp.o(.text) for __I$use$fp
    sin.o(i.__hardfp_sin) refers to errno.o(i.__set_errno) for __set_errno
    sin.o(i.__hardfp_sin) refers to dunder.o(i.__mathlib_dbl_invalid) for __mathlib_dbl_invalid
    sin.o(i.__hardfp_sin) refers to dunder.o(i.__mathlib_dbl_infnan) for __mathlib_dbl_infnan
    sin.o(i.__hardfp_sin) refers to rred.o(i.__ieee754_rem_pio2) for __ieee754_rem_pio2
    sin.o(i.__hardfp_sin) refers to cos_i.o(i.__kernel_cos) for __kernel_cos
    sin.o(i.__hardfp_sin) refers to sin_i.o(i.__kernel_sin) for __kernel_sin
    sin.o(i.__softfp_sin) refers (Special) to iusefp.o(.text) for __I$use$fp
    sin.o(i.__softfp_sin) refers to sin.o(i.__hardfp_sin) for __hardfp_sin
    sin.o(i.sin) refers (Special) to iusefp.o(.text) for __I$use$fp
    sin.o(i.sin) refers to sin.o(i.__hardfp_sin) for __hardfp_sin
    sin_x.o(i.____hardfp_sin$lsc) refers (Special) to iusefp.o(.text) for __I$use$fp
    sin_x.o(i.____hardfp_sin$lsc) refers to errno.o(i.__set_errno) for __set_errno
    sin_x.o(i.____hardfp_sin$lsc) refers to dunder.o(i.__mathlib_dbl_infnan) for __mathlib_dbl_infnan
    sin_x.o(i.____hardfp_sin$lsc) refers to rred.o(i.__ieee754_rem_pio2) for __ieee754_rem_pio2
    sin_x.o(i.____hardfp_sin$lsc) refers to cos_i.o(i.__kernel_cos) for __kernel_cos
    sin_x.o(i.____hardfp_sin$lsc) refers to sin_i.o(i.__kernel_sin) for __kernel_sin
    sin_x.o(i.____softfp_sin$lsc) refers (Special) to iusefp.o(.text) for __I$use$fp
    sin_x.o(i.____softfp_sin$lsc) refers to sin_x.o(i.____hardfp_sin$lsc) for ____hardfp_sin$lsc
    sin_x.o(i.__sin$lsc) refers (Special) to iusefp.o(.text) for __I$use$fp
    sin_x.o(i.__sin$lsc) refers to sin_x.o(i.____hardfp_sin$lsc) for ____hardfp_sin$lsc
    sinf.o(i.__hardfp_sinf) refers (Special) to iusefp.o(.text) for __I$use$fp
    sinf.o(i.__hardfp_sinf) refers to rredf.o(i.__mathlib_rredf2) for __mathlib_rredf2
    sinf.o(i.__hardfp_sinf) refers to fpclassifyf.o(i.__ARM_fpclassifyf) for __ARM_fpclassifyf
    sinf.o(i.__hardfp_sinf) refers to funder.o(i.__mathlib_flt_underflow) for __mathlib_flt_underflow
    sinf.o(i.__hardfp_sinf) refers to errno.o(i.__set_errno) for __set_errno
    sinf.o(i.__hardfp_sinf) refers to funder.o(i.__mathlib_flt_invalid) for __mathlib_flt_invalid
    sinf.o(i.__hardfp_sinf) refers to funder.o(i.__mathlib_flt_infnan) for __mathlib_flt_infnan
    sinf.o(i.__softfp_sinf) refers (Special) to iusefp.o(.text) for __I$use$fp
    sinf.o(i.__softfp_sinf) refers to sinf.o(i.__hardfp_sinf) for __hardfp_sinf
    sinf.o(i.sinf) refers (Special) to iusefp.o(.text) for __I$use$fp
    sinf.o(i.sinf) refers to sinf.o(i.__hardfp_sinf) for __hardfp_sinf
    sinf_x.o(i.____hardfp_sinf$lsc) refers (Special) to iusefp.o(.text) for __I$use$fp
    sinf_x.o(i.____hardfp_sinf$lsc) refers to rredf.o(i.__mathlib_rredf2) for __mathlib_rredf2
    sinf_x.o(i.____hardfp_sinf$lsc) refers to errno.o(i.__set_errno) for __set_errno
    sinf_x.o(i.____hardfp_sinf$lsc) refers to funder.o(i.__mathlib_flt_infnan) for __mathlib_flt_infnan
    sinf_x.o(i.____softfp_sinf$lsc) refers (Special) to iusefp.o(.text) for __I$use$fp
    sinf_x.o(i.____softfp_sinf$lsc) refers to sinf_x.o(i.____hardfp_sinf$lsc) for ____hardfp_sinf$lsc
    sinf_x.o(i.__sinf$lsc) refers (Special) to iusefp.o(.text) for __I$use$fp
    sinf_x.o(i.__sinf$lsc) refers to sinf_x.o(i.____hardfp_sinf$lsc) for ____hardfp_sinf$lsc
    sqrtf.o(i.__hardfp_sqrtf) refers (Special) to iusefp.o(.text) for __I$use$fp
    sqrtf.o(i.__hardfp_sqrtf) refers to errno.o(i.__set_errno) for __set_errno
    sqrtf.o(i.__softfp_sqrtf) refers (Special) to iusefp.o(.text) for __I$use$fp
    sqrtf.o(i.__softfp_sqrtf) refers to errno.o(i.__set_errno) for __set_errno
    sqrtf.o(i.sqrtf) refers (Special) to iusefp.o(.text) for __I$use$fp
    sqrtf.o(i.sqrtf) refers to errno.o(i.__set_errno) for __set_errno
    sqrtf_x.o(i.____hardfp_sqrtf$lsc) refers (Special) to iusefp.o(.text) for __I$use$fp
    sqrtf_x.o(i.____hardfp_sqrtf$lsc) refers to errno.o(i.__set_errno) for __set_errno
    sqrtf_x.o(i.____softfp_sqrtf$lsc) refers (Special) to iusefp.o(.text) for __I$use$fp
    sqrtf_x.o(i.____softfp_sqrtf$lsc) refers to errno.o(i.__set_errno) for __set_errno
    sqrtf_x.o(i.__sqrtf$lsc) refers (Special) to iusefp.o(.text) for __I$use$fp
    sqrtf_x.o(i.__sqrtf$lsc) refers to errno.o(i.__set_errno) for __set_errno
    entry.o(.ARM.Collect$$$$00000000) refers (Special) to entry10a.o(.ARM.Collect$$$$0000000D) for __rt_final_cpp
    entry.o(.ARM.Collect$$$$00000000) refers (Special) to entry11a.o(.ARM.Collect$$$$0000000F) for __rt_final_exit
    entry.o(.ARM.Collect$$$$00000000) refers (Special) to entry7b.o(.ARM.Collect$$$$00000008) for _main_clock
    entry.o(.ARM.Collect$$$$00000000) refers (Special) to entry8b.o(.ARM.Collect$$$$0000000A) for _main_cpp_init
    entry.o(.ARM.Collect$$$$00000000) refers (Special) to entry9a.o(.ARM.Collect$$$$0000000B) for _main_init
    entry.o(.ARM.Collect$$$$00000000) refers (Special) to entry5.o(.ARM.Collect$$$$00000004) for _main_scatterload
    entry.o(.ARM.Collect$$$$00000000) refers (Special) to entry2.o(.ARM.Collect$$$$00000001) for _main_stk
    uldiv.o(.text) refers to llushr.o(.text) for __aeabi_llsr
    uldiv.o(.text) refers to llshl.o(.text) for __aeabi_llsl
    ldiv.o(.text) refers to uldiv.o(.text) for __aeabi_uldivmod
    printfb.o(i.__0fprintf$bare) refers to printfb.o(i._printf_core) for _printf_core
    printfb.o(i.__0fprintf$bare) refers to dev_usart.o(i.fputc) for fputc
    printfb.o(i.__0printf$bare) refers to printfb.o(i._printf_core) for _printf_core
    printfb.o(i.__0printf$bare) refers to dev_usart.o(i.fputc) for fputc
    printfb.o(i.__0printf$bare) refers to stdout.o(.data) for __stdout
    printfb.o(i.__0snprintf$bare) refers to printfb.o(i._printf_core) for _printf_core
    printfb.o(i.__0snprintf$bare) refers to printfb.o(i._snputc) for _snputc
    printfb.o(i.__0sprintf$bare) refers to printfb.o(i._printf_core) for _printf_core
    printfb.o(i.__0sprintf$bare) refers to printfb.o(i._sputc) for _sputc
    printfb.o(i.__0vfprintf$bare) refers to printfb.o(i._printf_core) for _printf_core
    printfb.o(i.__0vfprintf$bare) refers to dev_usart.o(i.fputc) for fputc
    printfb.o(i.__0vprintf$bare) refers to printfb.o(i._printf_core) for _printf_core
    printfb.o(i.__0vprintf$bare) refers to dev_usart.o(i.fputc) for fputc
    printfb.o(i.__0vprintf$bare) refers to stdout.o(.data) for __stdout
    printfb.o(i.__0vsnprintf$bare) refers to printfb.o(i._printf_core) for _printf_core
    printfb.o(i.__0vsnprintf$bare) refers to printfb.o(i._snputc) for _snputc
    printfb.o(i.__0vsprintf$bare) refers to printfb.o(i._printf_core) for _printf_core
    printfb.o(i.__0vsprintf$bare) refers to printfb.o(i._sputc) for _sputc
    printf0.o(i.__0fprintf$0) refers to printf0.o(i._printf_core) for _printf_core
    printf0.o(i.__0fprintf$0) refers to dev_usart.o(i.fputc) for fputc
    printf0.o(i.__0printf$0) refers to printf0.o(i._printf_core) for _printf_core
    printf0.o(i.__0printf$0) refers to dev_usart.o(i.fputc) for fputc
    printf0.o(i.__0printf$0) refers to stdout.o(.data) for __stdout
    printf0.o(i.__0snprintf$0) refers to printf0.o(i._printf_core) for _printf_core
    printf0.o(i.__0snprintf$0) refers to printf0.o(i._snputc) for _snputc
    printf0.o(i.__0sprintf$0) refers to printf0.o(i._printf_core) for _printf_core
    printf0.o(i.__0sprintf$0) refers to printf0.o(i._sputc) for _sputc
    printf0.o(i.__0vfprintf$0) refers to printf0.o(i._printf_core) for _printf_core
    printf0.o(i.__0vfprintf$0) refers to dev_usart.o(i.fputc) for fputc
    printf0.o(i.__0vprintf$0) refers to printf0.o(i._printf_core) for _printf_core
    printf0.o(i.__0vprintf$0) refers to dev_usart.o(i.fputc) for fputc
    printf0.o(i.__0vprintf$0) refers to stdout.o(.data) for __stdout
    printf0.o(i.__0vsnprintf$0) refers to printf0.o(i._printf_core) for _printf_core
    printf0.o(i.__0vsnprintf$0) refers to printf0.o(i._snputc) for _snputc
    printf0.o(i.__0vsprintf$0) refers to printf0.o(i._printf_core) for _printf_core
    printf0.o(i.__0vsprintf$0) refers to printf0.o(i._sputc) for _sputc
    printf1.o(i.__0fprintf$1) refers to printf1.o(i._printf_core) for _printf_core
    printf1.o(i.__0fprintf$1) refers to dev_usart.o(i.fputc) for fputc
    printf1.o(i.__0printf$1) refers to printf1.o(i._printf_core) for _printf_core
    printf1.o(i.__0printf$1) refers to dev_usart.o(i.fputc) for fputc
    printf1.o(i.__0printf$1) refers to stdout.o(.data) for __stdout
    printf1.o(i.__0snprintf$1) refers to printf1.o(i._printf_core) for _printf_core
    printf1.o(i.__0snprintf$1) refers to printf1.o(i._snputc) for _snputc
    printf1.o(i.__0sprintf$1) refers to printf1.o(i._printf_core) for _printf_core
    printf1.o(i.__0sprintf$1) refers to printf1.o(i._sputc) for _sputc
    printf1.o(i.__0vfprintf$1) refers to printf1.o(i._printf_core) for _printf_core
    printf1.o(i.__0vfprintf$1) refers to dev_usart.o(i.fputc) for fputc
    printf1.o(i.__0vprintf$1) refers to printf1.o(i._printf_core) for _printf_core
    printf1.o(i.__0vprintf$1) refers to dev_usart.o(i.fputc) for fputc
    printf1.o(i.__0vprintf$1) refers to stdout.o(.data) for __stdout
    printf1.o(i.__0vsnprintf$1) refers to printf1.o(i._printf_core) for _printf_core
    printf1.o(i.__0vsnprintf$1) refers to printf1.o(i._snputc) for _snputc
    printf1.o(i.__0vsprintf$1) refers to printf1.o(i._printf_core) for _printf_core
    printf1.o(i.__0vsprintf$1) refers to printf1.o(i._sputc) for _sputc
    printf1.o(i._printf_core) refers to uidiv.o(.text) for __aeabi_uidivmod
    printf2.o(i.__0fprintf$2) refers to printf2.o(i._printf_core) for _printf_core
    printf2.o(i.__0fprintf$2) refers to dev_usart.o(i.fputc) for fputc
    printf2.o(i.__0printf$2) refers to printf2.o(i._printf_core) for _printf_core
    printf2.o(i.__0printf$2) refers to dev_usart.o(i.fputc) for fputc
    printf2.o(i.__0printf$2) refers to stdout.o(.data) for __stdout
    printf2.o(i.__0snprintf$2) refers to printf2.o(i._printf_core) for _printf_core
    printf2.o(i.__0snprintf$2) refers to printf2.o(i._snputc) for _snputc
    printf2.o(i.__0sprintf$2) refers to printf2.o(i._printf_core) for _printf_core
    printf2.o(i.__0sprintf$2) refers to printf2.o(i._sputc) for _sputc
    printf2.o(i.__0vfprintf$2) refers to printf2.o(i._printf_core) for _printf_core
    printf2.o(i.__0vfprintf$2) refers to dev_usart.o(i.fputc) for fputc
    printf2.o(i.__0vprintf$2) refers to printf2.o(i._printf_core) for _printf_core
    printf2.o(i.__0vprintf$2) refers to dev_usart.o(i.fputc) for fputc
    printf2.o(i.__0vprintf$2) refers to stdout.o(.data) for __stdout
    printf2.o(i.__0vsnprintf$2) refers to printf2.o(i._printf_core) for _printf_core
    printf2.o(i.__0vsnprintf$2) refers to printf2.o(i._snputc) for _snputc
    printf2.o(i.__0vsprintf$2) refers to printf2.o(i._printf_core) for _printf_core
    printf2.o(i.__0vsprintf$2) refers to printf2.o(i._sputc) for _sputc
    printf3.o(i.__0fprintf$3) refers to printf3.o(i._printf_core) for _printf_core
    printf3.o(i.__0fprintf$3) refers to dev_usart.o(i.fputc) for fputc
    printf3.o(i.__0printf$3) refers to printf3.o(i._printf_core) for _printf_core
    printf3.o(i.__0printf$3) refers to dev_usart.o(i.fputc) for fputc
    printf3.o(i.__0printf$3) refers to stdout.o(.data) for __stdout
    printf3.o(i.__0snprintf$3) refers to printf3.o(i._printf_core) for _printf_core
    printf3.o(i.__0snprintf$3) refers to printf3.o(i._snputc) for _snputc
    printf3.o(i.__0sprintf$3) refers to printf3.o(i._printf_core) for _printf_core
    printf3.o(i.__0sprintf$3) refers to printf3.o(i._sputc) for _sputc
    printf3.o(i.__0vfprintf$3) refers to printf3.o(i._printf_core) for _printf_core
    printf3.o(i.__0vfprintf$3) refers to dev_usart.o(i.fputc) for fputc
    printf3.o(i.__0vprintf$3) refers to printf3.o(i._printf_core) for _printf_core
    printf3.o(i.__0vprintf$3) refers to dev_usart.o(i.fputc) for fputc
    printf3.o(i.__0vprintf$3) refers to stdout.o(.data) for __stdout
    printf3.o(i.__0vsnprintf$3) refers to printf3.o(i._printf_core) for _printf_core
    printf3.o(i.__0vsnprintf$3) refers to printf3.o(i._snputc) for _snputc
    printf3.o(i.__0vsprintf$3) refers to printf3.o(i._printf_core) for _printf_core
    printf3.o(i.__0vsprintf$3) refers to printf3.o(i._sputc) for _sputc
    printf3.o(i._printf_core) refers to uidiv.o(.text) for __aeabi_uidivmod
    printf4.o(i.__0fprintf$4) refers to printf4.o(i._printf_core) for _printf_core
    printf4.o(i.__0fprintf$4) refers to dev_usart.o(i.fputc) for fputc
    printf4.o(i.__0printf$4) refers to printf4.o(i._printf_core) for _printf_core
    printf4.o(i.__0printf$4) refers to dev_usart.o(i.fputc) for fputc
    printf4.o(i.__0printf$4) refers to stdout.o(.data) for __stdout
    printf4.o(i.__0snprintf$4) refers to printf4.o(i._printf_core) for _printf_core
    printf4.o(i.__0snprintf$4) refers to printf4.o(i._snputc) for _snputc
    printf4.o(i.__0sprintf$4) refers to printf4.o(i._printf_core) for _printf_core
    printf4.o(i.__0sprintf$4) refers to printf4.o(i._sputc) for _sputc
    printf4.o(i.__0vfprintf$4) refers to printf4.o(i._printf_core) for _printf_core
    printf4.o(i.__0vfprintf$4) refers to dev_usart.o(i.fputc) for fputc
    printf4.o(i.__0vprintf$4) refers to printf4.o(i._printf_core) for _printf_core
    printf4.o(i.__0vprintf$4) refers to dev_usart.o(i.fputc) for fputc
    printf4.o(i.__0vprintf$4) refers to stdout.o(.data) for __stdout
    printf4.o(i.__0vsnprintf$4) refers to printf4.o(i._printf_core) for _printf_core
    printf4.o(i.__0vsnprintf$4) refers to printf4.o(i._snputc) for _snputc
    printf4.o(i.__0vsprintf$4) refers to printf4.o(i._printf_core) for _printf_core
    printf4.o(i.__0vsprintf$4) refers to printf4.o(i._sputc) for _sputc
    printf4.o(i._printf_core) refers to uldiv.o(.text) for __aeabi_uldivmod
    printf5.o(i.__0fprintf$5) refers to printf5.o(i._printf_core) for _printf_core
    printf5.o(i.__0fprintf$5) refers to dev_usart.o(i.fputc) for fputc
    printf5.o(i.__0printf$5) refers to printf5.o(i._printf_core) for _printf_core
    printf5.o(i.__0printf$5) refers to dev_usart.o(i.fputc) for fputc
    printf5.o(i.__0printf$5) refers to stdout.o(.data) for __stdout
    printf5.o(i.__0snprintf$5) refers to printf5.o(i._printf_core) for _printf_core
    printf5.o(i.__0snprintf$5) refers to printf5.o(i._snputc) for _snputc
    printf5.o(i.__0sprintf$5) refers to printf5.o(i._printf_core) for _printf_core
    printf5.o(i.__0sprintf$5) refers to printf5.o(i._sputc) for _sputc
    printf5.o(i.__0vfprintf$5) refers to printf5.o(i._printf_core) for _printf_core
    printf5.o(i.__0vfprintf$5) refers to dev_usart.o(i.fputc) for fputc
    printf5.o(i.__0vprintf$5) refers to printf5.o(i._printf_core) for _printf_core
    printf5.o(i.__0vprintf$5) refers to dev_usart.o(i.fputc) for fputc
    printf5.o(i.__0vprintf$5) refers to stdout.o(.data) for __stdout
    printf5.o(i.__0vsnprintf$5) refers to printf5.o(i._printf_core) for _printf_core
    printf5.o(i.__0vsnprintf$5) refers to printf5.o(i._snputc) for _snputc
    printf5.o(i.__0vsprintf$5) refers to printf5.o(i._printf_core) for _printf_core
    printf5.o(i.__0vsprintf$5) refers to printf5.o(i._sputc) for _sputc
    printf5.o(i._printf_core) refers to uldiv.o(.text) for __aeabi_uldivmod
    printf6.o(i.__0fprintf$6) refers to printf6.o(i._printf_core) for _printf_core
    printf6.o(i.__0fprintf$6) refers to dev_usart.o(i.fputc) for fputc
    printf6.o(i.__0printf$6) refers to printf6.o(i._printf_core) for _printf_core
    printf6.o(i.__0printf$6) refers to dev_usart.o(i.fputc) for fputc
    printf6.o(i.__0printf$6) refers to stdout.o(.data) for __stdout
    printf6.o(i.__0snprintf$6) refers to printf6.o(i._printf_core) for _printf_core
    printf6.o(i.__0snprintf$6) refers to printf6.o(i._snputc) for _snputc
    printf6.o(i.__0sprintf$6) refers to printf6.o(i._printf_core) for _printf_core
    printf6.o(i.__0sprintf$6) refers to printf6.o(i._sputc) for _sputc
    printf6.o(i.__0vfprintf$6) refers to printf6.o(i._printf_core) for _printf_core
    printf6.o(i.__0vfprintf$6) refers to dev_usart.o(i.fputc) for fputc
    printf6.o(i.__0vprintf$6) refers to printf6.o(i._printf_core) for _printf_core
    printf6.o(i.__0vprintf$6) refers to dev_usart.o(i.fputc) for fputc
    printf6.o(i.__0vprintf$6) refers to stdout.o(.data) for __stdout
    printf6.o(i.__0vsnprintf$6) refers to printf6.o(i._printf_core) for _printf_core
    printf6.o(i.__0vsnprintf$6) refers to printf6.o(i._snputc) for _snputc
    printf6.o(i.__0vsprintf$6) refers to printf6.o(i._printf_core) for _printf_core
    printf6.o(i.__0vsprintf$6) refers to printf6.o(i._sputc) for _sputc
    printf6.o(i._printf_core) refers to printf6.o(i._printf_pre_padding) for _printf_pre_padding
    printf6.o(i._printf_core) refers to uidiv.o(.text) for __aeabi_uidivmod
    printf6.o(i._printf_core) refers to printf6.o(i._printf_post_padding) for _printf_post_padding
    printf7.o(i.__0fprintf$7) refers to printf7.o(i._printf_core) for _printf_core
    printf7.o(i.__0fprintf$7) refers to dev_usart.o(i.fputc) for fputc
    printf7.o(i.__0printf$7) refers to printf7.o(i._printf_core) for _printf_core
    printf7.o(i.__0printf$7) refers to dev_usart.o(i.fputc) for fputc
    printf7.o(i.__0printf$7) refers to stdout.o(.data) for __stdout
    printf7.o(i.__0snprintf$7) refers to printf7.o(i._printf_core) for _printf_core
    printf7.o(i.__0snprintf$7) refers to printf7.o(i._snputc) for _snputc
    printf7.o(i.__0sprintf$7) refers to printf7.o(i._printf_core) for _printf_core
    printf7.o(i.__0sprintf$7) refers to printf7.o(i._sputc) for _sputc
    printf7.o(i.__0vfprintf$7) refers to printf7.o(i._printf_core) for _printf_core
    printf7.o(i.__0vfprintf$7) refers to dev_usart.o(i.fputc) for fputc
    printf7.o(i.__0vprintf$7) refers to printf7.o(i._printf_core) for _printf_core
    printf7.o(i.__0vprintf$7) refers to dev_usart.o(i.fputc) for fputc
    printf7.o(i.__0vprintf$7) refers to stdout.o(.data) for __stdout
    printf7.o(i.__0vsnprintf$7) refers to printf7.o(i._printf_core) for _printf_core
    printf7.o(i.__0vsnprintf$7) refers to printf7.o(i._snputc) for _snputc
    printf7.o(i.__0vsprintf$7) refers to printf7.o(i._printf_core) for _printf_core
    printf7.o(i.__0vsprintf$7) refers to printf7.o(i._sputc) for _sputc
    printf7.o(i._printf_core) refers to printf7.o(i._printf_pre_padding) for _printf_pre_padding
    printf7.o(i._printf_core) refers to uldiv.o(.text) for __aeabi_uldivmod
    printf7.o(i._printf_core) refers to printf7.o(i._printf_post_padding) for _printf_post_padding
    printf8.o(i.__0fprintf$8) refers to printf8.o(i._printf_core) for _printf_core
    printf8.o(i.__0fprintf$8) refers to dev_usart.o(i.fputc) for fputc
    printf8.o(i.__0printf$8) refers to printf8.o(i._printf_core) for _printf_core
    printf8.o(i.__0printf$8) refers to dev_usart.o(i.fputc) for fputc
    printf8.o(i.__0printf$8) refers to stdout.o(.data) for __stdout
    printf8.o(i.__0snprintf$8) refers to printf8.o(i._printf_core) for _printf_core
    printf8.o(i.__0snprintf$8) refers to printf8.o(i._snputc) for _snputc
    printf8.o(i.__0sprintf$8) refers to printf8.o(i._printf_core) for _printf_core
    printf8.o(i.__0sprintf$8) refers to printf8.o(i._sputc) for _sputc
    printf8.o(i.__0vfprintf$8) refers to printf8.o(i._printf_core) for _printf_core
    printf8.o(i.__0vfprintf$8) refers to dev_usart.o(i.fputc) for fputc
    printf8.o(i.__0vprintf$8) refers to printf8.o(i._printf_core) for _printf_core
    printf8.o(i.__0vprintf$8) refers to dev_usart.o(i.fputc) for fputc
    printf8.o(i.__0vprintf$8) refers to stdout.o(.data) for __stdout
    printf8.o(i.__0vsnprintf$8) refers to printf8.o(i._printf_core) for _printf_core
    printf8.o(i.__0vsnprintf$8) refers to printf8.o(i._snputc) for _snputc
    printf8.o(i.__0vsprintf$8) refers to printf8.o(i._printf_core) for _printf_core
    printf8.o(i.__0vsprintf$8) refers to printf8.o(i._sputc) for _sputc
    printf8.o(i._printf_core) refers to printf8.o(i._printf_pre_padding) for _printf_pre_padding
    printf8.o(i._printf_core) refers to uldiv.o(.text) for __aeabi_uldivmod
    printf8.o(i._printf_core) refers to printf8.o(i._printf_post_padding) for _printf_post_padding
    printfa.o(i.__0fprintf) refers (Special) to iusefp.o(.text) for __I$use$fp
    printfa.o(i.__0fprintf) refers to printfa.o(i._printf_core) for _printf_core
    printfa.o(i.__0fprintf) refers to dev_usart.o(i.fputc) for fputc
    printfa.o(i.__0printf) refers (Special) to iusefp.o(.text) for __I$use$fp
    printfa.o(i.__0printf) refers to printfa.o(i._printf_core) for _printf_core
    printfa.o(i.__0printf) refers to dev_usart.o(i.fputc) for fputc
    printfa.o(i.__0printf) refers to stdout.o(.data) for __stdout
    printfa.o(i.__0snprintf) refers (Special) to iusefp.o(.text) for __I$use$fp
    printfa.o(i.__0snprintf) refers to printfa.o(i._printf_core) for _printf_core
    printfa.o(i.__0snprintf) refers to printfa.o(i._snputc) for _snputc
    printfa.o(i.__0sprintf) refers (Special) to iusefp.o(.text) for __I$use$fp
    printfa.o(i.__0sprintf) refers to printfa.o(i._printf_core) for _printf_core
    printfa.o(i.__0sprintf) refers to printfa.o(i._sputc) for _sputc
    printfa.o(i.__0vfprintf) refers (Special) to iusefp.o(.text) for __I$use$fp
    printfa.o(i.__0vfprintf) refers to printfa.o(i._printf_core) for _printf_core
    printfa.o(i.__0vfprintf) refers to dev_usart.o(i.fputc) for fputc
    printfa.o(i.__0vprintf) refers (Special) to iusefp.o(.text) for __I$use$fp
    printfa.o(i.__0vprintf) refers to printfa.o(i._printf_core) for _printf_core
    printfa.o(i.__0vprintf) refers to dev_usart.o(i.fputc) for fputc
    printfa.o(i.__0vprintf) refers to stdout.o(.data) for __stdout
    printfa.o(i.__0vsnprintf) refers (Special) to iusefp.o(.text) for __I$use$fp
    printfa.o(i.__0vsnprintf) refers to printfa.o(i._printf_core) for _printf_core
    printfa.o(i.__0vsnprintf) refers to printfa.o(i._snputc) for _snputc
    printfa.o(i.__0vsprintf) refers (Special) to iusefp.o(.text) for __I$use$fp
    printfa.o(i.__0vsprintf) refers to printfa.o(i._printf_core) for _printf_core
    printfa.o(i.__0vsprintf) refers to printfa.o(i._sputc) for _sputc
    printfa.o(i._fp_digits) refers (Special) to iusefp.o(.text) for __I$use$fp
    printfa.o(i._fp_digits) refers to dmul.o(.text) for __aeabi_dmul
    printfa.o(i._fp_digits) refers to ddiv.o(.text) for __aeabi_ddiv
    printfa.o(i._fp_digits) refers to cdrcmple.o(.text) for __aeabi_cdrcmple
    printfa.o(i._fp_digits) refers to dadd.o(.text) for __aeabi_dadd
    printfa.o(i._fp_digits) refers to dfixul.o(.text) for __aeabi_d2ulz
    printfa.o(i._fp_digits) refers to uldiv.o(.text) for __aeabi_uldivmod
    printfa.o(i._printf_core) refers (Special) to iusefp.o(.text) for __I$use$fp
    printfa.o(i._printf_core) refers to printfa.o(i._printf_pre_padding) for _printf_pre_padding
    printfa.o(i._printf_core) refers to uldiv.o(.text) for __aeabi_uldivmod
    printfa.o(i._printf_core) refers to printfa.o(i._printf_post_padding) for _printf_post_padding
    printfa.o(i._printf_core) refers to printfa.o(i._fp_digits) for _fp_digits
    printfa.o(i._printf_core) refers to uidiv.o(.text) for __aeabi_uidivmod
    printfa.o(i._printf_post_padding) refers (Special) to iusefp.o(.text) for __I$use$fp
    printfa.o(i._printf_pre_padding) refers (Special) to iusefp.o(.text) for __I$use$fp
    printfa.o(i._snputc) refers (Special) to iusefp.o(.text) for __I$use$fp
    printfa.o(i._sputc) refers (Special) to iusefp.o(.text) for __I$use$fp
    cpp_init.o(.emb_text) refers (Special) to entry8a.o(.ARM.Collect$$$$00000009) for _main_cpp_init$empty
    cpp_init.o(.init_array) refers (Special) to entry8a.o(.ARM.Collect$$$$00000009) for _main_cpp_init$empty
    cpp_init.o(.init_array) refers to cpp_init.o(.text) for __cpp_initialize__aeabi_
    cpp_init.o(.dummy_text) refers (Special) to entry8a.o(.ARM.Collect$$$$00000009) for _main_cpp_init$empty
    cpp_init.o(.text) refers (Special) to entry8a.o(.ARM.Collect$$$$00000009) for _main_cpp_init$empty
    dadd.o(.text) refers (Special) to iusefp.o(.text) for __I$use$fp
    dadd.o(.text) refers to llshl.o(.text) for __aeabi_llsl
    dadd.o(.text) refers to llsshr.o(.text) for __aeabi_lasr
    dadd.o(.text) refers to depilogue.o(.text) for _double_epilogue
    dmul.o(.text) refers (Special) to iusefp.o(.text) for __I$use$fp
    dmul.o(.text) refers to depilogue.o(.text) for _double_epilogue
    ddiv.o(.text) refers (Special) to iusefp.o(.text) for __I$use$fp
    ddiv.o(.text) refers to depilogue.o(.text) for _double_round
    dneg.o(.text) refers (Special) to iusefp.o(.text) for __I$use$fp
    ffltul.o(.text) refers (Special) to iusefp.o(.text) for __I$use$fp
    ffltul.o(.text) refers to fepilogue.o(.text) for _float_epilogue
    dflti.o(.text) refers (Special) to iusefp.o(.text) for __I$use$fp
    dflti.o(.text) refers to depilogue.o(.text) for _double_epilogue
    ffixul.o(.text) refers (Special) to iusefp.o(.text) for __I$use$fp
    ffixul.o(.text) refers to llshl.o(.text) for __aeabi_llsl
    f2d.o(.text) refers (Special) to iusefp.o(.text) for __I$use$fp
    cdcmple.o(.text) refers (Special) to iusefp.o(.text) for __I$use$fp
    cdrcmple.o(.text) refers (Special) to iusefp.o(.text) for __I$use$fp
    d2f.o(.text) refers (Special) to iusefp.o(.text) for __I$use$fp
    d2f.o(.text) refers to fepilogue.o(.text) for _float_round
    cxa_finalize.o(i.__cxa_finalize) refers (Special) to cpp_final.o(.text) for __rt_lib_shutdown_cpp_1
    cxa_finalize.o(i.__cxa_finalize) refers to cpp_dtor.o(.text) for __rt_ddtor_pointer_addr
    cxa_finalize.o(i.__cxa_finalize) refers to malloc.o(i.free) for free
    cxa_finalize.o(.ARM.exidx) refers (Special) to cpp_final.o(.text) for __rt_lib_shutdown_cpp_1
    cxa_finalize.o(.ARM.exidx) refers to cxa_finalize.o(i.__cxa_finalize) for i.__cxa_finalize
    cos_i.o(i.__kernel_cos) refers (Special) to iusefp.o(.text) for __I$use$fp
    cos_i.o(i.__kernel_cos) refers to dfixi.o(.text) for __aeabi_d2iz
    cos_i.o(i.__kernel_cos) refers to dmul.o(.text) for __aeabi_dmul
    cos_i.o(i.__kernel_cos) refers to poly.o(i.__kernel_poly) for __kernel_poly
    cos_i.o(i.__kernel_cos) refers to dadd.o(.text) for __aeabi_dsub
    cos_i.o(i.__kernel_cos) refers to cos_i.o(.constdata) for .constdata
    cos_i.o(.constdata) refers (Special) to iusefp.o(.text) for __I$use$fp
    dunder.o(i.__mathlib_dbl_divzero) refers to ddiv.o(.text) for __aeabi_ddiv
    dunder.o(i.__mathlib_dbl_infnan) refers to dadd.o(.text) for __aeabi_dadd
    dunder.o(i.__mathlib_dbl_infnan2) refers to dadd.o(.text) for __aeabi_dadd
    dunder.o(i.__mathlib_dbl_invalid) refers to ddiv.o(.text) for __aeabi_ddiv
    dunder.o(i.__mathlib_dbl_overflow) refers to dmul.o(.text) for __aeabi_dmul
    dunder.o(i.__mathlib_dbl_posinfnan) refers to dmul.o(.text) for __aeabi_dmul
    dunder.o(i.__mathlib_dbl_underflow) refers to dmul.o(.text) for __aeabi_dmul
    fpclassifyf.o(i.__ARM_fpclassifyf) refers (Special) to iusefp.o(.text) for __I$use$fp
    rred.o(i.__ieee754_rem_pio2) refers (Special) to iusefp.o(.text) for __I$use$fp
    rred.o(i.__ieee754_rem_pio2) refers to dadd.o(.text) for __aeabi_dsub
    rred.o(i.__ieee754_rem_pio2) refers to fabs.o(i.fabs) for fabs
    rred.o(i.__ieee754_rem_pio2) refers to dmul.o(.text) for __aeabi_dmul
    rred.o(i.__ieee754_rem_pio2) refers to dfixi.o(.text) for __aeabi_d2iz
    rred.o(i.__ieee754_rem_pio2) refers to dflti.o(.text) for __aeabi_i2d
    rred.o(i.__ieee754_rem_pio2) refers to dfltui.o(.text) for __aeabi_ui2d
    rred.o(i.__ieee754_rem_pio2) refers to rred.o(.constdata) for .constdata
    rred.o(i.__use_accurate_range_reduction) refers (Special) to iusefp.o(.text) for __I$use$fp
    rred.o(.constdata) refers (Special) to iusefp.o(.text) for __I$use$fp
    rredf.o(i.__mathlib_rredf2) refers (Special) to iusefp.o(.text) for __I$use$fp
    rredf.o(i.__mathlib_rredf2) refers to rredf.o(.constdata) for .constdata
    rredf.o(.constdata) refers (Special) to iusefp.o(.text) for __I$use$fp
    sin_i.o(i.__kernel_sin) refers (Special) to iusefp.o(.text) for __I$use$fp
    sin_i.o(i.__kernel_sin) refers to fpclassify.o(i.__ARM_fpclassify) for __ARM_fpclassify
    sin_i.o(i.__kernel_sin) refers to dunder.o(i.__mathlib_dbl_underflow) for __mathlib_dbl_underflow
    sin_i.o(i.__kernel_sin) refers to dmul.o(.text) for __aeabi_dmul
    sin_i.o(i.__kernel_sin) refers to poly.o(i.__kernel_poly) for __kernel_poly
    sin_i.o(i.__kernel_sin) refers to dadd.o(.text) for __aeabi_dsub
    sin_i.o(i.__kernel_sin) refers to sin_i.o(.constdata) for .constdata
    sin_i.o(.constdata) refers (Special) to iusefp.o(.text) for __I$use$fp
    sin_i_x.o(i.____kernel_sin$lsc) refers (Special) to iusefp.o(.text) for __I$use$fp
    sin_i_x.o(i.____kernel_sin$lsc) refers to dmul.o(.text) for __aeabi_dmul
    sin_i_x.o(i.____kernel_sin$lsc) refers to poly.o(i.__kernel_poly) for __kernel_poly
    sin_i_x.o(i.____kernel_sin$lsc) refers to dadd.o(.text) for __aeabi_dsub
    sin_i_x.o(i.____kernel_sin$lsc) refers to sin_i_x.o(.constdata) for .constdata
    sin_i_x.o(.constdata) refers (Special) to iusefp.o(.text) for __I$use$fp
    entry2.o(.ARM.Collect$$$$00000001) refers to entry2.o(.ARM.Collect$$$$00002712) for __lit__00000000
    entry2.o(.ARM.Collect$$$$00002712) refers to startup_stm32f40_41xxx.o(STACK) for __initial_sp
    entry2.o(__vectab_stack_and_reset_area) refers to startup_stm32f40_41xxx.o(STACK) for __initial_sp
    entry2.o(__vectab_stack_and_reset_area) refers to entry.o(.ARM.Collect$$$$00000000) for __main
    entry5.o(.ARM.Collect$$$$00000004) refers to init.o(.text) for __scatterload
    entry8a.o(.ARM.Collect$$$$00000009) refers (Weak) to cpp_init.o(.text) for __cpp_initialize__aeabi_
    entry9a.o(.ARM.Collect$$$$0000000B) refers to uav_task.o(i.main) for main
    entry9b.o(.ARM.Collect$$$$0000000C) refers to uav_task.o(i.main) for main
    entry10b.o(.ARM.Collect$$$$0000000E) refers (Weak) to cxa_finalize.o(i.__cxa_finalize) for __cxa_finalize
    malloc.o(i.free) refers to mvars.o(.data) for __microlib_freelist
    malloc.o(i.malloc) refers to mvars.o(.data) for __microlib_freelist_initialised
    malloc.o(i.malloc) refers to mvars.o(.data) for __microlib_freelist
    malloc.o(i.malloc) refers to startup_stm32f40_41xxx.o(HEAP) for __heap_base
    mallocr.o(i.__free$realloc) refers to mvars.o(.data) for __microlib_freelist
    mallocr.o(i.__malloc$realloc) refers to mallocr.o(i.internal_alloc) for internal_alloc
    mallocr.o(i.__malloc$realloc) refers to mvars.o(.data) for __microlib_freelist_initialised
    mallocr.o(i.__malloc$realloc) refers to startup_stm32f40_41xxx.o(HEAP) for __heap_base
    mallocr.o(i.__malloc$realloc) refers to mvars.o(.data) for __microlib_freelist
    mallocr.o(i.internal_alloc) refers to memcpya.o(.text) for __aeabi_memcpy
    mallocr.o(i.internal_alloc) refers to mvars.o(.data) for __microlib_freelist
    mallocr.o(i.realloc) refers to mallocr.o(i.__free$realloc) for __free$realloc
    mallocr.o(i.realloc) refers to mallocr.o(i.internal_alloc) for internal_alloc
    mallocr.o(i.realloc) refers to mallocr.o(i.__malloc$realloc) for __malloc$realloc
    mallocr.o(i.realloc) refers to mvars.o(.data) for __microlib_freelist
    malloca.o(i.__aligned_malloc) refers to mvars.o(.data) for __microlib_freelist_initialised
    malloca.o(i.__aligned_malloc) refers to mvars.o(.data) for __microlib_freelist
    malloca.o(i.__aligned_malloc) refers to startup_stm32f40_41xxx.o(HEAP) for __heap_base
    malloca.o(i.__free$memalign) refers to mvars.o(.data) for __microlib_freelist
    malloca.o(i.__malloc$memalign) refers to malloca.o(i.__aligned_malloc) for __aligned_malloc
    mallocra.o(i.__aligned_malloc$realloc) refers to mallocra.o(i.internal_alloc) for internal_alloc
    mallocra.o(i.__aligned_malloc$realloc) refers to mvars.o(.data) for __microlib_freelist_initialised
    mallocra.o(i.__aligned_malloc$realloc) refers to startup_stm32f40_41xxx.o(HEAP) for __heap_base
    mallocra.o(i.__aligned_malloc$realloc) refers to mvars.o(.data) for __microlib_freelist
    mallocra.o(i.__free$realloc$memalign) refers to mvars.o(.data) for __microlib_freelist
    mallocra.o(i.__malloc$realloc$memalign) refers to mallocra.o(i.__aligned_malloc$realloc) for __aligned_malloc$realloc
    mallocra.o(i.__realloc$memalign) refers to mallocra.o(i.__free$realloc$memalign) for __free$realloc$memalign
    mallocra.o(i.__realloc$memalign) refers to mallocra.o(i.internal_alloc) for internal_alloc
    mallocra.o(i.__realloc$memalign) refers to mallocra.o(i.__malloc$realloc$memalign) for __malloc$realloc$memalign
    mallocra.o(i.__realloc$memalign) refers to mvars.o(.data) for __microlib_freelist
    mallocra.o(i.internal_alloc) refers to memcpya.o(.text) for __aeabi_memcpy
    mallocra.o(i.internal_alloc) refers to mvars.o(.data) for __microlib_freelist
    errno.o(i.__aeabi_errno_addr) refers to errno.o(.data) for .data
    errno.o(i.__read_errno) refers to errno.o(.data) for .data
    errno.o(i.__set_errno) refers to errno.o(.data) for .data
    cpp_dtor.o(.text) refers to cpp_dtor.o(.data) for .data
    cpp_unwinder.o(.text) refers to cpp_unwinder.o(.data) for .data
    depilogue.o(.text) refers to llshl.o(.text) for __aeabi_llsl
    depilogue.o(.text) refers to llushr.o(.text) for __aeabi_llsr
    dfixul.o(.text) refers to llushr.o(.text) for __aeabi_llsr
    dfixul.o(.text) refers to llshl.o(.text) for __aeabi_llsl
    fpclassify.o(i.__ARM_fpclassify) refers (Special) to iusefp.o(.text) for __I$use$fp
    poly.o(i.__kernel_poly) refers (Special) to iusefp.o(.text) for __I$use$fp
    poly.o(i.__kernel_poly) refers to dmul.o(.text) for __aeabi_dmul
    poly.o(i.__kernel_poly) refers to dadd.o(.text) for __aeabi_dadd
    init.o(.text) refers to entry5.o(.ARM.Collect$$$$00000004) for __main_after_scatterload
    dfltui.o(.text) refers to depilogue.o(.text) for _double_epilogue
    dfixi.o(.text) refers to llushr.o(.text) for __aeabi_llsr
    uav_filter.o(.ARM.exidx) refers to uav_filter.o(t._ZN7Vector3IsEC1Ev) for t._ZN7Vector3IsEC1Ev
    uav_filter.o(.ARM.exidx) refers to uav_filter.o(t._ZN7Vector3IiEC1Ev) for t._ZN7Vector3IiEC1Ev
    ekf_att_pos_estimator_main.o(.ARM.exidx) refers to ekf_att_pos_estimator_main.o(i.__ARM_isfinitef) for i.__ARM_isfinitef
    ekf_att_pos_estimator_main.o(i._ZN28AttitudePositionEstimatorEKFD1Ev) refers to estimator_22states.o(i._ZN9AttPosEKFD1Ev) for AttPosEKF::~AttPosEKF()
    ekf_att_pos_estimator_main.o(.ARM.exidx) refers to ekf_att_pos_estimator_main.o(i._ZN28AttitudePositionEstimatorEKFD1Ev) for i._ZN28AttitudePositionEstimatorEKFD1Ev
    estimator_22states.o(i._ZN5Mat3fC1Ev) refers to estimator_22states.o(i._ZN12Vector3f_px4C1Efff) for Vector3f_px4::Vector3f_px4(float, float, float)
    estimator_22states.o(.ARM.exidx) refers to estimator_22states.o(i._ZN5Mat3fC1Ev) for i._ZN5Mat3fC1Ev
    estimator_22states.o(.ARM.exidx) refers to estimator_22states.o(i._ZN12Vector3f_px4C1Efff) for i._ZN12Vector3f_px4C1Efff
    estimator_22states.o(i._ZN9AttPosEKF16mag_state_structC1Ev) refers to estimator_22states.o(i._ZN5Mat3fC1Ev) for Mat3f::Mat3f()
    estimator_22states.o(.ARM.exidx) refers to estimator_22states.o(i._ZN9AttPosEKF16mag_state_structC1Ev) for i._ZN9AttPosEKF16mag_state_structC1Ev
    estimator_22states.o(.ARM.exidx) refers to estimator_22states.o(i._ZN9AttPosEKF2sqEf) for i._ZN9AttPosEKF2sqEf
    estimator_22states.o(i._ZSt3sinf) refers to sinf.o(i.__hardfp_sinf) for __hardfp_sinf
    estimator_22states.o(.ARM.exidx) refers to estimator_22states.o(i._ZSt3sinf) for i._ZSt3sinf
    estimator_22states.o(i._ZSt3cosf) refers to cosf.o(i.__hardfp_cosf) for __hardfp_cosf
    estimator_22states.o(.ARM.exidx) refers to estimator_22states.o(i._ZSt3cosf) for i._ZSt3cosf
    imu.o(.ARM.exidx) refers to imu.o(t._ZN7Vector3IfEC1Ev) for t._ZN7Vector3IfEC1Ev
    imu_dcm.o(.ARM.exidx) refers to imu_dcm.o(t._ZN7Vector3IfEC1Efff) for t._ZN7Vector3IfEC1Efff
    imu_gradient.o(i._ZSt5atan2ff) refers to atan2f.o(i.__hardfp_atan2f) for __hardfp_atan2f
    imu_gradient.o(.ARM.exidx) refers to imu_gradient.o(i._ZSt5atan2ff) for i._ZSt5atan2ff
    attitudeekf.o(.ARM.exidx) refers to attitudeekf.o(i._ZSt4fabsf) for i._ZSt4fabsf
    nav_h_ekf.o(i._ZSt4sqrtf) refers to sqrtf.o(i.__hardfp_sqrtf) for __hardfp_sqrtf
    nav_h_ekf.o(.ARM.exidx) refers to nav_h_ekf.o(i._ZSt4sqrtf) for i._ZSt4sqrtf
    dev_ak8975.o(.ARM.exidx) refers to dev_ak8975.o(t._ZN7Vector3IfEclEfff) for t._ZN7Vector3IfEclEfff
    dev_mup6050.o(i._ZN8_MPU6050C1Ev) refers to imu.o(t._ZN7Vector3IfEC1Ev) for Vector3<float>::Vector3()
    dev_mup6050.o(i._ZN8_MPU6050C1Ev) refers to uav_filter.o(t._ZN7Vector3IsEC1Ev) for Vector3<short>::Vector3()
    dev_mup6050.o(.ARM.exidx) refers to dev_mup6050.o(i._ZN8_MPU6050C1Ev) for i._ZN8_MPU6050C1Ev
    cal_matrix3.o(t._ZN7Matrix3IfEC1Ev) refers to imu.o(t._ZN7Vector3IfEC1Ev) for Vector3<float>::Vector3()
    cal_matrix3.o(.ARM.exidx) refers to cal_matrix3.o(t._ZN7Matrix3IfEC1Ev) for t._ZN7Matrix3IfEC1Ev
    cal_matrix3.o(.ARM.exidx) refers to cal_matrix3.o(t._ZN7Matrix3IfEC1E7Vector3IfES2_S2_) for t._ZN7Matrix3IfEC1E7Vector3IfES2_S2_
    cal_matrix3.o(t._ZN7Matrix3IfEpLERKS0_) refers to cal_vector3.o(t._ZNK7Vector3IfEplERKS0_) for Vector3<float>::operator +(const Vector3<float>&) const
    cal_matrix3.o(t._ZN7Matrix3IfEpLERKS0_) refers to cal_matrix3.o(t._ZN7Matrix3IfEC1E7Vector3IfES2_S2_) for Matrix3<float>::Matrix3(Vector3<float>, Vector3<float>, Vector3<float>)
    cal_matrix3.o(t._ZN7Matrix3IfEpLERKS0_) refers to memcpya.o(.text) for __aeabi_memcpy4
    cal_matrix3.o(.ARM.exidx) refers to cal_matrix3.o(t._ZN7Matrix3IfEpLERKS0_) for t._ZN7Matrix3IfEpLERKS0_
    cal_matrix3.o(t._ZNK7Matrix3IfEmlERK7Vector3IfE) refers to imu_dcm.o(t._ZN7Vector3IfEC1Efff) for Vector3<float>::Vector3(float, float, float)
    cal_matrix3.o(.ARM.exidx) refers to cal_matrix3.o(t._ZNK7Matrix3IfEmlERK7Vector3IfE) for t._ZNK7Matrix3IfEmlERK7Vector3IfE
    cal_matrix3.o(t._ZNK7Matrix3IfE13mul_transposeERK7Vector3IfE) refers to imu_dcm.o(t._ZN7Vector3IfEC1Efff) for Vector3<float>::Vector3(float, float, float)
    cal_matrix3.o(.ARM.exidx) refers to cal_matrix3.o(t._ZNK7Matrix3IfE13mul_transposeERK7Vector3IfE) for t._ZNK7Matrix3IfE13mul_transposeERK7Vector3IfE
    cal_matrix3.o(t._ZNK7Matrix3IfEmlERKS0_) refers to imu_dcm.o(t._ZN7Vector3IfEC1Efff) for Vector3<float>::Vector3(float, float, float)
    cal_matrix3.o(t._ZNK7Matrix3IfEmlERKS0_) refers to cal_matrix3.o(t._ZN7Matrix3IfEC1E7Vector3IfES2_S2_) for Matrix3<float>::Matrix3(Vector3<float>, Vector3<float>, Vector3<float>)
    cal_matrix3.o(t._ZNK7Matrix3IfEmlERKS0_) refers to memcpya.o(.text) for __aeabi_memcpy4
    cal_matrix3.o(.ARM.exidx) refers to cal_matrix3.o(t._ZNK7Matrix3IfEmlERKS0_) for t._ZNK7Matrix3IfEmlERKS0_
    cal_matrix3.o(t._ZNK7Matrix3IfE10transposedEv) refers to imu_dcm.o(t._ZN7Vector3IfEC1Efff) for Vector3<float>::Vector3(float, float, float)
    cal_matrix3.o(t._ZNK7Matrix3IfE10transposedEv) refers to cal_matrix3.o(t._ZN7Matrix3IfEC1E7Vector3IfES2_S2_) for Matrix3<float>::Matrix3(Vector3<float>, Vector3<float>, Vector3<float>)
    cal_matrix3.o(.ARM.exidx) refers to cal_matrix3.o(t._ZNK7Matrix3IfE10transposedEv) for t._ZNK7Matrix3IfE10transposedEv
    cal_matrix3.o(.ARM.exidx) refers to cal_matrix3.o(t._ZN7Matrix3IfE4zeroEv) for t._ZN7Matrix3IfE4zeroEv
    cal_matrix3.o(t._ZN7Matrix3IfE10from_eulerERK7Vector3IfE) refers to sinf.o(i.__hardfp_sinf) for __hardfp_sinf
    cal_matrix3.o(t._ZN7Matrix3IfE10from_eulerERK7Vector3IfE) refers to cosf.o(i.__hardfp_cosf) for __hardfp_cosf
    cal_matrix3.o(.ARM.exidx) refers to cal_matrix3.o(t._ZN7Matrix3IfE10from_eulerERK7Vector3IfE) for t._ZN7Matrix3IfE10from_eulerERK7Vector3IfE
    cal_matrix3.o(t._ZN7Matrix3IfE8to_eulerEPfS1_S1_) refers to sqrtf.o(i.__hardfp_sqrtf) for __hardfp_sqrtf
    cal_matrix3.o(t._ZN7Matrix3IfE8to_eulerEPfS1_S1_) refers to atan2f.o(i.__hardfp_atan2f) for __hardfp_atan2f
    cal_matrix3.o(t._ZN7Matrix3IfE8to_eulerEPfS1_S1_) refers to cal_math.o(i._Z7degreesf) for degrees(float)
    cal_matrix3.o(.ARM.exidx) refers to cal_matrix3.o(t._ZN7Matrix3IfE8to_eulerEPfS1_S1_) for t._ZN7Matrix3IfE8to_eulerEPfS1_S1_
    cal_matrix3.o(t._ZN7Matrix3IfE6rotateERK7Vector3IfE) refers to cal_matrix3.o(t._ZN7Matrix3IfEC1Ev) for Matrix3<float>::Matrix3()
    cal_matrix3.o(t._ZN7Matrix3IfE6rotateERK7Vector3IfE) refers to cal_matrix3.o(t._ZN7Matrix3IfEpLERKS0_) for Matrix3<float>::operator +=(const Matrix3<float>&)
    cal_matrix3.o(.ARM.exidx) refers to cal_matrix3.o(t._ZN7Matrix3IfE6rotateERK7Vector3IfE) for t._ZN7Matrix3IfE6rotateERK7Vector3IfE
    cal_matrix3.o(t._ZN7Matrix3IfE8rotateXYERK7Vector3IfE) refers to cal_matrix3.o(t._ZN7Matrix3IfEC1Ev) for Matrix3<float>::Matrix3()
    cal_matrix3.o(t._ZN7Matrix3IfE8rotateXYERK7Vector3IfE) refers to cal_matrix3.o(t._ZN7Matrix3IfEpLERKS0_) for Matrix3<float>::operator +=(const Matrix3<float>&)
    cal_matrix3.o(.ARM.exidx) refers to cal_matrix3.o(t._ZN7Matrix3IfE8rotateXYERK7Vector3IfE) for t._ZN7Matrix3IfE8rotateXYERK7Vector3IfE
    cal_vector3.o(.ARM.exidx) refers to cal_vector3.o(i.__ARM_isnan) for i.__ARM_isnan
    cal_vector3.o(t._ZNK7Vector3IfE6lengthEv) refers to cal_math.o(i._Z12pythagorous3fff) for pythagorous3(float, float, float)
    cal_vector3.o(.ARM.exidx) refers to cal_vector3.o(t._ZNK7Vector3IfE6lengthEv) for t._ZNK7Vector3IfE6lengthEv
    cal_vector3.o(.ARM.exidx) refers to cal_vector3.o(t._ZNK7Vector3IfEmlERKS0_) for t._ZNK7Vector3IfEmlERKS0_
    cal_vector3.o(t._ZNK7Vector3IfE5angleERKS0_) refers to cal_vector3.o(t._ZNK7Vector3IfEmlERKS0_) for Vector3<float>::operator *(const Vector3<float>&) const
    cal_vector3.o(t._ZNK7Vector3IfE5angleERKS0_) refers to cal_vector3.o(t._ZNK7Vector3IfE6lengthEv) for Vector3<float>::length() const
    cal_vector3.o(t._ZNK7Vector3IfE5angleERKS0_) refers to acosf.o(i.__hardfp_acosf) for __hardfp_acosf
    cal_vector3.o(.ARM.exidx) refers to cal_vector3.o(t._ZNK7Vector3IfE5angleERKS0_) for t._ZNK7Vector3IfE5angleERKS0_
    cal_vector3.o(t._ZN7Vector3IfE13get_rollpitchERS0_) refers to atan2f.o(i.__hardfp_atan2f) for __hardfp_atan2f
    cal_vector3.o(t._ZN7Vector3IfE13get_rollpitchERS0_) refers to cal_math.o(i._Z7degreesf) for degrees(float)
    cal_vector3.o(t._ZN7Vector3IfE13get_rollpitchERS0_) refers to sqrtf.o(i.__hardfp_sqrtf) for __hardfp_sqrtf
    cal_vector3.o(.ARM.exidx) refers to cal_vector3.o(t._ZN7Vector3IfE13get_rollpitchERS0_) for t._ZN7Vector3IfE13get_rollpitchERS0_
    cal_vector3.o(t._ZN7Vector3IfE7get_yawERS0_) refers to atan2f.o(i.__hardfp_atan2f) for __hardfp_atan2f
    cal_vector3.o(t._ZN7Vector3IfE7get_yawERS0_) refers to cal_math.o(i._Z7degreesf) for degrees(float)
    cal_vector3.o(.ARM.exidx) refers to cal_vector3.o(t._ZN7Vector3IfE7get_yawERS0_) for t._ZN7Vector3IfE7get_yawERS0_
    cal_vector3.o(t._ZNK7Vector3IfE6is_nanEv) refers to cal_vector3.o(i.__ARM_isnanf) for __ARM_isnanf
    cal_vector3.o(.ARM.exidx) refers to cal_vector3.o(t._ZNK7Vector3IfE6is_nanEv) for t._ZNK7Vector3IfE6is_nanEv
    cal_vector3.o(t._ZNK7Vector3IfErmERKS0_) refers to imu_dcm.o(t._ZN7Vector3IfEC1Efff) for Vector3<float>::Vector3(float, float, float)
    cal_vector3.o(.ARM.exidx) refers to cal_vector3.o(t._ZNK7Vector3IfErmERKS0_) for t._ZNK7Vector3IfErmERKS0_
    cal_vector3.o(t._ZNK7Vector3IfEmlEf) refers to imu_dcm.o(t._ZN7Vector3IfEC1Efff) for Vector3<float>::Vector3(float, float, float)
    cal_vector3.o(.ARM.exidx) refers to cal_vector3.o(t._ZNK7Vector3IfEmlEf) for t._ZNK7Vector3IfEmlEf
    cal_vector3.o(.ARM.exidx) refers to cal_vector3.o(t._ZN7Vector3IfEmLEf) for t._ZN7Vector3IfEmLEf
    cal_vector3.o(t._ZNK7Vector3IfEdvEf) refers to imu_dcm.o(t._ZN7Vector3IfEC1Efff) for Vector3<float>::Vector3(float, float, float)
    cal_vector3.o(.ARM.exidx) refers to cal_vector3.o(t._ZNK7Vector3IfEdvEf) for t._ZNK7Vector3IfEdvEf
    cal_vector3.o(.ARM.exidx) refers to cal_vector3.o(t._ZN7Vector3IfEdVEf) for t._ZN7Vector3IfEdVEf
    cal_vector3.o(t._ZNK7Vector3IfEngEv) refers to imu_dcm.o(t._ZN7Vector3IfEC1Efff) for Vector3<float>::Vector3(float, float, float)
    cal_vector3.o(.ARM.exidx) refers to cal_vector3.o(t._ZNK7Vector3IfEngEv) for t._ZNK7Vector3IfEngEv
    cal_vector3.o(t._ZNK7Vector3IfEplERKS0_) refers to imu_dcm.o(t._ZN7Vector3IfEC1Efff) for Vector3<float>::Vector3(float, float, float)
    cal_vector3.o(.ARM.exidx) refers to cal_vector3.o(t._ZNK7Vector3IfEplERKS0_) for t._ZNK7Vector3IfEplERKS0_
    cal_vector3.o(.ARM.exidx) refers to cal_vector3.o(t._ZN7Vector3IfEpLERKS0_) for t._ZN7Vector3IfEpLERKS0_
    cal_vector3.o(t._ZNK7Vector3IfEmiERKS0_) refers to imu_dcm.o(t._ZN7Vector3IfEC1Efff) for Vector3<float>::Vector3(float, float, float)
    cal_vector3.o(.ARM.exidx) refers to cal_vector3.o(t._ZNK7Vector3IfEmiERKS0_) for t._ZNK7Vector3IfEmiERKS0_
    cal_vector3.o(.ARM.exidx) refers to cal_vector3.o(t._ZN7Vector3IfEmIERKS0_) for t._ZN7Vector3IfEmIERKS0_
    cal_vector3.o(.ARM.exidx) refers to cal_vector3.o(t._ZNK7Vector3IfEeqERKS0_) for t._ZNK7Vector3IfEeqERKS0_
    cal_vector3.o(.ARM.exidx) refers to cal_vector3.o(t._ZNK7Vector3IfEneERKS0_) for t._ZNK7Vector3IfEneERKS0_
    cal_vector3.o(t._ZNK7Vector3IfEmlERK7Matrix3IfE) refers to imu_dcm.o(t._ZN7Vector3IfEC1Efff) for Vector3<float>::Vector3(float, float, float)
    cal_vector3.o(t._ZNK7Vector3IfEmlERK7Matrix3IfE) refers to cal_vector3.o(t._ZNK7Vector3IfEmlERKS0_) for Vector3<float>::operator *(const Vector3<float>&) const
    cal_vector3.o(.ARM.exidx) refers to cal_vector3.o(t._ZNK7Vector3IfEmlERK7Matrix3IfE) for t._ZNK7Vector3IfEmlERK7Matrix3IfE
    cal_vector3.o(.ARM.exidx) refers to cal_vector3.o(t._ZN7Vector3IdEC1Eddd) for t._ZN7Vector3IdEC1Eddd
    cal_vector3.o(t._ZNK7Vector3IdE6lengthEv) refers to d2f.o(.text) for __aeabi_d2f
    cal_vector3.o(t._ZNK7Vector3IdE6lengthEv) refers to cal_math.o(i._Z12pythagorous3fff) for pythagorous3(float, float, float)
    cal_vector3.o(.ARM.exidx) refers to cal_vector3.o(t._ZNK7Vector3IdE6lengthEv) for t._ZNK7Vector3IdE6lengthEv
    cal_vector3.o(t._ZNK7Vector3IdEmlERKS0_) refers to dmul.o(.text) for __aeabi_dmul
    cal_vector3.o(t._ZNK7Vector3IdEmlERKS0_) refers to dadd.o(.text) for __aeabi_dadd
    cal_vector3.o(.ARM.exidx) refers to cal_vector3.o(t._ZNK7Vector3IdEmlERKS0_) for t._ZNK7Vector3IdEmlERKS0_
    cal_vector3.o(t._ZNK7Vector3IdE5angleERKS0_) refers to cal_vector3.o(t._ZNK7Vector3IdE6lengthEv) for Vector3<double>::length() const
    cal_vector3.o(t._ZNK7Vector3IdE5angleERKS0_) refers to f2d.o(.text) for __aeabi_f2d
    cal_vector3.o(t._ZNK7Vector3IdE5angleERKS0_) refers to cal_vector3.o(t._ZNK7Vector3IdEmlERKS0_) for Vector3<double>::operator *(const Vector3<double>&) const
    cal_vector3.o(t._ZNK7Vector3IdE5angleERKS0_) refers to ddiv.o(.text) for __aeabi_ddiv
    cal_vector3.o(t._ZNK7Vector3IdE5angleERKS0_) refers to d2f.o(.text) for __aeabi_d2f
    cal_vector3.o(t._ZNK7Vector3IdE5angleERKS0_) refers to acosf.o(i.__hardfp_acosf) for __hardfp_acosf
    cal_vector3.o(.ARM.exidx) refers to cal_vector3.o(t._ZNK7Vector3IdE5angleERKS0_) for t._ZNK7Vector3IdE5angleERKS0_
    cal_vector3.o(t._ZN7Vector3IdE13get_rollpitchERS0_) refers to d2f.o(.text) for __aeabi_d2f
    cal_vector3.o(t._ZN7Vector3IdE13get_rollpitchERS0_) refers to atan2f.o(i.__hardfp_atan2f) for __hardfp_atan2f
    cal_vector3.o(t._ZN7Vector3IdE13get_rollpitchERS0_) refers to cal_math.o(i._Z7degreesf) for degrees(float)
    cal_vector3.o(t._ZN7Vector3IdE13get_rollpitchERS0_) refers to f2d.o(.text) for __aeabi_f2d
    cal_vector3.o(t._ZN7Vector3IdE13get_rollpitchERS0_) refers to cdcmple.o(.text) for __aeabi_cdcmple
    cal_vector3.o(t._ZN7Vector3IdE13get_rollpitchERS0_) refers to cdrcmple.o(.text) for __aeabi_cdrcmple
    cal_vector3.o(t._ZN7Vector3IdE13get_rollpitchERS0_) refers to dmul.o(.text) for __aeabi_dmul
    cal_vector3.o(t._ZN7Vector3IdE13get_rollpitchERS0_) refers to dadd.o(.text) for __aeabi_dadd
    cal_vector3.o(t._ZN7Vector3IdE13get_rollpitchERS0_) refers to sqrtf.o(i.__hardfp_sqrtf) for __hardfp_sqrtf
    cal_vector3.o(.ARM.exidx) refers to cal_vector3.o(t._ZN7Vector3IdE13get_rollpitchERS0_) for t._ZN7Vector3IdE13get_rollpitchERS0_
    cal_vector3.o(t._ZN7Vector3IdE7get_yawERS0_) refers to d2f.o(.text) for __aeabi_d2f
    cal_vector3.o(t._ZN7Vector3IdE7get_yawERS0_) refers to atan2f.o(i.__hardfp_atan2f) for __hardfp_atan2f
    cal_vector3.o(t._ZN7Vector3IdE7get_yawERS0_) refers to cal_math.o(i._Z7degreesf) for degrees(float)
    cal_vector3.o(t._ZN7Vector3IdE7get_yawERS0_) refers to f2d.o(.text) for __aeabi_f2d
    cal_vector3.o(t._ZN7Vector3IdE7get_yawERS0_) refers to cdcmple.o(.text) for __aeabi_cdcmple
    cal_vector3.o(t._ZN7Vector3IdE7get_yawERS0_) refers to cdrcmple.o(.text) for __aeabi_cdrcmple
    cal_vector3.o(.ARM.exidx) refers to cal_vector3.o(t._ZN7Vector3IdE7get_yawERS0_) for t._ZN7Vector3IdE7get_yawERS0_
    cal_vector3.o(t._ZNK7Vector3IdE6is_nanEv) refers to cal_vector3.o(i.__ARM_isnan) for __ARM_isnan
    cal_vector3.o(.ARM.exidx) refers to cal_vector3.o(t._ZNK7Vector3IdE6is_nanEv) for t._ZNK7Vector3IdE6is_nanEv
    cal_vector3.o(t._ZNK7Vector3IdErmERKS0_) refers to dmul.o(.text) for __aeabi_dmul
    cal_vector3.o(t._ZNK7Vector3IdErmERKS0_) refers to dadd.o(.text) for __aeabi_dsub
    cal_vector3.o(t._ZNK7Vector3IdErmERKS0_) refers to cal_vector3.o(t._ZN7Vector3IdEC1Eddd) for Vector3<double>::Vector3(double, double, double)
    cal_vector3.o(.ARM.exidx) refers to cal_vector3.o(t._ZNK7Vector3IdErmERKS0_) for t._ZNK7Vector3IdErmERKS0_
    cal_vector3.o(t._ZNK7Vector3IdEmlEd) refers to dmul.o(.text) for __aeabi_dmul
    cal_vector3.o(t._ZNK7Vector3IdEmlEd) refers to cal_vector3.o(t._ZN7Vector3IdEC1Eddd) for Vector3<double>::Vector3(double, double, double)
    cal_vector3.o(.ARM.exidx) refers to cal_vector3.o(t._ZNK7Vector3IdEmlEd) for t._ZNK7Vector3IdEmlEd
    cal_vector3.o(t._ZN7Vector3IdEmLEd) refers to dmul.o(.text) for __aeabi_dmul
    cal_vector3.o(.ARM.exidx) refers to cal_vector3.o(t._ZN7Vector3IdEmLEd) for t._ZN7Vector3IdEmLEd
    cal_vector3.o(t._ZNK7Vector3IdEdvEd) refers to ddiv.o(.text) for __aeabi_ddiv
    cal_vector3.o(t._ZNK7Vector3IdEdvEd) refers to cal_vector3.o(t._ZN7Vector3IdEC1Eddd) for Vector3<double>::Vector3(double, double, double)
    cal_vector3.o(.ARM.exidx) refers to cal_vector3.o(t._ZNK7Vector3IdEdvEd) for t._ZNK7Vector3IdEdvEd
    cal_vector3.o(t._ZN7Vector3IdEdVEd) refers to ddiv.o(.text) for __aeabi_ddiv
    cal_vector3.o(.ARM.exidx) refers to cal_vector3.o(t._ZN7Vector3IdEdVEd) for t._ZN7Vector3IdEdVEd
    cal_vector3.o(t._ZNK7Vector3IdEngEv) refers to cal_vector3.o(t._ZN7Vector3IdEC1Eddd) for Vector3<double>::Vector3(double, double, double)
    cal_vector3.o(.ARM.exidx) refers to cal_vector3.o(t._ZNK7Vector3IdEngEv) for t._ZNK7Vector3IdEngEv
    cal_vector3.o(t._ZNK7Vector3IdEplERKS0_) refers to dadd.o(.text) for __aeabi_dadd
    cal_vector3.o(t._ZNK7Vector3IdEplERKS0_) refers to cal_vector3.o(t._ZN7Vector3IdEC1Eddd) for Vector3<double>::Vector3(double, double, double)
    cal_vector3.o(.ARM.exidx) refers to cal_vector3.o(t._ZNK7Vector3IdEplERKS0_) for t._ZNK7Vector3IdEplERKS0_
    cal_vector3.o(t._ZN7Vector3IdEpLERKS0_) refers to dadd.o(.text) for __aeabi_dadd
    cal_vector3.o(.ARM.exidx) refers to cal_vector3.o(t._ZN7Vector3IdEpLERKS0_) for t._ZN7Vector3IdEpLERKS0_
    cal_vector3.o(t._ZNK7Vector3IdEmiERKS0_) refers to dadd.o(.text) for __aeabi_dsub
    cal_vector3.o(t._ZNK7Vector3IdEmiERKS0_) refers to cal_vector3.o(t._ZN7Vector3IdEC1Eddd) for Vector3<double>::Vector3(double, double, double)
    cal_vector3.o(.ARM.exidx) refers to cal_vector3.o(t._ZNK7Vector3IdEmiERKS0_) for t._ZNK7Vector3IdEmiERKS0_
    cal_vector3.o(t._ZN7Vector3IdEmIERKS0_) refers to dadd.o(.text) for __aeabi_dsub
    cal_vector3.o(.ARM.exidx) refers to cal_vector3.o(t._ZN7Vector3IdEmIERKS0_) for t._ZN7Vector3IdEmIERKS0_
    cal_vector3.o(t._ZNK7Vector3IdEeqERKS0_) refers to cdcmple.o(.text) for __aeabi_cdcmpeq
    cal_vector3.o(.ARM.exidx) refers to cal_vector3.o(t._ZNK7Vector3IdEeqERKS0_) for t._ZNK7Vector3IdEeqERKS0_
    cal_vector3.o(t._ZNK7Vector3IdEneERKS0_) refers to cdcmple.o(.text) for __aeabi_cdcmpeq
    cal_vector3.o(.ARM.exidx) refers to cal_vector3.o(t._ZNK7Vector3IdEneERKS0_) for t._ZNK7Vector3IdEneERKS0_
    cal_vector3.o(.ARM.exidx) refers to cal_vector3.o(i.__ARM_isnanf) for i.__ARM_isnanf


==============================================================================

Removing Unused input sections from the image.

    Removing uav_task.o(.rev16_text), (4 bytes).
    Removing uav_task.o(.revsh_text), (4 bytes).
    Removing uav_task.o(.rrx_text), (6 bytes).
    Removing uav_task.o(i._Z9task_5_msv), (96 bytes).
    Removing uav_task.o(.ARM.exidx), (8 bytes).
    Removing uav_task.o(.ARM.exidx), (8 bytes).
    Removing uav_task.o(.ARM.exidx), (8 bytes).
    Removing uav_task.o(.ARM.exidx), (8 bytes).
    Removing uav_task.o(.ARM.exidx), (8 bytes).
    Removing uav_task.o(.ARM.exidx), (8 bytes).
    Removing uav_task.o(.ARM.exidx), (8 bytes).
    Removing uav_task.o(.ARM.exidx), (8 bytes).
    Removing uav_task.o(.ARM.exidx), (8 bytes).
    Removing uav_task.o(.ARM.exidx), (8 bytes).
    Removing uav_control.o(.rev16_text), (4 bytes).
    Removing uav_control.o(.revsh_text), (4 bytes).
    Removing uav_control.o(.rrx_text), (6 bytes).
    Removing uav_control.o(i._ZN8_CONTROL19DecompositionOutputEv), (804 bytes).
    Removing uav_control.o(i._ZN8_CONTROL5AngleEf), (1528 bytes).
    Removing uav_control.o(i._ZN8_CONTROL7AngularEf), (2172 bytes).
    Removing uav_control.o(.ARM.exidx), (8 bytes).
    Removing uav_control.o(.ARM.exidx), (8 bytes).
    Removing uav_control.o(.ARM.exidx), (8 bytes).
    Removing uav_control.o(.ARM.exidx), (8 bytes).
    Removing uav_adrc.o(.rev16_text), (4 bytes).
    Removing uav_adrc.o(.revsh_text), (4 bytes).
    Removing uav_adrc.o(.rrx_text), (6 bytes).
    Removing uav_adrc.o(i._Z11AngularRotef), (80 bytes).
    Removing uav_adrc.o(i._ZN5_ADRC5AngleEf), (904 bytes).
    Removing uav_adrc.o(.ARM.exidx), (8 bytes).
    Removing uav_adrc.o(.ARM.exidx), (8 bytes).
    Removing uav_adrc.o(.ARM.exidx), (8 bytes).
    Removing uav_adrc.o(.ARM.exidx), (8 bytes).
    Removing uav_pid.o(.rev16_text), (4 bytes).
    Removing uav_pid.o(.revsh_text), (4 bytes).
    Removing uav_pid.o(.rrx_text), (6 bytes).
    Removing uav_pid.o(i._ZN4_PID5Err_dEf), (160 bytes).
    Removing uav_pid.o(i._ZN4_PID8disErr_iEff), (138 bytes).
    Removing uav_pid.o(.ARM.exidx), (8 bytes).
    Removing uav_pid.o(.ARM.exidx), (8 bytes).
    Removing uav_pid.o(.ARM.exidx), (8 bytes).
    Removing uav_pid.o(.ARM.exidx), (8 bytes).
    Removing uav_pid.o(.ARM.exidx), (8 bytes).
    Removing uav_pid.o(.ARM.exidx), (8 bytes).
    Removing uav_init.o(.rev16_text), (4 bytes).
    Removing uav_init.o(.revsh_text), (4 bytes).
    Removing uav_init.o(.rrx_text), (6 bytes).
    Removing uav_init.o(.ARM.exidx), (8 bytes).
    Removing uav_init.o(.data), (1 bytes).
    Removing uav_filter.o(.rev16_text), (4 bytes).
    Removing uav_filter.o(.revsh_text), (4 bytes).
    Removing uav_filter.o(.rrx_text), (6 bytes).
    Removing uav_filter.o(i._ZN6Filter10MoveWindowE7Vector3IsEPS1_S1_S2_h), (672 bytes).
    Removing uav_filter.o(i._ZN6Filter6CF_1stE7Vector3IfES1_f), (112 bytes).
    Removing uav_filter.o(i._ZN6Filter7LPF_1stE7Vector3IfES1_f), (112 bytes).
    Removing uav_filter.o(i._ZN6Filter9MeanValueEf), (152 bytes).
    Removing uav_filter.o(.ARM.exidx), (8 bytes).
    Removing uav_filter.o(.ARM.exidx), (8 bytes).
    Removing uav_filter.o(.ARM.exidx), (8 bytes).
    Removing uav_filter.o(.ARM.exidx), (8 bytes).
    Removing uav_filter.o(.ARM.exidx), (8 bytes).
    Removing uav_filter.o(.ARM.exidx), (8 bytes).
    Removing uav_filter.o(.ARM.exidx), (8 bytes).
    Removing uav_filter.o(.ARM.exidx), (8 bytes).
    Removing uav_filter.o(.ARM.exidx), (8 bytes).
    Removing uav_filter.o(.ARM.exidx), (8 bytes).
    Removing uav_filter.o(.bss), (184 bytes).
    Removing uav_rc.o(.rev16_text), (4 bytes).
    Removing uav_rc.o(.revsh_text), (4 bytes).
    Removing uav_rc.o(.rrx_text), (6 bytes).
    Removing uav_rc.o(i._ZN3_RC14HoveringFlightEv), (236 bytes).
    Removing uav_rc.o(i._ZN3_RC3ThrEv), (256 bytes).
    Removing uav_rc.o(i._ZN3_RC4ModeEv), (62 bytes).
    Removing uav_rc.o(i._ZN3_RC7DeblockEf), (180 bytes).
    Removing uav_rc.o(i._ZN3_RC9DataMangeEf), (204 bytes).
    Removing uav_rc.o(.ARM.exidx), (8 bytes).
    Removing uav_rc.o(.ARM.exidx), (8 bytes).
    Removing uav_rc.o(.ARM.exidx), (8 bytes).
    Removing uav_rc.o(.ARM.exidx), (8 bytes).
    Removing uav_rc.o(.ARM.exidx), (8 bytes).
    Removing uav_rc.o(.data), (2 bytes).
    Removing uav_parameter.o(.rev16_text), (4 bytes).
    Removing uav_parameter.o(.revsh_text), (4 bytes).
    Removing uav_parameter.o(.rrx_text), (6 bytes).
    Removing uav_parameter.o(i._ZN10_PARAMETER5ResetEv), (312 bytes).
    Removing uav_parameter.o(.ARM.exidx), (8 bytes).
    Removing uav_parameter.o(.ARM.exidx), (8 bytes).
    Removing uav_parameter.o(.ARM.exidx), (8 bytes).
    Removing uav_parameter.o(.ARM.exidx), (8 bytes).
    Removing uav_parameter.o(.ARM.exidx), (8 bytes).
    Removing uav_parameter.o(.ARM.exidx), (8 bytes).
    Removing uav_parameter.o(.ARM.exidx), (8 bytes).
    Removing uav_parameter.o(.ARM.exidx), (8 bytes).
    Removing uav_parameter.o(.ARM.exidx), (8 bytes).
    Removing uav_parameter.o(.ARM.exidx), (8 bytes).
    Removing uav_parameter.o(.ARM.exidx), (8 bytes).
    Removing uav_parameter.o(.ARM.exidx), (8 bytes).
    Removing uav_parameter.o(.ARM.exidx), (8 bytes).
    Removing uav_parameter.o(.ARM.exidx), (8 bytes).
    Removing uav_parameter.o(.ARM.exidx), (8 bytes).
    Removing uav_parameter.o(.ARM.exidx), (8 bytes).
    Removing uav_parameter_sd.o(.rev16_text), (4 bytes).
    Removing uav_parameter_sd.o(.revsh_text), (4 bytes).
    Removing uav_parameter_sd.o(.rrx_text), (6 bytes).
    Removing uav_parameter_sd.o(i._Z10Write2FilePchj), (188 bytes).
    Removing uav_parameter_sd.o(i._Z7AdrrCalt), (16 bytes).
    Removing uav_parameter_sd.o(i._ZN12PARAMETER_SD12SaveDataInitEv), (184 bytes).
    Removing uav_parameter_sd.o(.ARM.exidx), (8 bytes).
    Removing uav_parameter_sd.o(.ARM.exidx), (8 bytes).
    Removing uav_parameter_sd.o(.ARM.exidx), (8 bytes).
    Removing uav_parameter_sd.o(.bss), (8308 bytes).
    Removing uav_parameter_sd.o(.data), (92 bytes).
    Removing ekf_att_pos_estimator_main.o(.rev16_text), (4 bytes).
    Removing ekf_att_pos_estimator_main.o(.revsh_text), (4 bytes).
    Removing ekf_att_pos_estimator_main.o(.rrx_text), (6 bytes).
    Removing ekf_att_pos_estimator_main.o(i._ZN28AttitudePositionEstimatorEKF13initializeGPSEv), (444 bytes).
    Removing ekf_att_pos_estimator_main.o(i._ZN28AttitudePositionEstimatorEKF14enable_loggingEb), (12 bytes).
    Removing ekf_att_pos_estimator_main.o(i._ZN28AttitudePositionEstimatorEKF18check_filter_stateEv), (772 bytes).
    Removing ekf_att_pos_estimator_main.o(i._ZN28AttitudePositionEstimatorEKF18updateSensorFusionEbbbbb), (864 bytes).
    Removing ekf_att_pos_estimator_main.o(i._ZN28AttitudePositionEstimatorEKF19vehicle_status_pollEv), (16 bytes).
    Removing ekf_att_pos_estimator_main.o(i._ZN28AttitudePositionEstimatorEKF21initReferencePositionEybddff), (188 bytes).
    Removing ekf_att_pos_estimator_main.o(i._ZN28AttitudePositionEstimatorEKF26vehicle_land_detected_pollEv), (72 bytes).
    Removing ekf_att_pos_estimator_main.o(i._ZN28AttitudePositionEstimatorEKF5startEv), (6 bytes).
    Removing ekf_att_pos_estimator_main.o(i._ZN28AttitudePositionEstimatorEKF7loop_upEv), (376 bytes).
    Removing ekf_att_pos_estimator_main.o(i._ZN28AttitudePositionEstimatorEKF8pollDataEv), (1576 bytes).
    Removing ekf_att_pos_estimator_main.o(.ARM.exidx), (8 bytes).
    Removing ekf_att_pos_estimator_main.o(.ARM.exidx), (8 bytes).
    Removing ekf_att_pos_estimator_main.o(.ARM.exidx), (8 bytes).
    Removing ekf_att_pos_estimator_main.o(.ARM.exidx), (8 bytes).
    Removing ekf_att_pos_estimator_main.o(.ARM.exidx), (8 bytes).
    Removing ekf_att_pos_estimator_main.o(.ARM.exidx), (8 bytes).
    Removing ekf_att_pos_estimator_main.o(.ARM.exidx), (8 bytes).
    Removing ekf_att_pos_estimator_main.o(.ARM.exidx), (8 bytes).
    Removing ekf_att_pos_estimator_main.o(.ARM.exidx), (8 bytes).
    Removing ekf_att_pos_estimator_main.o(.ARM.exidx), (8 bytes).
    Removing ekf_att_pos_estimator_main.o(.ARM.exidx), (8 bytes).
    Removing ekf_att_pos_estimator_main.o(.ARM.exidx), (8 bytes).
    Removing ekf_att_pos_estimator_main.o(.ARM.exidx), (8 bytes).
    Removing ekf_att_pos_estimator_main.o(.ARM.exidx), (8 bytes).
    Removing ekf_att_pos_estimator_main.o(.ARM.exidx), (8 bytes).
    Removing ekf_att_pos_estimator_main.o(.ARM.exidx), (8 bytes).
    Removing ekf_att_pos_estimator_main.o(.constdata), (32 bytes).
    Removing ekf_att_pos_estimator_main.o(.conststring), (205 bytes).
    Removing estimator_22states.o(i._ZN9AttPosEKF11FuseOptFlowEv), (29034 bytes).
    Removing estimator_22states.o(i._ZN9AttPosEKF11RecallOmegaEPfy), (232 bytes).
    Removing estimator_22states.o(i._ZN9AttPosEKF11ResetHeightEv), (108 bytes).
    Removing estimator_22states.o(i._ZN9AttPosEKF11StoreStatesEy), (196 bytes).
    Removing estimator_22states.o(i._ZN9AttPosEKF11setOnGroundEb), (278 bytes).
    Removing estimator_22states.o(i._ZN9AttPosEKF12AttitudeInitEfffffffPf), (498 bytes).
    Removing estimator_22states.o(i._ZN9AttPosEKF12FuseAirspeedEv), (4616 bytes).
    Removing estimator_22states.o(i._ZN9AttPosEKF12RecallStatesEPfy), (346 bytes).
    Removing estimator_22states.o(i._ZN9AttPosEKF13CheckAndBoundEP17ekf_status_report), (392 bytes).
    Removing estimator_22states.o(i._ZN9AttPosEKF13FilterHealthyEv), (52 bytes).
    Removing estimator_22states.o(i._ZN9AttPosEKF13ForceSymmetryEv), (464 bytes).
    Removing estimator_22states.o(i._ZN9AttPosEKF13FuseVelposNEDEv), (2460 bytes).
    Removing estimator_22states.o(i._ZN9AttPosEKF13ResetPositionEv), (200 bytes).
    Removing estimator_22states.o(i._ZN9AttPosEKF13ResetVelocityEv), (220 bytes).
    Removing estimator_22states.o(i._ZN9AttPosEKF14CovarianceInitEv), (592 bytes).
    Removing estimator_22states.o(i._ZN9AttPosEKF14GetFilterStateEP17ekf_status_report), (130 bytes).
    Removing estimator_22states.o(i._ZN9AttPosEKF14OpticalFlowEKFEv), (3552 bytes).
    Removing estimator_22states.o(i._ZN9AttPosEKF14VelNEDDivergedEv), (224 bytes).
    Removing estimator_22states.o(i._ZN9AttPosEKF14get_covarianceEPf), (50 bytes).
    Removing estimator_22states.o(i._ZN9AttPosEKF14setIsFixedWingEb), (8 bytes).
    Removing estimator_22states.o(i._ZN9AttPosEKF15ConstrainStatesEv), (652 bytes).
    Removing estimator_22states.o(i._ZN9AttPosEKF15updateDtGpsFiltEf), (76 bytes).
    Removing estimator_22states.o(i._ZN9AttPosEKF15updateDtHgtFiltEf), (76 bytes).
    Removing estimator_22states.o(i._ZN9AttPosEKF16FuseMagnetometerEv), (23332 bytes).
    Removing estimator_22states.o(i._ZN9AttPosEKF16InitialiseFilterERA3_fddff), (124 bytes).
    Removing estimator_22states.o(i._ZN9AttPosEKF16calcEarthRateNEDER12Vector3f_px4f), (80 bytes).
    Removing estimator_22states.o(i._ZN9AttPosEKF17GetLastErrorStateEP17ekf_status_report), (34 bytes).
    Removing estimator_22states.o(i._ZN9AttPosEKF17InitializeDynamicERA3_ff), (1092 bytes).
    Removing estimator_22states.o(i._ZN9AttPosEKF17ResetStoredStatesEv), (70 bytes).
    Removing estimator_22states.o(i._ZN9AttPosEKF18ConstrainVariancesEv), (704 bytes).
    Removing estimator_22states.o(i._ZN9AttPosEKF18updateDtVelPosFiltEf), (76 bytes).
    Removing estimator_22states.o(i._ZN9AttPosEKF19GyroOffsetsDivergedEv), (376 bytes).
    Removing estimator_22states.o(i._ZN9AttPosEKF20CovariancePredictionEf), (96084 bytes).
    Removing estimator_22states.o(i._ZN9AttPosEKF27UpdateStrapdownEquationsNEDEv), (2396 bytes).
    Removing estimator_22states.o(i._ZN9AttPosEKF8eul2quatERA4_fRA3_Kf), (240 bytes).
    Removing estimator_22states.o(i._ZN9AttPosEKF8quat2TbnER5Mat3fRA4_Kf), (322 bytes).
    Removing estimator_22states.o(i._ZN9AttPosEKF8quat2eulERA3_fRA4_Kf), (240 bytes).
    Removing estimator_22states.o(i._ZN9AttPosEKF8zeroColsERA22_A22_fhh), (60 bytes).
    Removing estimator_22states.o(i._ZN9AttPosEKF8zeroRowsERA22_A22_fhh), (60 bytes).
    Removing estimator_22states.o(i._ZN9AttPosEKF9StatesNaNEv), (1068 bytes).
    Removing estimator_22states.o(.ARM.exidx), (8 bytes).
    Removing estimator_22states.o(.ARM.exidx), (8 bytes).
    Removing estimator_22states.o(.ARM.exidx), (8 bytes).
    Removing estimator_22states.o(.ARM.exidx), (8 bytes).
    Removing estimator_22states.o(.ARM.exidx), (8 bytes).
    Removing estimator_22states.o(.ARM.exidx), (8 bytes).
    Removing estimator_22states.o(.ARM.exidx), (8 bytes).
    Removing estimator_22states.o(.ARM.exidx), (8 bytes).
    Removing estimator_22states.o(.ARM.exidx), (8 bytes).
    Removing estimator_22states.o(.ARM.exidx), (8 bytes).
    Removing estimator_22states.o(.ARM.exidx), (8 bytes).
    Removing estimator_22states.o(.ARM.exidx), (8 bytes).
    Removing estimator_22states.o(.ARM.exidx), (8 bytes).
    Removing estimator_22states.o(.ARM.exidx), (8 bytes).
    Removing estimator_22states.o(.ARM.exidx), (8 bytes).
    Removing estimator_22states.o(.ARM.exidx), (8 bytes).
    Removing estimator_22states.o(.ARM.exidx), (8 bytes).
    Removing estimator_22states.o(.ARM.exidx), (8 bytes).
    Removing estimator_22states.o(.ARM.exidx), (8 bytes).
    Removing estimator_22states.o(.ARM.exidx), (8 bytes).
    Removing estimator_22states.o(.ARM.exidx), (8 bytes).
    Removing estimator_22states.o(.ARM.exidx), (8 bytes).
    Removing estimator_22states.o(.ARM.exidx), (8 bytes).
    Removing estimator_22states.o(.ARM.exidx), (8 bytes).
    Removing estimator_22states.o(.ARM.exidx), (8 bytes).
    Removing estimator_22states.o(.ARM.exidx), (8 bytes).
    Removing estimator_22states.o(.ARM.exidx), (8 bytes).
    Removing estimator_22states.o(.ARM.exidx), (8 bytes).
    Removing estimator_22states.o(.ARM.exidx), (8 bytes).
    Removing estimator_22states.o(.ARM.exidx), (8 bytes).
    Removing estimator_22states.o(.ARM.exidx), (8 bytes).
    Removing estimator_22states.o(.ARM.exidx), (8 bytes).
    Removing estimator_22states.o(.ARM.exidx), (8 bytes).
    Removing estimator_22states.o(.ARM.exidx), (8 bytes).
    Removing estimator_22states.o(.ARM.exidx), (8 bytes).
    Removing estimator_22states.o(.ARM.exidx), (8 bytes).
    Removing estimator_22states.o(.ARM.exidx), (8 bytes).
    Removing estimator_22states.o(.ARM.exidx), (8 bytes).
    Removing estimator_22states.o(.ARM.exidx), (8 bytes).
    Removing estimator_22states.o(.ARM.exidx), (8 bytes).
    Removing estimator_22states.o(.ARM.exidx), (8 bytes).
    Removing estimator_22states.o(.ARM.exidx), (8 bytes).
    Removing estimator_22states.o(.ARM.exidx), (8 bytes).
    Removing estimator_22states.o(.ARM.exidx), (8 bytes).
    Removing estimator_22states.o(.ARM.exidx), (8 bytes).
    Removing estimator_22states.o(.bss), (88 bytes).
    Removing estimator_22states.o(.data), (44 bytes).
    Removing estimator_utilities.o(i._Z10calcposNEDRA3_fddfddf), (200 bytes).
    Removing estimator_utilities.o(i._Z10calcvelNEDRA3_ffff), (62 bytes).
    Removing estimator_utilities.o(i._Z7calcLLHPfRdS0_Rfddf), (188 bytes).
    Removing estimator_utilities.o(i._Z8swap_varRfS_), (22 bytes).
    Removing estimator_utilities.o(i._ZNK12Vector3f_px46lengthEv), (46 bytes).
    Removing estimator_utilities.o(i._ZNK5Mat3f9transposeEv), (56 bytes).
    Removing estimator_utilities.o(i._ZdvRK12Vector3f_px4f), (92 bytes).
    Removing estimator_utilities.o(i._ZmiRK12Vector3f_px4S1_), (92 bytes).
    Removing estimator_utilities.o(i._ZmlRK12Vector3f_px4f), (92 bytes).
    Removing estimator_utilities.o(i._ZmlRK5Mat3fRK12Vector3f_px4), (164 bytes).
    Removing estimator_utilities.o(i._ZmlRK5Mat3fS1_), (390 bytes).
    Removing estimator_utilities.o(i._ZmlfRK12Vector3f_px4), (92 bytes).
    Removing estimator_utilities.o(i._ZplRK12Vector3f_px4S1_), (92 bytes).
    Removing estimator_utilities.o(i._ZrmRK12Vector3f_px4S1_), (128 bytes).
    Removing estimator_utilities.o(.ARM.exidx), (8 bytes).
    Removing estimator_utilities.o(.ARM.exidx), (8 bytes).
    Removing estimator_utilities.o(.ARM.exidx), (8 bytes).
    Removing estimator_utilities.o(.ARM.exidx), (8 bytes).
    Removing estimator_utilities.o(.ARM.exidx), (8 bytes).
    Removing estimator_utilities.o(.ARM.exidx), (8 bytes).
    Removing estimator_utilities.o(.ARM.exidx), (8 bytes).
    Removing estimator_utilities.o(.ARM.exidx), (8 bytes).
    Removing estimator_utilities.o(.ARM.exidx), (8 bytes).
    Removing estimator_utilities.o(.ARM.exidx), (8 bytes).
    Removing estimator_utilities.o(.ARM.exidx), (8 bytes).
    Removing estimator_utilities.o(.ARM.exidx), (8 bytes).
    Removing estimator_utilities.o(.ARM.exidx), (8 bytes).
    Removing estimator_utilities.o(.ARM.exidx), (8 bytes).
    Removing estimator_utilities.o(.ARM.exidx), (8 bytes).
    Removing estimator_utilities.o(.ARM.exidx), (8 bytes).
    Removing estimator_utilities.o(.ARM.exidx), (8 bytes).
    Removing imu.o(.rev16_text), (4 bytes).
    Removing imu.o(.revsh_text), (4 bytes).
    Removing imu.o(.rrx_text), (6 bytes).
    Removing imu.o(i._ZN3IMU8AttitudeEf), (96 bytes).
    Removing imu.o(.ARM.exidx), (8 bytes).
    Removing imu.o(.ARM.exidx), (8 bytes).
    Removing imu.o(.ARM.exidx), (8 bytes).
    Removing imu.o(.ARM.exidx), (8 bytes).
    Removing imu_dcm.o(.rev16_text), (4 bytes).
    Removing imu_dcm.o(.revsh_text), (4 bytes).
    Removing imu_dcm.o(.rrx_text), (6 bytes).
    Removing imu_dcm.o(i._ZN4_DCM22DirectionConsineMatrixE7Vector3IfES1_ff), (820 bytes).
    Removing imu_dcm.o(.ARM.exidx), (8 bytes).
    Removing imu_dcm.o(.bss), (60 bytes).
    Removing imu_dcm.o(.data), (46 bytes).
    Removing imu_gradient.o(.rev16_text), (4 bytes).
    Removing imu_gradient.o(.revsh_text), (4 bytes).
    Removing imu_gradient.o(.rrx_text), (6 bytes).
    Removing imu_gradient.o(i._Z16MadgwickAHRSinitffffff), (396 bytes).
    Removing imu_gradient.o(i._Z18MadgwickAHRSupdateffffffffff), (2752 bytes).
    Removing imu_gradient.o(i._Z19Quaternion_to_eulerPfS_S_), (340 bytes).
    Removing imu_gradient.o(i._Z21MadgwickAHRSupdateIMUfffffff), (1368 bytes).
    Removing imu_gradient.o(.ARM.exidx), (8 bytes).
    Removing imu_gradient.o(.ARM.exidx), (8 bytes).
    Removing imu_gradient.o(.ARM.exidx), (8 bytes).
    Removing imu_gradient.o(.ARM.exidx), (8 bytes).
    Removing imu_gradient.o(.data), (16 bytes).
    Removing imu_ekf.o(.rev16_text), (4 bytes).
    Removing imu_ekf.o(.revsh_text), (4 bytes).
    Removing imu_ekf.o(.rrx_text), (6 bytes).
    Removing imu_ekf.o(i._Z3EKF7Vector3IfES0_S0_Phf), (644 bytes).
    Removing imu_ekf.o(.ARM.exidx), (8 bytes).
    Removing imu_ekf.o(.bss), (624 bytes).
    Removing imu_ekf.o(.constdata), (36 bytes).
    Removing imu_ekf.o(.data), (37 bytes).
    Removing attitudeekf.o(i._Z10b_mrdividePfPKf), (866 bytes).
    Removing attitudeekf.o(i._Z11AttitudeEKFhhPKhfPKffffffffS2_PfS3_S3_S3_S3_), (9012 bytes).
    Removing attitudeekf.o(i._Z16AttitudeEKF_initv), (72 bytes).
    Removing attitudeekf.o(i._Z21AttitudeEKF_terminatev), (2 bytes).
    Removing attitudeekf.o(i._Z22AttitudeEKF_initializev), (28 bytes).
    Removing attitudeekf.o(i._Z3invPKfPf), (806 bytes).
    Removing attitudeekf.o(i._Z4normPKf), (140 bytes).
    Removing attitudeekf.o(i._Z8mrdividePfPKf), (870 bytes).
    Removing attitudeekf.o(.ARM.exidx), (8 bytes).
    Removing attitudeekf.o(.ARM.exidx), (8 bytes).
    Removing attitudeekf.o(.ARM.exidx), (8 bytes).
    Removing attitudeekf.o(.ARM.exidx), (8 bytes).
    Removing attitudeekf.o(.ARM.exidx), (8 bytes).
    Removing attitudeekf.o(.ARM.exidx), (8 bytes).
    Removing attitudeekf.o(.ARM.exidx), (8 bytes).
    Removing attitudeekf.o(.ARM.exidx), (8 bytes).
    Removing attitudeekf.o(.bss), (2388 bytes).
    Removing attitudeekf.o(.constdata), (669 bytes).
    Removing attitudeekf.o(.data), (2 bytes).
    Removing uav_attitude.o(.rev16_text), (4 bytes).
    Removing uav_attitude.o(.revsh_text), (4 bytes).
    Removing uav_attitude.o(.rrx_text), (6 bytes).
    Removing uav_attitude.o(i._ZN9_ATTITUDE10GetDIS_SPEEf), (1212 bytes).
    Removing uav_attitude.o(i._ZN9_ATTITUDE10SPEControlEf), (928 bytes).
    Removing uav_attitude.o(.ARM.exidx), (8 bytes).
    Removing uav_attitude.o(.ARM.exidx), (8 bytes).
    Removing uav_attitude.o(.ARM.exidx), (8 bytes).
    Removing uav_attitude.o(.ARM.exidx), (8 bytes).
    Removing uav_attitude.o(.ARM.exidx), (8 bytes).
    Removing uav_gps_navigation.o(.rev16_text), (4 bytes).
    Removing uav_gps_navigation.o(.revsh_text), (4 bytes).
    Removing uav_gps_navigation.o(.rrx_text), (6 bytes).
    Removing uav_gps_navigation.o(i._ZN15_GPS_NAVIGATION19Distance_cm_BearingEPiS0_S0_S0_PjS0_), (172 bytes).
    Removing uav_gps_navigation.o(i._ZN15_GPS_NAVIGATION9CalcRatioEi), (56 bytes).
    Removing uav_gps_navigation.o(.ARM.exidx), (8 bytes).
    Removing uav_gps_navigation.o(.ARM.exidx), (8 bytes).
    Removing nav_speed.o(.rev16_text), (4 bytes).
    Removing nav_speed.o(.revsh_text), (4 bytes).
    Removing nav_speed.o(.rrx_text), (6 bytes).
    Removing nav_speed.o(i._ZN6NAV_V_4eastEf), (480 bytes).
    Removing nav_speed.o(i._ZN6NAV_V_6h_eastEf), (156 bytes).
    Removing nav_speed.o(i._ZN6NAV_V_7get_a_vEf), (36 bytes).
    Removing nav_speed.o(.ARM.exidx), (8 bytes).
    Removing nav_speed.o(.ARM.exidx), (8 bytes).
    Removing nav_speed.o(.ARM.exidx), (8 bytes).
    Removing nav_speed.o(.ARM.exidx), (8 bytes).
    Removing nav_h.o(.rev16_text), (4 bytes).
    Removing nav_h.o(.revsh_text), (4 bytes).
    Removing nav_h.o(.rrx_text), (6 bytes).
    Removing nav_h.o(i._ZN6NAV_H_3calEffRhf), (428 bytes).
    Removing nav_h.o(.ARM.exidx), (8 bytes).
    Removing nav_h.o(.ARM.exidx), (8 bytes).
    Removing nav_h.o(.data), (4 bytes).
    Removing nav_h_ekf.o(i._Z10eml_xgesvdPKfPfS1_S1_), (2592 bytes).
    Removing nav_h_ekf.o(i._Z11b_eml_xscalfPfi), (40 bytes).
    Removing nav_h_ekf.o(i._Z7eml_divdf), (44 bytes).
    Removing nav_h_ekf.o(i._Z8eml_xrotPfiiff), (94 bytes).
    Removing nav_h_ekf.o(i._Z9c_eml_divfd), (44 bytes).
    Removing nav_h_ekf.o(i._Z9eml_xaxpyfPf), (60 bytes).
    Removing nav_h_ekf.o(i._Z9eml_xdotcPKfS0_), (64 bytes).
    Removing nav_h_ekf.o(i._Z9eml_xnrm2PKf), (136 bytes).
    Removing nav_h_ekf.o(i._Z9eml_xrotgPfS_S_S_), (276 bytes).
    Removing nav_h_ekf.o(i._Z9eml_xscalfPf), (34 bytes).
    Removing nav_h_ekf.o(i._Z9eml_xswapPfii), (58 bytes).
    Removing nav_h_ekf.o(i._Z9nav_h_ekfPKfS0_S0_S0_S0_S0_hPfS1_S1_), (2492 bytes).
    Removing nav_h_ekf.o(.ARM.exidx), (8 bytes).
    Removing nav_h_ekf.o(.ARM.exidx), (8 bytes).
    Removing nav_h_ekf.o(.ARM.exidx), (8 bytes).
    Removing nav_h_ekf.o(.ARM.exidx), (8 bytes).
    Removing nav_h_ekf.o(.ARM.exidx), (8 bytes).
    Removing nav_h_ekf.o(.ARM.exidx), (8 bytes).
    Removing nav_h_ekf.o(.ARM.exidx), (8 bytes).
    Removing nav_h_ekf.o(.ARM.exidx), (8 bytes).
    Removing nav_h_ekf.o(.ARM.exidx), (8 bytes).
    Removing nav_h_ekf.o(.ARM.exidx), (8 bytes).
    Removing nav_h_ekf.o(.ARM.exidx), (8 bytes).
    Removing nav_h_ekf.o(.ARM.exidx), (8 bytes).
    Removing nav_h_ekf.o(.ARM.exidx), (8 bytes).
    Removing nav_h_ekf_initialize.o(i._Z20nav_h_ekf_initializev), (14 bytes).
    Removing nav_h_ekf_initialize.o(.ARM.exidx), (8 bytes).
    Removing nav_h_ekf_terminate.o(i._Z19nav_h_ekf_terminatev), (2 bytes).
    Removing nav_h_ekf_terminate.o(.ARM.exidx), (8 bytes).
    Removing svd.o(i._Z11c_eml_xscalfPfi), (24 bytes).
    Removing svd.o(i._Z3svdfPfS_S_), (146 bytes).
    Removing svd.o(i._Z9b_eml_divff), (10 bytes).
    Removing svd.o(.ARM.exidx), (8 bytes).
    Removing svd.o(.ARM.exidx), (8 bytes).
    Removing svd.o(.ARM.exidx), (8 bytes).
    Removing dev_rcc.o(.rev16_text), (4 bytes).
    Removing dev_rcc.o(.revsh_text), (4 bytes).
    Removing dev_rcc.o(.rrx_text), (6 bytes).
    Removing dev_rcc.o(.ARM.exidx), (8 bytes).
    Removing dev_rcc.o(.data), (1 bytes).
    Removing dev_i2c.o(.rev16_text), (4 bytes).
    Removing dev_i2c.o(.revsh_text), (4 bytes).
    Removing dev_i2c.o(.rrx_text), (6 bytes).
    Removing dev_i2c.o(i._ZN4_I2C4InitEv), (2 bytes).
    Removing dev_i2c.o(i._ZN4_I2C9MultWriteEhhhPh), (102 bytes).
    Removing dev_i2c.o(.ARM.exidx), (8 bytes).
    Removing dev_i2c.o(.ARM.exidx), (8 bytes).
    Removing dev_i2c.o(.ARM.exidx), (8 bytes).
    Removing dev_i2c.o(.ARM.exidx), (8 bytes).
    Removing dev_i2c.o(.ARM.exidx), (8 bytes).
    Removing dev_i2c.o(.ARM.exidx), (8 bytes).
    Removing dev_i2c.o(.ARM.exidx), (8 bytes).
    Removing dev_i2c.o(.ARM.exidx), (8 bytes).
    Removing dev_i2c.o(.ARM.exidx), (8 bytes).
    Removing dev_i2c.o(.ARM.exidx), (8 bytes).
    Removing dev_i2c.o(.ARM.exidx), (8 bytes).
    Removing dev_i2c.o(.ARM.exidx), (8 bytes).
    Removing dev_i2c.o(.ARM.exidx), (8 bytes).
    Removing dev_i2c.o(.data), (1 bytes).
    Removing dev_led.o(.rev16_text), (4 bytes).
    Removing dev_led.o(.revsh_text), (4 bytes).
    Removing dev_led.o(.rrx_text), (6 bytes).
    Removing dev_led.o(.ARM.exidx), (8 bytes).
    Removing dev_port.o(.rev16_text), (4 bytes).
    Removing dev_port.o(.revsh_text), (4 bytes).
    Removing dev_port.o(.rrx_text), (6 bytes).
    Removing dev_port.o(.ARM.exidx), (8 bytes).
    Removing dev_port.o(.data), (1 bytes).
    Removing dev_moto.o(.rev16_text), (4 bytes).
    Removing dev_moto.o(.revsh_text), (4 bytes).
    Removing dev_moto.o(.rrx_text), (6 bytes).
    Removing dev_moto.o(.ARM.exidx), (8 bytes).
    Removing dev_moto.o(.ARM.exidx), (8 bytes).
    Removing dev_moto.o(.ARM.exidx), (8 bytes).
    Removing dev_nvic.o(.rev16_text), (4 bytes).
    Removing dev_nvic.o(.revsh_text), (4 bytes).
    Removing dev_nvic.o(.rrx_text), (6 bytes).
    Removing dev_nvic.o(.ARM.exidx), (8 bytes).
    Removing dev_nvic.o(.data), (1 bytes).
    Removing dev_usart.o(.rev16_text), (4 bytes).
    Removing dev_usart.o(.revsh_text), (4 bytes).
    Removing dev_usart.o(.rrx_text), (6 bytes).
    Removing dev_usart.o(.ARM.exidx), (8 bytes).
    Removing dev_usart.o(.ARM.exidx), (8 bytes).
    Removing dev_usart.o(.ARM.exidx), (8 bytes).
    Removing dev_usart.o(.ARM.exidx), (8 bytes).
    Removing dev_usart.o(.ARM.exidx), (8 bytes).
    Removing dev_usart.o(.ARM.exidx), (8 bytes).
    Removing dev_debus.o(.rev16_text), (4 bytes).
    Removing dev_debus.o(.revsh_text), (4 bytes).
    Removing dev_debus.o(.rrx_text), (6 bytes).
    Removing dev_debus.o(.ARM.exidx), (8 bytes).
    Removing dev_clock.o(.rev16_text), (4 bytes).
    Removing dev_clock.o(.revsh_text), (4 bytes).
    Removing dev_clock.o(.rrx_text), (6 bytes).
    Removing dev_clock.o(i._Z15Cycle_Time_Initv), (22 bytes).
    Removing dev_clock.o(.ARM.exidx), (8 bytes).
    Removing dev_clock.o(.ARM.exidx), (8 bytes).
    Removing dev_clock.o(.ARM.exidx), (8 bytes).
    Removing dev_clock.o(.ARM.exidx), (8 bytes).
    Removing dev_clock.o(.ARM.exidx), (8 bytes).
    Removing dev_clock.o(.ARM.exidx), (8 bytes).
    Removing dev_clock.o(.ARM.exidx), (8 bytes).
    Removing dev_clock.o(.ARM.exidx), (8 bytes).
    Removing dev_clock.o(.ARM.exidx), (8 bytes).
    Removing dev_ak8975.o(.rev16_text), (4 bytes).
    Removing dev_ak8975.o(.revsh_text), (4 bytes).
    Removing dev_ak8975.o(.rrx_text), (6 bytes).
    Removing dev_ak8975.o(.ARM.exidx), (8 bytes).
    Removing dev_ak8975.o(.ARM.exidx), (8 bytes).
    Removing dev_ak8975.o(.ARM.exidx), (8 bytes).
    Removing dev_ak8975.o(.ARM.exidx), (8 bytes).
    Removing dev_mavlink.o(.rev16_text), (4 bytes).
    Removing dev_mavlink.o(.revsh_text), (4 bytes).
    Removing dev_mavlink.o(.rrx_text), (6 bytes).
    Removing dev_mavlink.o(i._ZN8_MAVLINK11Check_EventEv), (2 bytes).
    Removing dev_mavlink.o(i._ZN8_MAVLINK12Send_MotoPWMEtttttttt), (328 bytes).
    Removing dev_mavlink.o(.ARM.exidx), (8 bytes).
    Removing dev_mavlink.o(.ARM.exidx), (8 bytes).
    Removing dev_mavlink.o(.ARM.exidx), (8 bytes).
    Removing dev_mavlink.o(.ARM.exidx), (8 bytes).
    Removing dev_mavlink.o(.ARM.exidx), (8 bytes).
    Removing dev_mavlink.o(.ARM.exidx), (8 bytes).
    Removing dev_mavlink.o(.ARM.exidx), (8 bytes).
    Removing dev_mavlink.o(.ARM.exidx), (8 bytes).
    Removing dev_mavlink.o(.ARM.exidx), (8 bytes).
    Removing dev_mavlink.o(.ARM.exidx), (8 bytes).
    Removing dev_mavlink.o(.ARM.exidx), (8 bytes).
    Removing dev_mavlink.o(.ARM.exidx), (8 bytes).
    Removing dev_mavlink.o(.ARM.exidx), (8 bytes).
    Removing dev_ms5611.o(.rev16_text), (4 bytes).
    Removing dev_ms5611.o(.revsh_text), (4 bytes).
    Removing dev_ms5611.o(.rrx_text), (6 bytes).
    Removing dev_ms5611.o(.ARM.exidx), (8 bytes).
    Removing dev_ms5611.o(.ARM.exidx), (8 bytes).
    Removing dev_ms5611.o(.ARM.exidx), (8 bytes).
    Removing dev_ms5611.o(.ARM.exidx), (8 bytes).
    Removing dev_ms5611.o(.ARM.exidx), (8 bytes).
    Removing dev_ms5611.o(.ARM.exidx), (8 bytes).
    Removing dev_ms5611.o(.ARM.exidx), (8 bytes).
    Removing dev_ms5611.o(.ARM.exidx), (8 bytes).
    Removing dev_ms5611.o(.ARM.exidx), (8 bytes).
    Removing dev_ms5611.o(.ARM.exidx), (8 bytes).
    Removing dev_sd.o(.rev16_text), (4 bytes).
    Removing dev_sd.o(.revsh_text), (4 bytes).
    Removing dev_sd.o(.rrx_text), (6 bytes).
    Removing dev_sd.o(.emb_text), (16 bytes).
    Removing dev_sd.o(i._Z10SD_PowerONv), (484 bytes).
    Removing dev_sd.o(i._Z11SDEnWideBush), (172 bytes).
    Removing dev_sd.o(i._Z11SD_GetStatev), (26 bytes).
    Removing dev_sd.o(i._Z11SD_PowerOFFv), (12 bytes).
    Removing dev_sd.o(i._Z11SD_ReadDiskPhjh), (152 bytes).
    Removing dev_sd.o(i._Z12SD_ReadBlockPhxt), (616 bytes).
    Removing dev_sd.o(i._Z12SD_WriteDiskPhjh), (152 bytes).
    Removing dev_sd.o(i._Z13CmdResp2Errorv), (84 bytes).
    Removing dev_sd.o(i._Z13CmdResp3Errorv), (56 bytes).
    Removing dev_sd.o(i._Z13CmdResp6ErrorhPt), (148 bytes).
    Removing dev_sd.o(i._Z13CmdResp7Errorv), (76 bytes).
    Removing dev_sd.o(i._Z13SD_DMA_ConfigPjjj), (128 bytes).
    Removing dev_sd.o(i._Z13SD_SendStatusPj), (84 bytes).
    Removing dev_sd.o(i._Z13SD_WriteBlockPhxt), (904 bytes).
    Removing dev_sd.o(i._Z14SDIO_Clock_Seth), (20 bytes).
    Removing dev_sd.o(i._Z14SD_GetCardInfoP11SD_CardInfo), (788 bytes).
    Removing dev_sd.o(i._Z16SD_SetDeviceModej), (24 bytes).
    Removing dev_sd.o(i._Z16show_sdcard_infov), (344 bytes).
    Removing dev_sd.o(i._Z17IsCardProgrammingPh), (160 bytes).
    Removing dev_sd.o(i._Z17SD_SelectDeselectj), (48 bytes).
    Removing dev_sd.o(i._Z18SD_InitializeCardsv), (356 bytes).
    Removing dev_sd.o(i._Z18SD_ReadMultiBlocksPhxtj), (756 bytes).
    Removing dev_sd.o(i._Z19SD_WriteMultiBlocksPhxtj), (976 bytes).
    Removing dev_sd.o(i._Z20SDIO_Register_Deinitv), (56 bytes).
    Removing dev_sd.o(i._Z25SD_EnableWideBusOperationj), (104 bytes).
    Removing dev_sd.o(i._Z34convert_from_bytes_to_power_of_twot), (18 bytes).
    Removing dev_sd.o(i._Z7FindSCRtPj), (404 bytes).
    Removing dev_sd.o(i._Z7SD_Initv), (304 bytes).
    Removing dev_sd.o(i._Z8CmdErrorv), (48 bytes).
    Removing dev_sd.o(.ARM.exidx), (8 bytes).
    Removing dev_sd.o(.ARM.exidx), (8 bytes).
    Removing dev_sd.o(.ARM.exidx), (8 bytes).
    Removing dev_sd.o(.ARM.exidx), (8 bytes).
    Removing dev_sd.o(.ARM.exidx), (8 bytes).
    Removing dev_sd.o(.ARM.exidx), (8 bytes).
    Removing dev_sd.o(.ARM.exidx), (8 bytes).
    Removing dev_sd.o(.ARM.exidx), (8 bytes).
    Removing dev_sd.o(.ARM.exidx), (8 bytes).
    Removing dev_sd.o(.ARM.exidx), (8 bytes).
    Removing dev_sd.o(.ARM.exidx), (8 bytes).
    Removing dev_sd.o(.ARM.exidx), (8 bytes).
    Removing dev_sd.o(.ARM.exidx), (8 bytes).
    Removing dev_sd.o(.ARM.exidx), (8 bytes).
    Removing dev_sd.o(.ARM.exidx), (8 bytes).
    Removing dev_sd.o(.ARM.exidx), (8 bytes).
    Removing dev_sd.o(.ARM.exidx), (8 bytes).
    Removing dev_sd.o(.ARM.exidx), (8 bytes).
    Removing dev_sd.o(.ARM.exidx), (8 bytes).
    Removing dev_sd.o(.ARM.exidx), (8 bytes).
    Removing dev_sd.o(.ARM.exidx), (8 bytes).
    Removing dev_sd.o(.ARM.exidx), (8 bytes).
    Removing dev_sd.o(.ARM.exidx), (8 bytes).
    Removing dev_sd.o(.ARM.exidx), (8 bytes).
    Removing dev_sd.o(.ARM.exidx), (8 bytes).
    Removing dev_sd.o(.ARM.exidx), (8 bytes).
    Removing dev_sd.o(.ARM.exidx), (8 bytes).
    Removing dev_sd.o(.ARM.exidx), (8 bytes).
    Removing dev_sd.o(.ARM.exidx), (8 bytes).
    Removing dev_sd.o(.ARM.exidx), (8 bytes).
    Removing dev_sd.o(.ARM.exidx), (8 bytes).
    Removing dev_sd.o(.ARM.exidx), (8 bytes).
    Removing dev_mup6050.o(.rev16_text), (4 bytes).
    Removing dev_mup6050.o(.revsh_text), (4 bytes).
    Removing dev_mup6050.o(.rrx_text), (6 bytes).
    Removing dev_mup6050.o(.ARM.exidx), (8 bytes).
    Removing dev_mup6050.o(.ARM.exidx), (8 bytes).
    Removing dev_mup6050.o(.ARM.exidx), (8 bytes).
    Removing dev_mup6050.o(.ARM.exidx), (8 bytes).
    Removing dev_mup6050.o(.ARM.exidx), (8 bytes).
    Removing dev_mup6050.o(.ARM.exidx), (8 bytes).
    Removing dev_mup6050.o(.ARM.exidx), (8 bytes).
    Removing dev_mup6050.o(.ARM.exidx), (8 bytes).
    Removing dev_mup6050.o(.ARM.exidx), (8 bytes).
    Removing dev_mup6050.o(.ARM.exidx), (8 bytes).
    Removing dev_mup6050.o(.ARM.exidx), (8 bytes).
    Removing dev_mup6050.o(.ARM.exidx), (8 bytes).
    Removing dev_mup6050.o(.ARM.exidx), (8 bytes).
    Removing dev_mup6050.o(.ARM.exidx), (8 bytes).
    Removing dev_mup6050.o(.ARM.exidx), (8 bytes).
    Removing dev_mup6050.o(.ARM.exidx), (8 bytes).
    Removing dev_mup6050.o(.ARM.exidx), (8 bytes).
    Removing dev_mup6050.o(.ARM.exidx), (8 bytes).
    Removing dev_spi.o(.rev16_text), (4 bytes).
    Removing dev_spi.o(.revsh_text), (4 bytes).
    Removing dev_spi.o(.rrx_text), (6 bytes).
    Removing dev_spi.o(.ARM.exidx), (8 bytes).
    Removing dev_spi.o(.ARM.exidx), (8 bytes).
    Removing dev_spi.o(.ARM.exidx), (8 bytes).
    Removing dev_spi.o(.data), (1 bytes).
    Removing dev_flash.o(.rev16_text), (4 bytes).
    Removing dev_flash.o(.revsh_text), (4 bytes).
    Removing dev_flash.o(.rrx_text), (6 bytes).
    Removing dev_flash.o(i._ZN11_FLASH25Q3216SPI_Flash_WAKEUPEv), (40 bytes).
    Removing dev_flash.o(i._ZN11_FLASH25Q3218SPI_FLASH_Write_SREh), (40 bytes).
    Removing dev_flash.o(i._ZN11_FLASH25Q3219SPI_Flash_PowerDownEv), (40 bytes).
    Removing dev_flash.o(i._ZN11_FLASH25Q3220SPI_Flash_Erase_ChipEv), (52 bytes).
    Removing dev_flash.o(i._ZN11_FLASH25Q3223SPI_FLASH_Write_DisableEv), (32 bytes).
    Removing dev_flash.o(.ARM.exidx), (8 bytes).
    Removing dev_flash.o(.ARM.exidx), (8 bytes).
    Removing dev_flash.o(.ARM.exidx), (8 bytes).
    Removing dev_flash.o(.ARM.exidx), (8 bytes).
    Removing dev_flash.o(.ARM.exidx), (8 bytes).
    Removing dev_flash.o(.ARM.exidx), (8 bytes).
    Removing dev_flash.o(.ARM.exidx), (8 bytes).
    Removing dev_flash.o(.ARM.exidx), (8 bytes).
    Removing dev_flash.o(.ARM.exidx), (8 bytes).
    Removing dev_flash.o(.ARM.exidx), (8 bytes).
    Removing dev_flash.o(.ARM.exidx), (8 bytes).
    Removing dev_flash.o(.ARM.exidx), (8 bytes).
    Removing dev_flash.o(.ARM.exidx), (8 bytes).
    Removing dev_flash.o(.ARM.exidx), (8 bytes).
    Removing dev_flash.o(.ARM.exidx), (8 bytes).
    Removing dev_flash.o(.ARM.exidx), (8 bytes).
    Removing dev_flash.o(.ARM.exidx), (8 bytes).
    Removing dev_dma.o(.rev16_text), (4 bytes).
    Removing dev_dma.o(.revsh_text), (4 bytes).
    Removing dev_dma.o(.rrx_text), (6 bytes).
    Removing dev_dma.o(.ARM.exidx), (8 bytes).
    Removing dev_dma.o(.ARM.exidx), (8 bytes).
    Removing dev_us100.o(.rev16_text), (4 bytes).
    Removing dev_us100.o(.revsh_text), (4 bytes).
    Removing dev_us100.o(.rrx_text), (6 bytes).
    Removing dev_us100.o(.ARM.exidx), (8 bytes).
    Removing dev_us100.o(.ARM.exidx), (8 bytes).
    Removing dev_gps.o(.rev16_text), (4 bytes).
    Removing dev_gps.o(.revsh_text), (4 bytes).
    Removing dev_gps.o(.rrx_text), (6 bytes).
    Removing dev_gps.o(.ARM.exidx), (8 bytes).
    Removing dev_gps.o(.ARM.exidx), (8 bytes).
    Removing dev_gps.o(.ARM.exidx), (8 bytes).
    Removing dev_gps.o(.ARM.exidx), (8 bytes).
    Removing dev_gps.o(.ARM.exidx), (8 bytes).
    Removing dev_gps.o(.ARM.exidx), (8 bytes).
    Removing dev_gps.o(.ARM.exidx), (8 bytes).
    Removing dev_gps.o(.ARM.exidx), (8 bytes).
    Removing dev_gps.o(.ARM.exidx), (8 bytes).
    Removing dev_gps.o(.ARM.exidx), (8 bytes).
    Removing dev_gps.o(.ARM.exidx), (8 bytes).
    Removing dev_can.o(.rev16_text), (4 bytes).
    Removing dev_can.o(.revsh_text), (4 bytes).
    Removing dev_can.o(.rrx_text), (6 bytes).
    Removing cal_math.o(.rev16_text), (4 bytes).
    Removing cal_math.o(.revsh_text), (4 bytes).
    Removing cal_math.o(.rrx_text), (6 bytes).
    Removing cal_math.o(i._Z12pythagorous2ff), (52 bytes).
    Removing cal_math.o(i._Z12pythagorous3fff), (68 bytes).
    Removing cal_math.o(i._Z12pythagorous4ffff), (84 bytes).
    Removing cal_math.o(i._Z14To_180_degreesf), (72 bytes).
    Removing cal_math.o(i._Z2sqf), (10 bytes).
    Removing cal_math.o(i._Z7degreesf), (20 bytes).
    Removing cal_math.o(i._Z7invSqrtf), (52 bytes).
    Removing cal_math.o(i._Z9deathzoomff), (68 bytes).
    Removing cal_math.o(.ARM.exidx), (8 bytes).
    Removing cal_math.o(.ARM.exidx), (8 bytes).
    Removing cal_math.o(.ARM.exidx), (8 bytes).
    Removing cal_math.o(.ARM.exidx), (8 bytes).
    Removing cal_math.o(.ARM.exidx), (8 bytes).
    Removing cal_math.o(.ARM.exidx), (8 bytes).
    Removing cal_math.o(.ARM.exidx), (8 bytes).
    Removing cal_math.o(.ARM.exidx), (8 bytes).
    Removing cal_math.o(.ARM.exidx), (8 bytes).
    Removing cal_matrix3.o(.rev16_text), (4 bytes).
    Removing cal_matrix3.o(.revsh_text), (4 bytes).
    Removing cal_matrix3.o(.rrx_text), (6 bytes).
    Removing cal_vector3.o(.rev16_text), (4 bytes).
    Removing cal_vector3.o(.revsh_text), (4 bytes).
    Removing cal_vector3.o(.rrx_text), (6 bytes).
    Removing cal_quaternion.o(.rev16_text), (4 bytes).
    Removing cal_quaternion.o(.revsh_text), (4 bytes).
    Removing cal_quaternion.o(.rrx_text), (6 bytes).
    Removing cal_quaternion.o(i._ZN10Quaternion10from_eulerEfff), (226 bytes).
    Removing cal_quaternion.o(i._ZN10Quaternion13earth_to_bodyER7Vector3IfE), (100 bytes).
    Removing cal_quaternion.o(i._ZN10Quaternion14vector_gravityER7Vector3IfE), (110 bytes).
    Removing cal_quaternion.o(i._ZN10Quaternion15Runge_Kutta_1stER7Vector3IfEf), (536 bytes).
    Removing cal_quaternion.o(i._ZN10Quaternion15rotation_matrixER7Matrix3IfE), (290 bytes).
    Removing cal_quaternion.o(i._ZN10Quaternion8to_eulerEPfS0_S0_), (258 bytes).
    Removing cal_quaternion.o(i._ZN10Quaternion9normalizeEv), (102 bytes).
    Removing cal_quaternion.o(.ARM.exidx), (8 bytes).
    Removing cal_quaternion.o(.ARM.exidx), (8 bytes).
    Removing cal_quaternion.o(.ARM.exidx), (8 bytes).
    Removing cal_quaternion.o(.ARM.exidx), (8 bytes).
    Removing cal_quaternion.o(.ARM.exidx), (8 bytes).
    Removing cal_quaternion.o(.ARM.exidx), (8 bytes).
    Removing cal_quaternion.o(.ARM.exidx), (8 bytes).
    Removing cal_adrc.o(.rev16_text), (4 bytes).
    Removing cal_adrc.o(.revsh_text), (4 bytes).
    Removing cal_adrc.o(.rrx_text), (6 bytes).
    Removing cal_adrc.o(i._Z14ExtendStObsCalR13Extend_St_Obsffff), (364 bytes).
    Removing cal_adrc.o(i._Z15ExtendStObsCal2R14Extend_St_Obs2fffffff), (248 bytes).
    Removing cal_adrc.o(i._Z15ExtendStObsInitR13Extend_St_Obsff), (10 bytes).
    Removing cal_adrc.o(i._Z16ExtendStObsInit2R14Extend_St_Obs2f), (6 bytes).
    Removing cal_adrc.o(i._Z8dt2dtalpffRfffS_R4lpid), (168 bytes).
    Removing cal_adrc.o(.ARM.exidx), (8 bytes).
    Removing cal_adrc.o(.ARM.exidx), (8 bytes).
    Removing cal_adrc.o(.ARM.exidx), (8 bytes).
    Removing cal_adrc.o(.ARM.exidx), (8 bytes).
    Removing cal_adrc.o(.ARM.exidx), (8 bytes).
    Removing cal_adrc.o(.ARM.exidx), (8 bytes).
    Removing cal_adrc.o(.ARM.exidx), (8 bytes).
    Removing cal_adrc.o(.bss), (32 bytes).
    Removing cal_adrc.o(.data), (12 bytes).
    Removing fhan.o(.ARM.exidx), (8 bytes).
    Removing fal.o(i._Z11rt_powf_snfff), (420 bytes).
    Removing fal.o(i._Z3falfff), (152 bytes).
    Removing fal.o(.ARM.exidx), (8 bytes).
    Removing fal.o(.ARM.exidx), (8 bytes).
    Removing fal_initialize.o(.ARM.exidx), (8 bytes).
    Removing fal_terminate.o(i._Z13fal_terminatev), (2 bytes).
    Removing fal_terminate.o(.ARM.exidx), (8 bytes).
    Removing rt_nonfinite.o(i._Z7rtIsInfd), (76 bytes).
    Removing rt_nonfinite.o(i._Z7rtIsNaNd), (40 bytes).
    Removing rt_nonfinite.o(i._Z8rtIsInfFf), (48 bytes).
    Removing rt_nonfinite.o(i._Z8rtIsNaNFf), (18 bytes).
    Removing rt_nonfinite.o(.ARM.exidx), (8 bytes).
    Removing rt_nonfinite.o(.ARM.exidx), (8 bytes).
    Removing rt_nonfinite.o(.ARM.exidx), (8 bytes).
    Removing rt_nonfinite.o(.ARM.exidx), (8 bytes).
    Removing rt_nonfinite.o(.ARM.exidx), (8 bytes).
    Removing rtgetinf_1.o(.ARM.exidx), (8 bytes).
    Removing rtgetinf_1.o(.ARM.exidx), (8 bytes).
    Removing rtgetinf_1.o(.ARM.exidx), (8 bytes).
    Removing rtgetinf_1.o(.ARM.exidx), (8 bytes).
    Removing rtgetnan_1.o(.ARM.exidx), (8 bytes).
    Removing rtgetnan_1.o(.ARM.exidx), (8 bytes).
    Removing stm32f4xx_it.o(.rev16_text), (4 bytes).
    Removing stm32f4xx_it.o(.revsh_text), (4 bytes).
    Removing stm32f4xx_it.o(.rrx_text), (6 bytes).
    Removing stm32f4xx_it.o(.ARM.exidx), (8 bytes).
    Removing stm32f4xx_it.o(.ARM.exidx), (8 bytes).
    Removing stm32f4xx_it.o(.ARM.exidx), (8 bytes).
    Removing stm32f4xx_it.o(.ARM.exidx), (8 bytes).
    Removing stm32f4xx_it.o(.ARM.exidx), (8 bytes).
    Removing stm32f4xx_it.o(.ARM.exidx), (8 bytes).
    Removing stm32f4xx_it.o(.ARM.exidx), (8 bytes).
    Removing stm32f4xx_it.o(.ARM.exidx), (8 bytes).
    Removing stm32f4xx_it.o(.ARM.exidx), (8 bytes).
    Removing stm32f4xx_it.o(.ARM.exidx), (8 bytes).
    Removing stm32f4xx_it.o(.ARM.exidx), (8 bytes).
    Removing diskio.o(.rev16_text), (4 bytes).
    Removing diskio.o(.revsh_text), (4 bytes).
    Removing diskio.o(.rrx_text), (6 bytes).
    Removing diskio.o(i.disk_initialize), (80 bytes).
    Removing diskio.o(i.disk_ioctl), (172 bytes).
    Removing diskio.o(i.disk_read), (84 bytes).
    Removing diskio.o(i.disk_status), (24 bytes).
    Removing diskio.o(i.disk_write), (46 bytes).
    Removing diskio.o(i.get_fattime), (4 bytes).
    Removing diskio.o(.ARM.exidx), (8 bytes).
    Removing diskio.o(.ARM.exidx), (8 bytes).
    Removing diskio.o(.ARM.exidx), (8 bytes).
    Removing diskio.o(.ARM.exidx), (8 bytes).
    Removing diskio.o(.ARM.exidx), (8 bytes).
    Removing diskio.o(.ARM.exidx), (8 bytes).
    Removing ff.o(i._Z10clmt_clustP3FILm), (56 bytes).
    Removing ff.o(i._Z10clust2sectP5FATFSm), (26 bytes).
    Removing ff.o(i._Z10dir_removeP3DIR), (54 bytes).
    Removing ff.o(i._Z11create_nameP3DIRPPKc), (352 bytes).
    Removing ff.o(i._Z11find_volumePP5FATFSPPKch), (984 bytes).
    Removing ff.o(i._Z11follow_pathP3DIRPKc), (144 bytes).
    Removing ff.o(i._Z11move_windowP5FATFSm), (52 bytes).
    Removing ff.o(i._Z11sync_windowP5FATFS), (82 bytes).
    Removing ff.o(i._Z12create_chainP5FATFSm), (214 bytes).
    Removing ff.o(i._Z12dir_registerP3DIR), (58 bytes).
    Removing ff.o(i._Z12get_fileinfoP3DIRP7FILINFO), (110 bytes).
    Removing ff.o(i._Z12get_ldnumberPPKc), (74 bytes).
    Removing ff.o(i._Z12remove_chainP5FATFSm), (108 bytes).
    Removing ff.o(i._Z7chk_chrPKci), (20 bytes).
    Removing ff.o(i._Z7dir_sdiP3DIRj), (200 bytes).
    Removing ff.o(i._Z7get_fatP5FATFSm), (318 bytes).
    Removing ff.o(i._Z7mem_cmpPKvS0_j), (38 bytes).
    Removing ff.o(i._Z7mem_cpyPvPKvj), (26 bytes).
    Removing ff.o(i._Z7mem_setPvij), (20 bytes).
    Removing ff.o(i._Z7put_fatP5FATFSmm), (392 bytes).
    Removing ff.o(i._Z7sync_fsP5FATFS), (200 bytes).
    Removing ff.o(i._Z8check_fsP5FATFSm), (144 bytes).
    Removing ff.o(i._Z8dir_findP3DIR), (92 bytes).
    Removing ff.o(i._Z8dir_nextP3DIRi), (314 bytes).
    Removing ff.o(i._Z8dir_readP3DIRi), (114 bytes).
    Removing ff.o(i._Z8ld_clustP5FATFSPh), (32 bytes).
    Removing ff.o(i._Z8putc_bfdP7putbuffc), (68 bytes).
    Removing ff.o(i._Z8st_clustPhm), (16 bytes).
    Removing ff.o(i._Z8validatePv), (54 bytes).
    Removing ff.o(i._Z9dir_allocP3DIRj), (92 bytes).
    Removing ff.o(i.f_chmod), (84 bytes).
    Removing ff.o(i.f_close), (32 bytes).
    Removing ff.o(i.f_closedir), (22 bytes).
    Removing ff.o(i.f_getfree), (258 bytes).
    Removing ff.o(i.f_gets), (82 bytes).
    Removing ff.o(i.f_lseek), (726 bytes).
    Removing ff.o(i.f_mkdir), (352 bytes).
    Removing ff.o(i.f_mkfs), (1668 bytes).
    Removing ff.o(i.f_mount), (92 bytes).
    Removing ff.o(i.f_open), (356 bytes).
    Removing ff.o(i.f_opendir), (110 bytes).
    Removing ff.o(i.f_printf), (628 bytes).
    Removing ff.o(i.f_putc), (64 bytes).
    Removing ff.o(i.f_puts), (74 bytes).
    Removing ff.o(i.f_read), (482 bytes).
    Removing ff.o(i.f_readdir), (88 bytes).
    Removing ff.o(i.f_rename), (258 bytes).
    Removing ff.o(i.f_stat), (60 bytes).
    Removing ff.o(i.f_sync), (176 bytes).
    Removing ff.o(i.f_truncate), (184 bytes).
    Removing ff.o(i.f_unlink), (166 bytes).
    Removing ff.o(i.f_utime), (86 bytes).
    Removing ff.o(i.f_write), (540 bytes).
    Removing ff.o(.ARM.exidx), (8 bytes).
    Removing ff.o(.ARM.exidx), (8 bytes).
    Removing ff.o(.ARM.exidx), (8 bytes).
    Removing ff.o(.ARM.exidx), (8 bytes).
    Removing ff.o(.ARM.exidx), (8 bytes).
    Removing ff.o(.ARM.exidx), (8 bytes).
    Removing ff.o(.ARM.exidx), (8 bytes).
    Removing ff.o(.ARM.exidx), (8 bytes).
    Removing ff.o(.ARM.exidx), (8 bytes).
    Removing ff.o(.ARM.exidx), (8 bytes).
    Removing ff.o(.ARM.exidx), (8 bytes).
    Removing ff.o(.ARM.exidx), (8 bytes).
    Removing ff.o(.ARM.exidx), (8 bytes).
    Removing ff.o(.ARM.exidx), (8 bytes).
    Removing ff.o(.ARM.exidx), (8 bytes).
    Removing ff.o(.ARM.exidx), (8 bytes).
    Removing ff.o(.ARM.exidx), (8 bytes).
    Removing ff.o(.ARM.exidx), (8 bytes).
    Removing ff.o(.ARM.exidx), (8 bytes).
    Removing ff.o(.ARM.exidx), (8 bytes).
    Removing ff.o(.ARM.exidx), (8 bytes).
    Removing ff.o(.ARM.exidx), (8 bytes).
    Removing ff.o(.ARM.exidx), (8 bytes).
    Removing ff.o(.ARM.exidx), (8 bytes).
    Removing ff.o(.ARM.exidx), (8 bytes).
    Removing ff.o(.ARM.exidx), (8 bytes).
    Removing ff.o(.ARM.exidx), (8 bytes).
    Removing ff.o(.ARM.exidx), (8 bytes).
    Removing ff.o(.ARM.exidx), (8 bytes).
    Removing ff.o(.ARM.exidx), (8 bytes).
    Removing ff.o(.ARM.exidx), (8 bytes).
    Removing ff.o(.ARM.exidx), (8 bytes).
    Removing ff.o(.ARM.exidx), (8 bytes).
    Removing ff.o(.ARM.exidx), (8 bytes).
    Removing ff.o(.ARM.exidx), (8 bytes).
    Removing ff.o(.ARM.exidx), (8 bytes).
    Removing ff.o(.ARM.exidx), (8 bytes).
    Removing ff.o(.ARM.exidx), (8 bytes).
    Removing ff.o(.ARM.exidx), (8 bytes).
    Removing ff.o(.ARM.exidx), (8 bytes).
    Removing ff.o(.ARM.exidx), (8 bytes).
    Removing ff.o(.ARM.exidx), (8 bytes).
    Removing ff.o(.ARM.exidx), (8 bytes).
    Removing ff.o(.ARM.exidx), (8 bytes).
    Removing ff.o(.ARM.exidx), (8 bytes).
    Removing ff.o(.ARM.exidx), (8 bytes).
    Removing ff.o(.ARM.exidx), (8 bytes).
    Removing ff.o(.ARM.exidx), (8 bytes).
    Removing ff.o(.ARM.exidx), (8 bytes).
    Removing ff.o(.ARM.exidx), (8 bytes).
    Removing ff.o(.ARM.exidx), (8 bytes).
    Removing ff.o(.ARM.exidx), (8 bytes).
    Removing ff.o(.ARM.exidx), (8 bytes).
    Removing ff.o(.constdata), (44 bytes).
    Removing ff.o(.data), (10 bytes).
    Removing control_v.o(.rev16_text), (4 bytes).
    Removing control_v.o(.revsh_text), (4 bytes).
    Removing control_v.o(.rrx_text), (6 bytes).
    Removing control_v.o(i._ZN8CONTROL_1VEv), (368 bytes).
    Removing control_v.o(.ARM.exidx), (8 bytes).
    Removing control_v.o(.bss), (28 bytes).
    Removing system_stm32f4xx.o(.rev16_text), (4 bytes).
    Removing system_stm32f4xx.o(.revsh_text), (4 bytes).
    Removing system_stm32f4xx.o(.rrx_text), (6 bytes).
    Removing system_stm32f4xx.o(i.SystemCoreClockUpdate), (192 bytes).
    Removing system_stm32f4xx.o(.ARM.exidx), (8 bytes).
    Removing system_stm32f4xx.o(.ARM.exidx), (8 bytes).
    Removing system_stm32f4xx.o(.ARM.exidx), (8 bytes).
    Removing system_stm32f4xx.o(.data), (20 bytes).
    Removing misc.o(.rev16_text), (4 bytes).
    Removing misc.o(.revsh_text), (4 bytes).
    Removing misc.o(.rrx_text), (6 bytes).
    Removing misc.o(i.NVIC_SetVectorTable), (20 bytes).
    Removing misc.o(i.NVIC_SystemLPConfig), (32 bytes).
    Removing stm32f4xx_dma.o(.rev16_text), (4 bytes).
    Removing stm32f4xx_dma.o(.revsh_text), (4 bytes).
    Removing stm32f4xx_dma.o(.rrx_text), (6 bytes).
    Removing stm32f4xx_dma.o(i.DMA_DoubleBufferModeCmd), (22 bytes).
    Removing stm32f4xx_dma.o(i.DMA_DoubleBufferModeConfig), (24 bytes).
    Removing stm32f4xx_dma.o(i.DMA_FlowControllerConfig), (22 bytes).
    Removing stm32f4xx_dma.o(i.DMA_GetCmdStatus), (20 bytes).
    Removing stm32f4xx_dma.o(i.DMA_GetCurrDataCounter), (8 bytes).
    Removing stm32f4xx_dma.o(i.DMA_GetCurrentMemoryTarget), (20 bytes).
    Removing stm32f4xx_dma.o(i.DMA_GetFIFOStatus), (12 bytes).
    Removing stm32f4xx_dma.o(i.DMA_GetFlagStatus), (68 bytes).
    Removing stm32f4xx_dma.o(i.DMA_MemoryTargetConfig), (10 bytes).
    Removing stm32f4xx_dma.o(i.DMA_PeriphIncOffsetSizeConfig), (22 bytes).
    Removing stm32f4xx_dma.o(i.DMA_SetCurrDataCounter), (4 bytes).
    Removing stm32f4xx_dma.o(i.DMA_StructInit), (34 bytes).
    Removing stm32f4xx_gpio.o(.rev16_text), (4 bytes).
    Removing stm32f4xx_gpio.o(.revsh_text), (4 bytes).
    Removing stm32f4xx_gpio.o(.rrx_text), (6 bytes).
    Removing stm32f4xx_gpio.o(i.GPIO_DeInit), (256 bytes).
    Removing stm32f4xx_gpio.o(i.GPIO_PinLockConfig), (34 bytes).
    Removing stm32f4xx_gpio.o(i.GPIO_ReadInputData), (8 bytes).
    Removing stm32f4xx_gpio.o(i.GPIO_ReadInputDataBit), (18 bytes).
    Removing stm32f4xx_gpio.o(i.GPIO_ReadOutputData), (8 bytes).
    Removing stm32f4xx_gpio.o(i.GPIO_ReadOutputDataBit), (18 bytes).
    Removing stm32f4xx_gpio.o(i.GPIO_StructInit), (18 bytes).
    Removing stm32f4xx_gpio.o(i.GPIO_ToggleBits), (8 bytes).
    Removing stm32f4xx_gpio.o(i.GPIO_Write), (4 bytes).
    Removing stm32f4xx_gpio.o(i.GPIO_WriteBit), (10 bytes).
    Removing stm32f4xx_rcc.o(.rev16_text), (4 bytes).
    Removing stm32f4xx_rcc.o(.revsh_text), (4 bytes).
    Removing stm32f4xx_rcc.o(.rrx_text), (6 bytes).
    Removing stm32f4xx_rcc.o(i.RCC_AHB1PeriphClockLPModeCmd), (32 bytes).
    Removing stm32f4xx_rcc.o(i.RCC_AHB1PeriphResetCmd), (32 bytes).
    Removing stm32f4xx_rcc.o(i.RCC_AHB2PeriphClockCmd), (32 bytes).
    Removing stm32f4xx_rcc.o(i.RCC_AHB2PeriphClockLPModeCmd), (32 bytes).
    Removing stm32f4xx_rcc.o(i.RCC_AHB2PeriphResetCmd), (32 bytes).
    Removing stm32f4xx_rcc.o(i.RCC_AHB3PeriphClockCmd), (32 bytes).
    Removing stm32f4xx_rcc.o(i.RCC_AHB3PeriphClockLPModeCmd), (32 bytes).
    Removing stm32f4xx_rcc.o(i.RCC_AHB3PeriphResetCmd), (32 bytes).
    Removing stm32f4xx_rcc.o(i.RCC_APB1PeriphClockLPModeCmd), (32 bytes).
    Removing stm32f4xx_rcc.o(i.RCC_APB2PeriphClockLPModeCmd), (32 bytes).
    Removing stm32f4xx_rcc.o(i.RCC_AdjustHSICalibrationValue), (24 bytes).
    Removing stm32f4xx_rcc.o(i.RCC_BackupResetCmd), (12 bytes).
    Removing stm32f4xx_rcc.o(i.RCC_ClearFlag), (20 bytes).
    Removing stm32f4xx_rcc.o(i.RCC_ClearITPendingBit), (12 bytes).
    Removing stm32f4xx_rcc.o(i.RCC_ClockSecuritySystemCmd), (12 bytes).
    Removing stm32f4xx_rcc.o(i.RCC_DeInit), (72 bytes).
    Removing stm32f4xx_rcc.o(i.RCC_GetFlagStatus), (64 bytes).
    Removing stm32f4xx_rcc.o(i.RCC_GetITStatus), (24 bytes).
    Removing stm32f4xx_rcc.o(i.RCC_GetSYSCLKSource), (16 bytes).
    Removing stm32f4xx_rcc.o(i.RCC_HCLKConfig), (24 bytes).
    Removing stm32f4xx_rcc.o(i.RCC_HSEConfig), (16 bytes).
    Removing stm32f4xx_rcc.o(i.RCC_HSICmd), (12 bytes).
    Removing stm32f4xx_rcc.o(i.RCC_I2SCLKConfig), (12 bytes).
    Removing stm32f4xx_rcc.o(i.RCC_ITConfig), (32 bytes).
    Removing stm32f4xx_rcc.o(i.RCC_LSEConfig), (44 bytes).
    Removing stm32f4xx_rcc.o(i.RCC_LSICmd), (12 bytes).
    Removing stm32f4xx_rcc.o(i.RCC_MCO1Config), (28 bytes).
    Removing stm32f4xx_rcc.o(i.RCC_MCO2Config), (28 bytes).
    Removing stm32f4xx_rcc.o(i.RCC_PCLK1Config), (24 bytes).
    Removing stm32f4xx_rcc.o(i.RCC_PCLK2Config), (24 bytes).
    Removing stm32f4xx_rcc.o(i.RCC_PLLCmd), (12 bytes).
    Removing stm32f4xx_rcc.o(i.RCC_PLLConfig), (36 bytes).
    Removing stm32f4xx_rcc.o(i.RCC_PLLI2SCmd), (12 bytes).
    Removing stm32f4xx_rcc.o(i.RCC_PLLI2SConfig), (16 bytes).
    Removing stm32f4xx_rcc.o(i.RCC_RTCCLKCmd), (12 bytes).
    Removing stm32f4xx_rcc.o(i.RCC_RTCCLKConfig), (60 bytes).
    Removing stm32f4xx_rcc.o(i.RCC_SYSCLKConfig), (24 bytes).
    Removing stm32f4xx_rcc.o(i.RCC_WaitForHSEStartUp), (56 bytes).
    Removing stm32f4xx_sdio.o(.rev16_text), (4 bytes).
    Removing stm32f4xx_sdio.o(.revsh_text), (4 bytes).
    Removing stm32f4xx_sdio.o(.rrx_text), (6 bytes).
    Removing stm32f4xx_sdio.o(i.SDIO_CEATAITCmd), (16 bytes).
    Removing stm32f4xx_sdio.o(i.SDIO_ClearITPendingBit), (12 bytes).
    Removing stm32f4xx_sdio.o(i.SDIO_ClockCmd), (12 bytes).
    Removing stm32f4xx_sdio.o(i.SDIO_CmdStructInit), (14 bytes).
    Removing stm32f4xx_sdio.o(i.SDIO_CommandCompletionCmd), (12 bytes).
    Removing stm32f4xx_sdio.o(i.SDIO_DMACmd), (12 bytes).
    Removing stm32f4xx_sdio.o(i.SDIO_DataConfig), (52 bytes).
    Removing stm32f4xx_sdio.o(i.SDIO_DataStructInit), (20 bytes).
    Removing stm32f4xx_sdio.o(i.SDIO_DeInit), (22 bytes).
    Removing stm32f4xx_sdio.o(i.SDIO_GetCommandResponse), (12 bytes).
    Removing stm32f4xx_sdio.o(i.SDIO_GetDataCounter), (12 bytes).
    Removing stm32f4xx_sdio.o(i.SDIO_GetFIFOCount), (12 bytes).
    Removing stm32f4xx_sdio.o(i.SDIO_GetITStatus), (24 bytes).
    Removing stm32f4xx_sdio.o(i.SDIO_GetPowerState), (16 bytes).
    Removing stm32f4xx_sdio.o(i.SDIO_GetResponse), (24 bytes).
    Removing stm32f4xx_sdio.o(i.SDIO_ITConfig), (32 bytes).
    Removing stm32f4xx_sdio.o(i.SDIO_Init), (48 bytes).
    Removing stm32f4xx_sdio.o(i.SDIO_ReadData), (12 bytes).
    Removing stm32f4xx_sdio.o(i.SDIO_SendCEATACmd), (12 bytes).
    Removing stm32f4xx_sdio.o(i.SDIO_SendSDIOSuspendCmd), (12 bytes).
    Removing stm32f4xx_sdio.o(i.SDIO_SetPowerState), (12 bytes).
    Removing stm32f4xx_sdio.o(i.SDIO_SetSDIOOperation), (12 bytes).
    Removing stm32f4xx_sdio.o(i.SDIO_SetSDIOReadWaitMode), (12 bytes).
    Removing stm32f4xx_sdio.o(i.SDIO_StartSDIOReadWait), (12 bytes).
    Removing stm32f4xx_sdio.o(i.SDIO_StopSDIOReadWait), (12 bytes).
    Removing stm32f4xx_sdio.o(i.SDIO_StructInit), (16 bytes).
    Removing stm32f4xx_sdio.o(i.SDIO_WriteData), (12 bytes).
    Removing stm32f4xx_spi.o(.rev16_text), (4 bytes).
    Removing stm32f4xx_spi.o(.revsh_text), (4 bytes).
    Removing stm32f4xx_spi.o(.rrx_text), (6 bytes).
    Removing stm32f4xx_spi.o(i.I2S_Cmd), (24 bytes).
    Removing stm32f4xx_spi.o(i.I2S_FullDuplexConfig), (80 bytes).
    Removing stm32f4xx_spi.o(i.I2S_Init), (360 bytes).
    Removing stm32f4xx_spi.o(i.I2S_StructInit), (20 bytes).
    Removing stm32f4xx_spi.o(i.SPI_BiDirectionalLineConfig), (28 bytes).
    Removing stm32f4xx_spi.o(i.SPI_CalculateCRC), (24 bytes).
    Removing stm32f4xx_spi.o(i.SPI_DataSizeConfig), (18 bytes).
    Removing stm32f4xx_spi.o(i.SPI_GetCRC), (16 bytes).
    Removing stm32f4xx_spi.o(i.SPI_GetCRCPolynomial), (6 bytes).
    Removing stm32f4xx_spi.o(i.SPI_I2S_ClearFlag), (6 bytes).
    Removing stm32f4xx_spi.o(i.SPI_I2S_ClearITPendingBit), (20 bytes).
    Removing stm32f4xx_spi.o(i.SPI_I2S_DMACmd), (18 bytes).
    Removing stm32f4xx_spi.o(i.SPI_I2S_DeInit), (88 bytes).
    Removing stm32f4xx_spi.o(i.SPI_I2S_GetITStatus), (52 bytes).
    Removing stm32f4xx_spi.o(i.SPI_I2S_ITConfig), (32 bytes).
    Removing stm32f4xx_spi.o(i.SPI_NSSInternalSoftwareConfig), (30 bytes).
    Removing stm32f4xx_spi.o(i.SPI_SSOutputCmd), (24 bytes).
    Removing stm32f4xx_spi.o(i.SPI_StructInit), (24 bytes).
    Removing stm32f4xx_spi.o(i.SPI_TIModeCmd), (24 bytes).
    Removing stm32f4xx_spi.o(i.SPI_TransmitCRC), (10 bytes).
    Removing stm32f4xx_tim.o(.rev16_text), (4 bytes).
    Removing stm32f4xx_tim.o(.revsh_text), (4 bytes).
    Removing stm32f4xx_tim.o(.rrx_text), (6 bytes).
    Removing stm32f4xx_tim.o(i.TI1_Config), (58 bytes).
    Removing stm32f4xx_tim.o(i.TI2_Config), (80 bytes).
    Removing stm32f4xx_tim.o(i.TI3_Config), (72 bytes).
    Removing stm32f4xx_tim.o(i.TI4_Config), (80 bytes).
    Removing stm32f4xx_tim.o(i.TIM_BDTRConfig), (32 bytes).
    Removing stm32f4xx_tim.o(i.TIM_BDTRStructInit), (18 bytes).
    Removing stm32f4xx_tim.o(i.TIM_CCPreloadControl), (24 bytes).
    Removing stm32f4xx_tim.o(i.TIM_CCxCmd), (30 bytes).
    Removing stm32f4xx_tim.o(i.TIM_CCxNCmd), (30 bytes).
    Removing stm32f4xx_tim.o(i.TIM_ClearFlag), (6 bytes).
    Removing stm32f4xx_tim.o(i.TIM_ClearITPendingBit), (6 bytes).
    Removing stm32f4xx_tim.o(i.TIM_ClearOC1Ref), (18 bytes).
    Removing stm32f4xx_tim.o(i.TIM_ClearOC2Ref), (24 bytes).
    Removing stm32f4xx_tim.o(i.TIM_ClearOC3Ref), (18 bytes).
    Removing stm32f4xx_tim.o(i.TIM_ClearOC4Ref), (24 bytes).
    Removing stm32f4xx_tim.o(i.TIM_CounterModeConfig), (18 bytes).
    Removing stm32f4xx_tim.o(i.TIM_DMACmd), (18 bytes).
    Removing stm32f4xx_tim.o(i.TIM_DMAConfig), (10 bytes).
    Removing stm32f4xx_tim.o(i.TIM_DeInit), (400 bytes).
    Removing stm32f4xx_tim.o(i.TIM_ETRClockMode1Config), (54 bytes).
    Removing stm32f4xx_tim.o(i.TIM_ETRClockMode2Config), (32 bytes).
    Removing stm32f4xx_tim.o(i.TIM_ETRConfig), (28 bytes).
    Removing stm32f4xx_tim.o(i.TIM_EncoderInterfaceConfig), (66 bytes).
    Removing stm32f4xx_tim.o(i.TIM_ForcedOC1Config), (18 bytes).
    Removing stm32f4xx_tim.o(i.TIM_ForcedOC2Config), (26 bytes).
    Removing stm32f4xx_tim.o(i.TIM_ForcedOC3Config), (18 bytes).
    Removing stm32f4xx_tim.o(i.TIM_ForcedOC4Config), (26 bytes).
    Removing stm32f4xx_tim.o(i.TIM_GenerateEvent), (4 bytes).
    Removing stm32f4xx_tim.o(i.TIM_GetCapture1), (6 bytes).
    Removing stm32f4xx_tim.o(i.TIM_GetCapture2), (6 bytes).
    Removing stm32f4xx_tim.o(i.TIM_GetCapture3), (6 bytes).
    Removing stm32f4xx_tim.o(i.TIM_GetCapture4), (6 bytes).
    Removing stm32f4xx_tim.o(i.TIM_GetCounter), (6 bytes).
    Removing stm32f4xx_tim.o(i.TIM_GetFlagStatus), (18 bytes).
    Removing stm32f4xx_tim.o(i.TIM_GetITStatus), (34 bytes).
    Removing stm32f4xx_tim.o(i.TIM_GetPrescaler), (6 bytes).
    Removing stm32f4xx_tim.o(i.TIM_ICInit), (110 bytes).
    Removing stm32f4xx_tim.o(i.TIM_ICStructInit), (18 bytes).
    Removing stm32f4xx_tim.o(i.TIM_ITConfig), (18 bytes).
    Removing stm32f4xx_tim.o(i.TIM_ITRxExternalClockConfig), (24 bytes).
    Removing stm32f4xx_tim.o(i.TIM_InternalClockConfig), (12 bytes).
    Removing stm32f4xx_tim.o(i.TIM_OC1FastConfig), (18 bytes).
    Removing stm32f4xx_tim.o(i.TIM_OC1NPolarityConfig), (18 bytes).
    Removing stm32f4xx_tim.o(i.TIM_OC1PolarityConfig), (18 bytes).
    Removing stm32f4xx_tim.o(i.TIM_OC2FastConfig), (26 bytes).
    Removing stm32f4xx_tim.o(i.TIM_OC2NPolarityConfig), (26 bytes).
    Removing stm32f4xx_tim.o(i.TIM_OC2PolarityConfig), (26 bytes).
    Removing stm32f4xx_tim.o(i.TIM_OC3FastConfig), (18 bytes).
    Removing stm32f4xx_tim.o(i.TIM_OC3NPolarityConfig), (26 bytes).
    Removing stm32f4xx_tim.o(i.TIM_OC3PolarityConfig), (26 bytes).
    Removing stm32f4xx_tim.o(i.TIM_OC4FastConfig), (26 bytes).
    Removing stm32f4xx_tim.o(i.TIM_OC4PolarityConfig), (26 bytes).
    Removing stm32f4xx_tim.o(i.TIM_OCStructInit), (20 bytes).
    Removing stm32f4xx_tim.o(i.TIM_PWMIConfig), (124 bytes).
    Removing stm32f4xx_tim.o(i.TIM_PrescalerConfig), (6 bytes).
    Removing stm32f4xx_tim.o(i.TIM_RemapConfig), (6 bytes).
    Removing stm32f4xx_tim.o(i.TIM_SelectCCDMA), (24 bytes).
    Removing stm32f4xx_tim.o(i.TIM_SelectCOM), (24 bytes).
    Removing stm32f4xx_tim.o(i.TIM_SelectHallSensor), (24 bytes).
    Removing stm32f4xx_tim.o(i.TIM_SelectInputTrigger), (18 bytes).
    Removing stm32f4xx_tim.o(i.TIM_SelectMasterSlaveMode), (18 bytes).
    Removing stm32f4xx_tim.o(i.TIM_SelectOCxM), (86 bytes).
    Removing stm32f4xx_tim.o(i.TIM_SelectOnePulseMode), (18 bytes).
    Removing stm32f4xx_tim.o(i.TIM_SelectOutputTrigger), (18 bytes).
    Removing stm32f4xx_tim.o(i.TIM_SelectSlaveMode), (18 bytes).
    Removing stm32f4xx_tim.o(i.TIM_SetAutoreload), (4 bytes).
    Removing stm32f4xx_tim.o(i.TIM_SetClockDivision), (18 bytes).
    Removing stm32f4xx_tim.o(i.TIM_SetCounter), (4 bytes).
    Removing stm32f4xx_tim.o(i.TIM_SetIC1Prescaler), (18 bytes).
    Removing stm32f4xx_tim.o(i.TIM_SetIC2Prescaler), (26 bytes).
    Removing stm32f4xx_tim.o(i.TIM_SetIC3Prescaler), (18 bytes).
    Removing stm32f4xx_tim.o(i.TIM_SetIC4Prescaler), (26 bytes).
    Removing stm32f4xx_tim.o(i.TIM_TIxExternalClockConfig), (62 bytes).
    Removing stm32f4xx_tim.o(i.TIM_TimeBaseStructInit), (18 bytes).
    Removing stm32f4xx_tim.o(i.TIM_UpdateDisableConfig), (24 bytes).
    Removing stm32f4xx_tim.o(i.TIM_UpdateRequestConfig), (24 bytes).
    Removing stm32f4xx_usart.o(.rev16_text), (4 bytes).
    Removing stm32f4xx_usart.o(.revsh_text), (4 bytes).
    Removing stm32f4xx_usart.o(.rrx_text), (6 bytes).
    Removing stm32f4xx_usart.o(i.USART_ClearFlag), (18 bytes).
    Removing stm32f4xx_usart.o(i.USART_ClockInit), (32 bytes).
    Removing stm32f4xx_usart.o(i.USART_ClockStructInit), (12 bytes).
    Removing stm32f4xx_usart.o(i.USART_HalfDuplexCmd), (24 bytes).
    Removing stm32f4xx_usart.o(i.USART_IrDACmd), (24 bytes).
    Removing stm32f4xx_usart.o(i.USART_IrDAConfig), (18 bytes).
    Removing stm32f4xx_usart.o(i.USART_LINBreakDetectLengthConfig), (18 bytes).
    Removing stm32f4xx_usart.o(i.USART_LINCmd), (24 bytes).
    Removing stm32f4xx_usart.o(i.USART_OneBitMethodCmd), (24 bytes).
    Removing stm32f4xx_usart.o(i.USART_OverSampling8Cmd), (22 bytes).
    Removing stm32f4xx_usart.o(i.USART_ReceiverWakeUpCmd), (24 bytes).
    Removing stm32f4xx_usart.o(i.USART_SendBreak), (10 bytes).
    Removing stm32f4xx_usart.o(i.USART_SetAddress), (18 bytes).
    Removing stm32f4xx_usart.o(i.USART_SetGuardTime), (16 bytes).
    Removing stm32f4xx_usart.o(i.USART_SetPrescaler), (16 bytes).
    Removing stm32f4xx_usart.o(i.USART_SmartCardCmd), (24 bytes).
    Removing stm32f4xx_usart.o(i.USART_SmartCardNACKCmd), (24 bytes).
    Removing stm32f4xx_usart.o(i.USART_StructInit), (24 bytes).
    Removing stm32f4xx_usart.o(i.USART_WakeUpConfig), (18 bytes).
    Removing dneg.o(.text), (6 bytes).
    Removing ffltul.o(.text), (28 bytes).
    Removing dflti.o(.text), (34 bytes).
    Removing ffixul.o(.text), (44 bytes).
    Removing fpstat.o(.text), (4 bytes).
    Removing dfltui.o(.text), (26 bytes).
    Removing dfixi.o(.text), (62 bytes).
    Removing uav_filter.o(.ARM.exidx), (8 bytes).
    Removing uav_filter.o(t._ZN7Vector3IiEC1Ev), (10 bytes).
    Removing uav_filter.o(.ARM.exidx), (8 bytes).
    Removing ekf_att_pos_estimator_main.o(.ARM.exidx), (8 bytes).
    Removing ekf_att_pos_estimator_main.o(.ARM.exidx), (8 bytes).
    Removing estimator_22states.o(.ARM.exidx), (8 bytes).
    Removing estimator_22states.o(.ARM.exidx), (8 bytes).
    Removing estimator_22states.o(.ARM.exidx), (8 bytes).
    Removing estimator_22states.o(i._ZN9AttPosEKF2sqEf), (10 bytes).
    Removing estimator_22states.o(.ARM.exidx), (8 bytes).
    Removing estimator_22states.o(i._ZSt3sinf), (24 bytes).
    Removing estimator_22states.o(.ARM.exidx), (8 bytes).
    Removing estimator_22states.o(i._ZSt3cosf), (24 bytes).
    Removing estimator_22states.o(.ARM.exidx), (8 bytes).
    Removing imu.o(.ARM.exidx), (8 bytes).
    Removing imu_dcm.o(.ARM.exidx), (8 bytes).
    Removing imu_gradient.o(i._ZSt5atan2ff), (32 bytes).
    Removing imu_gradient.o(.ARM.exidx), (8 bytes).
    Removing attitudeekf.o(i._ZSt4fabsf), (10 bytes).
    Removing attitudeekf.o(.ARM.exidx), (8 bytes).
    Removing nav_h_ekf.o(i._ZSt4sqrtf), (24 bytes).
    Removing nav_h_ekf.o(.ARM.exidx), (8 bytes).
    Removing dev_ak8975.o(.ARM.exidx), (8 bytes).
    Removing dev_mup6050.o(.ARM.exidx), (8 bytes).
    Removing cal_matrix3.o(t._ZN7Matrix3IfEC1Ev), (40 bytes).
    Removing cal_matrix3.o(.ARM.exidx), (8 bytes).
    Removing cal_matrix3.o(t._ZN7Matrix3IfEC1E7Vector3IfES2_S2_), (38 bytes).
    Removing cal_matrix3.o(.ARM.exidx), (8 bytes).
    Removing cal_matrix3.o(t._ZN7Matrix3IfEpLERKS0_), (138 bytes).
    Removing cal_matrix3.o(.ARM.exidx), (8 bytes).
    Removing cal_matrix3.o(t._ZNK7Matrix3IfEmlERK7Vector3IfE), (146 bytes).
    Removing cal_matrix3.o(.ARM.exidx), (8 bytes).
    Removing cal_matrix3.o(t._ZNK7Matrix3IfE13mul_transposeERK7Vector3IfE), (146 bytes).
    Removing cal_matrix3.o(.ARM.exidx), (8 bytes).
    Removing cal_matrix3.o(t._ZNK7Matrix3IfEmlERKS0_), (454 bytes).
    Removing cal_matrix3.o(.ARM.exidx), (8 bytes).
    Removing cal_matrix3.o(t._ZNK7Matrix3IfE10transposedEv), (154 bytes).
    Removing cal_matrix3.o(.ARM.exidx), (8 bytes).
    Removing cal_matrix3.o(t._ZN7Matrix3IfE4zeroEv), (56 bytes).
    Removing cal_matrix3.o(.ARM.exidx), (8 bytes).
    Removing cal_matrix3.o(t._ZN7Matrix3IfE10from_eulerERK7Vector3IfE), (220 bytes).
    Removing cal_matrix3.o(.ARM.exidx), (8 bytes).
    Removing cal_matrix3.o(t._ZN7Matrix3IfE8to_eulerEPfS1_S1_), (162 bytes).
    Removing cal_matrix3.o(.ARM.exidx), (8 bytes).
    Removing cal_matrix3.o(t._ZN7Matrix3IfE6rotateERK7Vector3IfE), (278 bytes).
    Removing cal_matrix3.o(.ARM.exidx), (8 bytes).
    Removing cal_matrix3.o(t._ZN7Matrix3IfE8rotateXYERK7Vector3IfE), (218 bytes).
    Removing cal_matrix3.o(.ARM.exidx), (8 bytes).
    Removing cal_vector3.o(i.__ARM_isnan), (36 bytes).
    Removing cal_vector3.o(.ARM.exidx), (8 bytes).
    Removing cal_vector3.o(t._ZNK7Vector3IfE6lengthEv), (34 bytes).
    Removing cal_vector3.o(.ARM.exidx), (8 bytes).
    Removing cal_vector3.o(.ARM.exidx), (8 bytes).
    Removing cal_vector3.o(t._ZNK7Vector3IfE5angleERKS0_), (64 bytes).
    Removing cal_vector3.o(.ARM.exidx), (8 bytes).
    Removing cal_vector3.o(t._ZN7Vector3IfE13get_rollpitchERS0_), (224 bytes).
    Removing cal_vector3.o(.ARM.exidx), (8 bytes).
    Removing cal_vector3.o(t._ZN7Vector3IfE7get_yawERS0_), (112 bytes).
    Removing cal_vector3.o(.ARM.exidx), (8 bytes).
    Removing cal_vector3.o(t._ZNK7Vector3IfE6is_nanEv), (60 bytes).
    Removing cal_vector3.o(.ARM.exidx), (8 bytes).
    Removing cal_vector3.o(t._ZNK7Vector3IfErmERKS0_), (110 bytes).
    Removing cal_vector3.o(.ARM.exidx), (8 bytes).
    Removing cal_vector3.o(.ARM.exidx), (8 bytes).
    Removing cal_vector3.o(t._ZN7Vector3IfEmLEf), (38 bytes).
    Removing cal_vector3.o(.ARM.exidx), (8 bytes).
    Removing cal_vector3.o(.ARM.exidx), (8 bytes).
    Removing cal_vector3.o(t._ZN7Vector3IfEdVEf), (38 bytes).
    Removing cal_vector3.o(.ARM.exidx), (8 bytes).
    Removing cal_vector3.o(t._ZNK7Vector3IfEngEv), (60 bytes).
    Removing cal_vector3.o(.ARM.exidx), (8 bytes).
    Removing cal_vector3.o(.ARM.exidx), (8 bytes).
    Removing cal_vector3.o(.ARM.exidx), (8 bytes).
    Removing cal_vector3.o(.ARM.exidx), (8 bytes).
    Removing cal_vector3.o(t._ZN7Vector3IfEmIERKS0_), (50 bytes).
    Removing cal_vector3.o(.ARM.exidx), (8 bytes).
    Removing cal_vector3.o(t._ZNK7Vector3IfEeqERKS0_), (64 bytes).
    Removing cal_vector3.o(.ARM.exidx), (8 bytes).
    Removing cal_vector3.o(t._ZNK7Vector3IfEneERKS0_), (64 bytes).
    Removing cal_vector3.o(.ARM.exidx), (8 bytes).
    Removing cal_vector3.o(t._ZNK7Vector3IfEmlERK7Matrix3IfE), (246 bytes).
    Removing cal_vector3.o(.ARM.exidx), (8 bytes).
    Removing cal_vector3.o(t._ZN7Vector3IdEC1Eddd), (14 bytes).
    Removing cal_vector3.o(.ARM.exidx), (8 bytes).
    Removing cal_vector3.o(t._ZNK7Vector3IdE6lengthEv), (102 bytes).
    Removing cal_vector3.o(.ARM.exidx), (8 bytes).
    Removing cal_vector3.o(t._ZNK7Vector3IdEmlERKS0_), (160 bytes).
    Removing cal_vector3.o(.ARM.exidx), (8 bytes).
    Removing cal_vector3.o(t._ZNK7Vector3IdE5angleERKS0_), (98 bytes).
    Removing cal_vector3.o(.ARM.exidx), (8 bytes).
    Removing cal_vector3.o(t._ZN7Vector3IdE13get_rollpitchERS0_), (440 bytes).
    Removing cal_vector3.o(.ARM.exidx), (8 bytes).
    Removing cal_vector3.o(t._ZN7Vector3IdE7get_yawERS0_), (192 bytes).
    Removing cal_vector3.o(.ARM.exidx), (8 bytes).
    Removing cal_vector3.o(t._ZNK7Vector3IdE6is_nanEv), (78 bytes).
    Removing cal_vector3.o(.ARM.exidx), (8 bytes).
    Removing cal_vector3.o(t._ZNK7Vector3IdErmERKS0_), (338 bytes).
    Removing cal_vector3.o(.ARM.exidx), (8 bytes).
    Removing cal_vector3.o(t._ZNK7Vector3IdEmlEd), (152 bytes).
    Removing cal_vector3.o(.ARM.exidx), (8 bytes).
    Removing cal_vector3.o(t._ZN7Vector3IdEmLEd), (108 bytes).
    Removing cal_vector3.o(.ARM.exidx), (8 bytes).
    Removing cal_vector3.o(t._ZNK7Vector3IdEdvEd), (152 bytes).
    Removing cal_vector3.o(.ARM.exidx), (8 bytes).
    Removing cal_vector3.o(t._ZN7Vector3IdEdVEd), (108 bytes).
    Removing cal_vector3.o(.ARM.exidx), (8 bytes).
    Removing cal_vector3.o(t._ZNK7Vector3IdEngEv), (132 bytes).
    Removing cal_vector3.o(.ARM.exidx), (8 bytes).
    Removing cal_vector3.o(t._ZNK7Vector3IdEplERKS0_), (182 bytes).
    Removing cal_vector3.o(.ARM.exidx), (8 bytes).
    Removing cal_vector3.o(t._ZN7Vector3IdEpLERKS0_), (130 bytes).
    Removing cal_vector3.o(.ARM.exidx), (8 bytes).
    Removing cal_vector3.o(t._ZNK7Vector3IdEmiERKS0_), (182 bytes).
    Removing cal_vector3.o(.ARM.exidx), (8 bytes).
    Removing cal_vector3.o(t._ZN7Vector3IdEmIERKS0_), (130 bytes).
    Removing cal_vector3.o(.ARM.exidx), (8 bytes).
    Removing cal_vector3.o(t._ZNK7Vector3IdEeqERKS0_), (128 bytes).
    Removing cal_vector3.o(.ARM.exidx), (8 bytes).
    Removing cal_vector3.o(t._ZNK7Vector3IdEneERKS0_), (128 bytes).
    Removing cal_vector3.o(.ARM.exidx), (8 bytes).
    Removing cal_vector3.o(i.__ARM_isnanf), (14 bytes).
    Removing cal_vector3.o(.ARM.exidx), (8 bytes).

1228 unused section(s) (total 267403 bytes) removed from the image.

==============================================================================

Image Symbol Table

    Local Symbols

    Symbol Name                              Value     Ov Type        Size  Object(Section)

    ../../../edgfe/lib_src/dtor_list.c       0x00000000   Number         0  aeabi_atexit.o ABSOLUTE
    ../../../edgfe/lib_src/dtor_list.c       0x00000000   Number         0  cxa_finalize.o ABSOLUTE
    ../../../edgfe/lib_src/guard.c           0x00000000   Number         0  cxa_guard_acquire.o ABSOLUTE
    ../../../edgfe/lib_src/guard.c           0x00000000   Number         0  cxa_guard_release.o ABSOLUTE
    ../../array_helpers.cpp                  0x00000000   Number         0  aeabi_vec_ctor_nocookie_nodtor.o ABSOLUTE
    ../clib/../cmprslib/zerorunl2.c          0x00000000   Number         0  __dczerorl2.o ABSOLUTE
    ../clib/microlib/cpp/cpp_dtor.c          0x00000000   Number         0  cpp_dtor.o ABSOLUTE
    ../clib/microlib/cpp/cpp_final.c         0x00000000   Number         0  cpp_final.o ABSOLUTE
    ../clib/microlib/cpp/cpp_init.c          0x00000000   Number         0  cpp_init.o ABSOLUTE
    ../clib/microlib/cpp/cpp_init.c          0x00000000   Number         0  cpp_init.o ABSOLUTE
    ../clib/microlib/cpp/cpp_unwinder.c      0x00000000   Number         0  cpp_unwinder.o ABSOLUTE
    ../clib/microlib/division.c              0x00000000   Number         0  uidiv.o ABSOLUTE
    ../clib/microlib/division.c              0x00000000   Number         0  uldiv.o ABSOLUTE
    ../clib/microlib/division.c              0x00000000   Number         0  ldiv.o ABSOLUTE
    ../clib/microlib/errno.c                 0x00000000   Number         0  errno.o ABSOLUTE
    ../clib/microlib/init/entry.s            0x00000000   Number         0  entry9a.o ABSOLUTE
    ../clib/microlib/init/entry.s            0x00000000   Number         0  entry.o ABSOLUTE
    ../clib/microlib/init/entry.s            0x00000000   Number         0  entry10b.o ABSOLUTE
    ../clib/microlib/init/entry.s            0x00000000   Number         0  entry10a.o ABSOLUTE
    ../clib/microlib/init/entry.s            0x00000000   Number         0  entry2.o ABSOLUTE
    ../clib/microlib/init/entry.s            0x00000000   Number         0  entry9b.o ABSOLUTE
    ../clib/microlib/init/entry.s            0x00000000   Number         0  entry5.o ABSOLUTE
    ../clib/microlib/init/entry.s            0x00000000   Number         0  entry11a.o ABSOLUTE
    ../clib/microlib/init/entry.s            0x00000000   Number         0  entry7a.o ABSOLUTE
    ../clib/microlib/init/entry.s            0x00000000   Number         0  entry7b.o ABSOLUTE
    ../clib/microlib/init/entry.s            0x00000000   Number         0  entry8a.o ABSOLUTE
    ../clib/microlib/init/entry.s            0x00000000   Number         0  entry11b.o ABSOLUTE
    ../clib/microlib/init/entry.s            0x00000000   Number         0  entry8b.o ABSOLUTE
    ../clib/microlib/longlong.c              0x00000000   Number         0  llsshr.o ABSOLUTE
    ../clib/microlib/longlong.c              0x00000000   Number         0  llushr.o ABSOLUTE
    ../clib/microlib/longlong.c              0x00000000   Number         0  llshl.o ABSOLUTE
    ../clib/microlib/malloc/malloc.c         0x00000000   Number         0  malloca.o ABSOLUTE
    ../clib/microlib/malloc/malloc.c         0x00000000   Number         0  mallocr.o ABSOLUTE
    ../clib/microlib/malloc/malloc.c         0x00000000   Number         0  malloc.o ABSOLUTE
    ../clib/microlib/malloc/malloc.c         0x00000000   Number         0  mallocra.o ABSOLUTE
    ../clib/microlib/malloc/mvars.c          0x00000000   Number         0  mvars.o ABSOLUTE
    ../clib/microlib/printf/printf.c         0x00000000   Number         0  printf8.o ABSOLUTE
    ../clib/microlib/printf/printf.c         0x00000000   Number         0  printf7.o ABSOLUTE
    ../clib/microlib/printf/printf.c         0x00000000   Number         0  printf6.o ABSOLUTE
    ../clib/microlib/printf/printf.c         0x00000000   Number         0  printf5.o ABSOLUTE
    ../clib/microlib/printf/printf.c         0x00000000   Number         0  printf4.o ABSOLUTE
    ../clib/microlib/printf/printf.c         0x00000000   Number         0  printf3.o ABSOLUTE
    ../clib/microlib/printf/printf.c         0x00000000   Number         0  printf0.o ABSOLUTE
    ../clib/microlib/printf/printf.c         0x00000000   Number         0  printfb.o ABSOLUTE
    ../clib/microlib/printf/printf.c         0x00000000   Number         0  printf1.o ABSOLUTE
    ../clib/microlib/printf/printf.c         0x00000000   Number         0  printf2.o ABSOLUTE
    ../clib/microlib/printf/printf.c         0x00000000   Number         0  printfa.o ABSOLUTE
    ../clib/microlib/printf/stubs.s          0x00000000   Number         0  stubs.o ABSOLUTE
    ../clib/microlib/stdio/streams.c         0x00000000   Number         0  stdout.o ABSOLUTE
    ../clib/microlib/string/memcpy.c         0x00000000   Number         0  memcpya.o ABSOLUTE
    ../clib/microlib/string/memcpy.c         0x00000000   Number         0  memcpyb.o ABSOLUTE
    ../clib/microlib/string/memset.c         0x00000000   Number         0  memseta.o ABSOLUTE
    ../clib/microlib/string/strstr.c         0x00000000   Number         0  strstr.o ABSOLUTE
    ../clib/microlib/stubs.s                 0x00000000   Number         0  iusefp.o ABSOLUTE
    ../fplib/microlib/d2f.c                  0x00000000   Number         0  d2f.o ABSOLUTE
    ../fplib/microlib/f2d.c                  0x00000000   Number         0  f2d.o ABSOLUTE
    ../fplib/microlib/fpadd.c                0x00000000   Number         0  dadd.o ABSOLUTE
    ../fplib/microlib/fpdiv.c                0x00000000   Number         0  ddiv.o ABSOLUTE
    ../fplib/microlib/fpepilogue.c           0x00000000   Number         0  depilogue.o ABSOLUTE
    ../fplib/microlib/fpepilogue.c           0x00000000   Number         0  fepilogue.o ABSOLUTE
    ../fplib/microlib/fpfix.c                0x00000000   Number         0  dfixi.o ABSOLUTE
    ../fplib/microlib/fpfix.c                0x00000000   Number         0  dfixul.o ABSOLUTE
    ../fplib/microlib/fpfix.c                0x00000000   Number         0  ffixul.o ABSOLUTE
    ../fplib/microlib/fpflt.c                0x00000000   Number         0  dfltui.o ABSOLUTE
    ../fplib/microlib/fpflt.c                0x00000000   Number         0  ffltul.o ABSOLUTE
    ../fplib/microlib/fpflt.c                0x00000000   Number         0  dflti.o ABSOLUTE
    ../fplib/microlib/fpmul.c                0x00000000   Number         0  dmul.o ABSOLUTE
    ../fplib/microlib/fpneg.c                0x00000000   Number         0  dneg.o ABSOLUTE
    ../fplib/microlib/fpstat.c               0x00000000   Number         0  fpstat.o ABSOLUTE
    ../mathlib/acosf.c                       0x00000000   Number         0  acosf.o ABSOLUTE
    ../mathlib/acosf.c                       0x00000000   Number         0  acosf_x.o ABSOLUTE
    ../mathlib/asinf.c                       0x00000000   Number         0  asinf_x.o ABSOLUTE
    ../mathlib/asinf.c                       0x00000000   Number         0  asinf.o ABSOLUTE
    ../mathlib/atan2f.c                      0x00000000   Number         0  atan2f.o ABSOLUTE
    ../mathlib/atan2f.c                      0x00000000   Number         0  atan2f_x.o ABSOLUTE
    ../mathlib/cos.c                         0x00000000   Number         0  cos.o ABSOLUTE
    ../mathlib/cos.c                         0x00000000   Number         0  cos_x.o ABSOLUTE
    ../mathlib/cos_i.c                       0x00000000   Number         0  cos_i.o ABSOLUTE
    ../mathlib/cosf.c                        0x00000000   Number         0  cosf.o ABSOLUTE
    ../mathlib/cosf.c                        0x00000000   Number         0  cosf_x.o ABSOLUTE
    ../mathlib/dunder.c                      0x00000000   Number         0  dunder.o ABSOLUTE
    ../mathlib/fabs.c                        0x00000000   Number         0  fabs.o ABSOLUTE
    ../mathlib/floorf.c                      0x00000000   Number         0  floorf.o ABSOLUTE
    ../mathlib/fpclassify.c                  0x00000000   Number         0  fpclassify.o ABSOLUTE
    ../mathlib/fpclassifyf.c                 0x00000000   Number         0  fpclassifyf.o ABSOLUTE
    ../mathlib/funder.c                      0x00000000   Number         0  funder.o ABSOLUTE
    ../mathlib/poly.c                        0x00000000   Number         0  poly.o ABSOLUTE
    ../mathlib/powf.c                        0x00000000   Number         0  powf.o ABSOLUTE
    ../mathlib/powf.c                        0x00000000   Number         0  powf_x.o ABSOLUTE
    ../mathlib/rred.c                        0x00000000   Number         0  rred.o ABSOLUTE
    ../mathlib/rredf.c                       0x00000000   Number         0  rredf.o ABSOLUTE
    ../mathlib/sin.c                         0x00000000   Number         0  sin.o ABSOLUTE
    ../mathlib/sin.c                         0x00000000   Number         0  sin_x.o ABSOLUTE
    ../mathlib/sin_i.c                       0x00000000   Number         0  sin_i_x.o ABSOLUTE
    ../mathlib/sin_i.c                       0x00000000   Number         0  sin_i.o ABSOLUTE
    ../mathlib/sinf.c                        0x00000000   Number         0  sinf_x.o ABSOLUTE
    ../mathlib/sinf.c                        0x00000000   Number         0  sinf.o ABSOLUTE
    ../mathlib/sqrtf.c                       0x00000000   Number         0  sqrtf.o ABSOLUTE
    ../mathlib/sqrtf.c                       0x00000000   Number         0  sqrtf_x.o ABSOLUTE
    ..\STM32F4xx_StdPeriph_Driver\src\misc.c 0x00000000   Number         0  misc.o ABSOLUTE
    ..\STM32F4xx_StdPeriph_Driver\src\stm32f4xx_dma.c 0x00000000   Number         0  stm32f4xx_dma.o ABSOLUTE
    ..\STM32F4xx_StdPeriph_Driver\src\stm32f4xx_gpio.c 0x00000000   Number         0  stm32f4xx_gpio.o ABSOLUTE
    ..\STM32F4xx_StdPeriph_Driver\src\stm32f4xx_rcc.c 0x00000000   Number         0  stm32f4xx_rcc.o ABSOLUTE
    ..\STM32F4xx_StdPeriph_Driver\src\stm32f4xx_sdio.c 0x00000000   Number         0  stm32f4xx_sdio.o ABSOLUTE
    ..\STM32F4xx_StdPeriph_Driver\src\stm32f4xx_spi.c 0x00000000   Number         0  stm32f4xx_spi.o ABSOLUTE
    ..\STM32F4xx_StdPeriph_Driver\src\stm32f4xx_tim.c 0x00000000   Number         0  stm32f4xx_tim.o ABSOLUTE
    ..\STM32F4xx_StdPeriph_Driver\src\stm32f4xx_usart.c 0x00000000   Number         0  stm32f4xx_usart.o ABSOLUTE
    ..\\STM32F4xx_StdPeriph_Driver\\src\\misc.c 0x00000000   Number         0  misc.o ABSOLUTE
    ..\\STM32F4xx_StdPeriph_Driver\\src\\stm32f4xx_dma.c 0x00000000   Number         0  stm32f4xx_dma.o ABSOLUTE
    ..\\STM32F4xx_StdPeriph_Driver\\src\\stm32f4xx_gpio.c 0x00000000   Number         0  stm32f4xx_gpio.o ABSOLUTE
    ..\\STM32F4xx_StdPeriph_Driver\\src\\stm32f4xx_rcc.c 0x00000000   Number         0  stm32f4xx_rcc.o ABSOLUTE
    ..\\STM32F4xx_StdPeriph_Driver\\src\\stm32f4xx_sdio.c 0x00000000   Number         0  stm32f4xx_sdio.o ABSOLUTE
    ..\\STM32F4xx_StdPeriph_Driver\\src\\stm32f4xx_spi.c 0x00000000   Number         0  stm32f4xx_spi.o ABSOLUTE
    ..\\STM32F4xx_StdPeriph_Driver\\src\\stm32f4xx_tim.c 0x00000000   Number         0  stm32f4xx_tim.o ABSOLUTE
    ..\\STM32F4xx_StdPeriph_Driver\\src\\stm32f4xx_usart.c 0x00000000   Number         0  stm32f4xx_usart.o ABSOLUTE
    1.code\\attitude\\imu.cpp                0x00000000   Number         0  imu.o ABSOLUTE
    1.code\\attitude\\imu_dcm.cpp            0x00000000   Number         0  imu_dcm.o ABSOLUTE
    1.code\\attitude\\imu_ekf.cpp            0x00000000   Number         0  imu_ekf.o ABSOLUTE
    1.code\\attitude\\imu_gradient.cpp       0x00000000   Number         0  imu_gradient.o ABSOLUTE
    1.code\\control\\control_v.cpp           0x00000000   Number         0  control_v.o ABSOLUTE
    1.code\\dev\\dev_ak8975.cpp              0x00000000   Number         0  dev_ak8975.o ABSOLUTE
    1.code\\dev\\dev_can.cpp                 0x00000000   Number         0  dev_can.o ABSOLUTE
    1.code\\dev\\dev_clock.cpp               0x00000000   Number         0  dev_clock.o ABSOLUTE
    1.code\\dev\\dev_debus.cpp               0x00000000   Number         0  dev_debus.o ABSOLUTE
    1.code\\dev\\dev_dma.cpp                 0x00000000   Number         0  dev_dma.o ABSOLUTE
    1.code\\dev\\dev_flash.cpp               0x00000000   Number         0  dev_flash.o ABSOLUTE
    1.code\\dev\\dev_gps.cpp                 0x00000000   Number         0  dev_gps.o ABSOLUTE
    1.code\\dev\\dev_i2c.cpp                 0x00000000   Number         0  dev_i2c.o ABSOLUTE
    1.code\\dev\\dev_led.cpp                 0x00000000   Number         0  dev_led.o ABSOLUTE
    1.code\\dev\\dev_mavlink.cpp             0x00000000   Number         0  dev_mavlink.o ABSOLUTE
    1.code\\dev\\dev_moto.cpp                0x00000000   Number         0  dev_moto.o ABSOLUTE
    1.code\\dev\\dev_ms5611.cpp              0x00000000   Number         0  dev_ms5611.o ABSOLUTE
    1.code\\dev\\dev_mup6050.cpp             0x00000000   Number         0  dev_mup6050.o ABSOLUTE
    1.code\\dev\\dev_nvic.cpp                0x00000000   Number         0  dev_nvic.o ABSOLUTE
    1.code\\dev\\dev_port.cpp                0x00000000   Number         0  dev_port.o ABSOLUTE
    1.code\\dev\\dev_rcc.cpp                 0x00000000   Number         0  dev_rcc.o ABSOLUTE
    1.code\\dev\\dev_sd.cpp                  0x00000000   Number         0  dev_sd.o ABSOLUTE
    1.code\\dev\\dev_spi.cpp                 0x00000000   Number         0  dev_spi.o ABSOLUTE
    1.code\\dev\\dev_us100.cpp               0x00000000   Number         0  dev_us100.o ABSOLUTE
    1.code\\dev\\dev_usart.cpp               0x00000000   Number         0  dev_usart.o ABSOLUTE
    1.code\\navigation\\height\\nav_h.cpp    0x00000000   Number         0  nav_h.o ABSOLUTE
    1.code\\navigation\\nav_speed.cpp        0x00000000   Number         0  nav_speed.o ABSOLUTE
    1.code\\px4\\ekf_att_pos_estimator\\ekf_att_pos_estimator_main.cpp 0x00000000   Number         0  ekf_att_pos_estimator_main.o ABSOLUTE
    1.code\\uav\\uav_adrc.cpp                0x00000000   Number         0  uav_adrc.o ABSOLUTE
    1.code\\uav\\uav_attitude.cpp            0x00000000   Number         0  uav_attitude.o ABSOLUTE
    1.code\\uav\\uav_control.cpp             0x00000000   Number         0  uav_control.o ABSOLUTE
    1.code\\uav\\uav_filter.cpp              0x00000000   Number         0  uav_filter.o ABSOLUTE
    1.code\\uav\\uav_gps_navigation.cpp      0x00000000   Number         0  uav_gps_navigation.o ABSOLUTE
    1.code\\uav\\uav_init.cpp                0x00000000   Number         0  uav_init.o ABSOLUTE
    1.code\\uav\\uav_parameter.cpp           0x00000000   Number         0  uav_parameter.o ABSOLUTE
    1.code\\uav\\uav_parameter_sd.cpp        0x00000000   Number         0  uav_parameter_sd.o ABSOLUTE
    1.code\\uav\\uav_pid.cpp                 0x00000000   Number         0  uav_pid.o ABSOLUTE
    1.code\\uav\\uav_rc.cpp                  0x00000000   Number         0  uav_rc.o ABSOLUTE
    1.code\\uav_task.cpp                     0x00000000   Number         0  uav_task.o ABSOLUTE
    1.code\attitude\ekf\codegen\AttitudeEKF.c 0x00000000   Number         0  attitudeekf.o ABSOLUTE
    1.code\attitude\imu.cpp                  0x00000000   Number         0  imu.o ABSOLUTE
    1.code\attitude\imu_dcm.cpp              0x00000000   Number         0  imu_dcm.o ABSOLUTE
    1.code\attitude\imu_ekf.cpp              0x00000000   Number         0  imu_ekf.o ABSOLUTE
    1.code\attitude\imu_gradient.cpp         0x00000000   Number         0  imu_gradient.o ABSOLUTE
    1.code\control\control_v.cpp             0x00000000   Number         0  control_v.o ABSOLUTE
    1.code\dev\dev_ak8975.cpp                0x00000000   Number         0  dev_ak8975.o ABSOLUTE
    1.code\dev\dev_can.cpp                   0x00000000   Number         0  dev_can.o ABSOLUTE
    1.code\dev\dev_clock.cpp                 0x00000000   Number         0  dev_clock.o ABSOLUTE
    1.code\dev\dev_debus.cpp                 0x00000000   Number         0  dev_debus.o ABSOLUTE
    1.code\dev\dev_dma.cpp                   0x00000000   Number         0  dev_dma.o ABSOLUTE
    1.code\dev\dev_flash.cpp                 0x00000000   Number         0  dev_flash.o ABSOLUTE
    1.code\dev\dev_gps.cpp                   0x00000000   Number         0  dev_gps.o ABSOLUTE
    1.code\dev\dev_i2c.cpp                   0x00000000   Number         0  dev_i2c.o ABSOLUTE
    1.code\dev\dev_led.cpp                   0x00000000   Number         0  dev_led.o ABSOLUTE
    1.code\dev\dev_mavlink.cpp               0x00000000   Number         0  dev_mavlink.o ABSOLUTE
    1.code\dev\dev_moto.cpp                  0x00000000   Number         0  dev_moto.o ABSOLUTE
    1.code\dev\dev_ms5611.cpp                0x00000000   Number         0  dev_ms5611.o ABSOLUTE
    1.code\dev\dev_mup6050.cpp               0x00000000   Number         0  dev_mup6050.o ABSOLUTE
    1.code\dev\dev_nvic.cpp                  0x00000000   Number         0  dev_nvic.o ABSOLUTE
    1.code\dev\dev_port.cpp                  0x00000000   Number         0  dev_port.o ABSOLUTE
    1.code\dev\dev_rcc.cpp                   0x00000000   Number         0  dev_rcc.o ABSOLUTE
    1.code\dev\dev_sd.cpp                    0x00000000   Number         0  dev_sd.o ABSOLUTE
    1.code\dev\dev_spi.cpp                   0x00000000   Number         0  dev_spi.o ABSOLUTE
    1.code\dev\dev_us100.cpp                 0x00000000   Number         0  dev_us100.o ABSOLUTE
    1.code\dev\dev_usart.cpp                 0x00000000   Number         0  dev_usart.o ABSOLUTE
    1.code\navigation\height\codegen\lib\nav_h_ekf\nav_h_ekf.c 0x00000000   Number         0  nav_h_ekf.o ABSOLUTE
    1.code\navigation\height\codegen\lib\nav_h_ekf\nav_h_ekf_initialize.c 0x00000000   Number         0  nav_h_ekf_initialize.o ABSOLUTE
    1.code\navigation\height\codegen\lib\nav_h_ekf\nav_h_ekf_terminate.c 0x00000000   Number         0  nav_h_ekf_terminate.o ABSOLUTE
    1.code\navigation\height\codegen\lib\nav_h_ekf\svd.c 0x00000000   Number         0  svd.o ABSOLUTE
    1.code\navigation\height\nav_h.cpp       0x00000000   Number         0  nav_h.o ABSOLUTE
    1.code\navigation\nav_ekf.cpp            0x00000000   Number         0  nav_ekf.o ABSOLUTE
    1.code\navigation\nav_speed.cpp          0x00000000   Number         0  nav_speed.o ABSOLUTE
    1.code\px4\ekf_att_pos_estimator\ekf_att_pos_estimator_main.cpp 0x00000000   Number         0  ekf_att_pos_estimator_main.o ABSOLUTE
    1.code\px4\ekf_att_pos_estimator\estimator_22states.cpp 0x00000000   Number         0  estimator_22states.o ABSOLUTE
    1.code\px4\ekf_att_pos_estimator\estimator_utilities.cpp 0x00000000   Number         0  estimator_utilities.o ABSOLUTE
    1.code\uav\uav_adrc.cpp                  0x00000000   Number         0  uav_adrc.o ABSOLUTE
    1.code\uav\uav_attitude.cpp              0x00000000   Number         0  uav_attitude.o ABSOLUTE
    1.code\uav\uav_control.cpp               0x00000000   Number         0  uav_control.o ABSOLUTE
    1.code\uav\uav_filter.cpp                0x00000000   Number         0  uav_filter.o ABSOLUTE
    1.code\uav\uav_gps_navigation.cpp        0x00000000   Number         0  uav_gps_navigation.o ABSOLUTE
    1.code\uav\uav_init.cpp                  0x00000000   Number         0  uav_init.o ABSOLUTE
    1.code\uav\uav_parameter.cpp             0x00000000   Number         0  uav_parameter.o ABSOLUTE
    1.code\uav\uav_parameter_sd.cpp          0x00000000   Number         0  uav_parameter_sd.o ABSOLUTE
    1.code\uav\uav_pid.cpp                   0x00000000   Number         0  uav_pid.o ABSOLUTE
    1.code\uav\uav_rc.cpp                    0x00000000   Number         0  uav_rc.o ABSOLUTE
    1.code\uav_task.cpp                      0x00000000   Number         0  uav_task.o ABSOLUTE
    2.prject\F407LIB\stm32f4xx_it.c          0x00000000   Number         0  stm32f4xx_it.o ABSOLUTE
    2.prject\FATFS\src\diskio.c              0x00000000   Number         0  diskio.o ABSOLUTE
    2.prject\FATFS\src\ff.c                  0x00000000   Number         0  ff.o ABSOLUTE
    2.prject\\F407LIB\\stm32f4xx_it.c        0x00000000   Number         0  stm32f4xx_it.o ABSOLUTE
    2.prject\\FATFS\\src\\diskio.c           0x00000000   Number         0  diskio.o ABSOLUTE
    3.math\\adrc\\cal_adrc.cpp               0x00000000   Number         0  cal_adrc.o ABSOLUTE
    3.math\\cal_math.cpp                     0x00000000   Number         0  cal_math.o ABSOLUTE
    3.math\\cal_matrix3.cpp                  0x00000000   Number         0  cal_matrix3.o ABSOLUTE
    3.math\\cal_quaternion.cpp               0x00000000   Number         0  cal_quaternion.o ABSOLUTE
    3.math\\cal_vector3.cpp                  0x00000000   Number         0  cal_vector3.o ABSOLUTE
    3.math\adrc\cal_adrc.cpp                 0x00000000   Number         0  cal_adrc.o ABSOLUTE
    3.math\adrc\codegen\lib\fal\fal.c        0x00000000   Number         0  fal.o ABSOLUTE
    3.math\adrc\codegen\lib\fal\fal_initialize.c 0x00000000   Number         0  fal_initialize.o ABSOLUTE
    3.math\adrc\codegen\lib\fal\fal_terminate.c 0x00000000   Number         0  fal_terminate.o ABSOLUTE
    3.math\adrc\codegen\lib\fal\fhan.c       0x00000000   Number         0  fhan.o ABSOLUTE
    3.math\adrc\codegen\lib\fal\rtGetInf.c   0x00000000   Number         0  rtgetinf_1.o ABSOLUTE
    3.math\adrc\codegen\lib\fal\rtGetNaN.c   0x00000000   Number         0  rtgetnan_1.o ABSOLUTE
    3.math\adrc\codegen\lib\fal\rt_nonfinite.c 0x00000000   Number         0  rt_nonfinite.o ABSOLUTE
    3.math\cal_math.cpp                      0x00000000   Number         0  cal_math.o ABSOLUTE
    3.math\cal_matrix3.cpp                   0x00000000   Number         0  cal_matrix3.o ABSOLUTE
    3.math\cal_quaternion.cpp                0x00000000   Number         0  cal_quaternion.o ABSOLUTE
    3.math\cal_vector3.cpp                   0x00000000   Number         0  cal_vector3.o ABSOLUTE
    RTE\Device\STM32F407VG\startup_stm32f40_41xxx.s 0x00000000   Number         0  startup_stm32f40_41xxx.o ABSOLUTE
    RTE\Device\STM32F407VG\system_stm32f4xx.c 0x00000000   Number         0  system_stm32f4xx.o ABSOLUTE
    RTE\\Device\\STM32F407VG\\system_stm32f4xx.c 0x00000000   Number         0  system_stm32f4xx.o ABSOLUTE
    cdcmple.s                                0x00000000   Number         0  cdcmple.o ABSOLUTE
    cdrcmple.s                               0x00000000   Number         0  cdrcmple.o ABSOLUTE
    dc.s                                     0x00000000   Number         0  dc.o ABSOLUTE
    handlers.s                               0x00000000   Number         0  handlers.o ABSOLUTE
    init.s                                   0x00000000   Number         0  init.o ABSOLUTE
    RESET                                    0x08000000   Section      392  startup_stm32f40_41xxx.o(RESET)
    .ARM.Collect$$$$00000000                 0x08000188   Section        0  entry.o(.ARM.Collect$$$$00000000)
    .ARM.Collect$$$$00000001                 0x08000188   Section        4  entry2.o(.ARM.Collect$$$$00000001)
    .ARM.Collect$$$$00000004                 0x0800018c   Section        4  entry5.o(.ARM.Collect$$$$00000004)
    .ARM.Collect$$$$00000008                 0x08000190   Section        0  entry7b.o(.ARM.Collect$$$$00000008)
    .ARM.Collect$$$$00000009                 0x08000190   Section        4  entry8a.o(.ARM.Collect$$$$00000009)
    .ARM.Collect$$$$0000000A                 0x08000194   Section        0  entry8b.o(.ARM.Collect$$$$0000000A)
    .ARM.Collect$$$$0000000B                 0x08000194   Section        8  entry9a.o(.ARM.Collect$$$$0000000B)
    .ARM.Collect$$$$0000000D                 0x0800019c   Section        0  entry10a.o(.ARM.Collect$$$$0000000D)
    .ARM.Collect$$$$0000000F                 0x0800019c   Section        0  entry11a.o(.ARM.Collect$$$$0000000F)
    .ARM.Collect$$$$00002712                 0x0800019c   Section        4  entry2.o(.ARM.Collect$$$$00002712)
    __lit__00000000                          0x0800019c   Data           4  entry2.o(.ARM.Collect$$$$00002712)
    .text                                    0x080001a0   Section       36  startup_stm32f40_41xxx.o(.text)
    $v0                                      0x080001a0   Number         0  startup_stm32f40_41xxx.o(.text)
    .text                                    0x080001c4   Section        0  uldiv.o(.text)
    .text                                    0x08000226   Section        0  memseta.o(.text)
    .text                                    0x0800024a   Section        0  strstr.o(.text)
    .text                                    0x08000270   Section        0  cpp_init.o(.text)
    .text                                    0x08000290   Section        0  dadd.o(.text)
    .text                                    0x080003de   Section        0  dmul.o(.text)
    .text                                    0x080004c2   Section        0  ddiv.o(.text)
    .text                                    0x080005a0   Section        0  f2d.o(.text)
    .text                                    0x080005c8   Section       48  cdcmple.o(.text)
    .text                                    0x080005f8   Section       48  cdrcmple.o(.text)
    .text                                    0x08000628   Section        0  d2f.o(.text)
    .text                                    0x08000660   Section        0  uidiv.o(.text)
    .text                                    0x0800068c   Section        0  llshl.o(.text)
    .text                                    0x080006aa   Section        0  llushr.o(.text)
    .text                                    0x080006ca   Section        0  llsshr.o(.text)
    .text                                    0x080006ee   Section        0  iusefp.o(.text)
    .text                                    0x080006f0   Section        0  cpp_dtor.o(.text)
    .text                                    0x080006f8   Section        0  cpp_final.o(.text)
    .text                                    0x080006fa   Section        0  fepilogue.o(.text)
    .text                                    0x08000768   Section        0  depilogue.o(.text)
    .text                                    0x08000822   Section        0  dfixul.o(.text)
    .text                                    0x08000854   Section       36  init.o(.text)
    .text                                    0x08000878   Section        0  __dczerorl2.o(.text)
    i.BusFault_Handler                       0x080008ce   Section        0  stm32f4xx_it.o(i.BusFault_Handler)
    i.DMA2_Stream2_IRQHandler                0x080008d4   Section        0  dev_dma.o(i.DMA2_Stream2_IRQHandler)
    i.DMA_ClearFlag                          0x08000908   Section        0  stm32f4xx_dma.o(i.DMA_ClearFlag)
    i.DMA_ClearITPendingBit                  0x0800093c   Section        0  stm32f4xx_dma.o(i.DMA_ClearITPendingBit)
    i.DMA_Cmd                                0x08000970   Section        0  stm32f4xx_dma.o(i.DMA_Cmd)
    i.DMA_DeInit                             0x08000988   Section        0  stm32f4xx_dma.o(i.DMA_DeInit)
    i.DMA_GetITStatus                        0x08000ae0   Section        0  stm32f4xx_dma.o(i.DMA_GetITStatus)
    i.DMA_ITConfig                           0x08000b44   Section        0  stm32f4xx_dma.o(i.DMA_ITConfig)
    i.DMA_Init                               0x08000b80   Section        0  stm32f4xx_dma.o(i.DMA_Init)
    i.DebugMon_Handler                       0x08000bd8   Section        0  stm32f4xx_it.o(i.DebugMon_Handler)
    i.GPIO_Init                              0x08000bda   Section        0  stm32f4xx_gpio.o(i.GPIO_Init)
    i.GPIO_PinAFConfig                       0x08000c6a   Section        0  stm32f4xx_gpio.o(i.GPIO_PinAFConfig)
    i.GPIO_ResetBits                         0x08000cb0   Section        0  stm32f4xx_gpio.o(i.GPIO_ResetBits)
    i.GPIO_SetBits                           0x08000cb4   Section        0  stm32f4xx_gpio.o(i.GPIO_SetBits)
    i.HardFault_Handler                      0x08000cb8   Section        0  stm32f4xx_it.o(i.HardFault_Handler)
    i.MemManage_Handler                      0x08000cbc   Section        0  stm32f4xx_it.o(i.MemManage_Handler)
    i.NMI_Handler                            0x08000cc0   Section        0  stm32f4xx_it.o(i.NMI_Handler)
    i.NVIC_Init                              0x08000cc4   Section        0  misc.o(i.NVIC_Init)
    i.NVIC_PriorityGroupConfig               0x08000d3c   Section        0  misc.o(i.NVIC_PriorityGroupConfig)
    i.PendSV_Handler                         0x08000d50   Section        0  stm32f4xx_it.o(i.PendSV_Handler)
    i.RCC_AHB1PeriphClockCmd                 0x08000d54   Section        0  stm32f4xx_rcc.o(i.RCC_AHB1PeriphClockCmd)
    i.RCC_APB1PeriphClockCmd                 0x08000d74   Section        0  stm32f4xx_rcc.o(i.RCC_APB1PeriphClockCmd)
    i.RCC_APB1PeriphResetCmd                 0x08000d94   Section        0  stm32f4xx_rcc.o(i.RCC_APB1PeriphResetCmd)
    i.RCC_APB2PeriphClockCmd                 0x08000db4   Section        0  stm32f4xx_rcc.o(i.RCC_APB2PeriphClockCmd)
    i.RCC_APB2PeriphResetCmd                 0x08000dd4   Section        0  stm32f4xx_rcc.o(i.RCC_APB2PeriphResetCmd)
    i.RCC_GetClocksFreq                      0x08000df4   Section        0  stm32f4xx_rcc.o(i.RCC_GetClocksFreq)
    i.SDIO_ClearFlag                         0x08000edc   Section        0  stm32f4xx_sdio.o(i.SDIO_ClearFlag)
    i.SDIO_GetFlagStatus                     0x08000ee8   Section        0  stm32f4xx_sdio.o(i.SDIO_GetFlagStatus)
    i.SDIO_IRQHandler                        0x08000f00   Section        0  dev_sd.o(i.SDIO_IRQHandler)
    i.SDIO_SendCommand                       0x08000f08   Section        0  stm32f4xx_sdio.o(i.SDIO_SendCommand)
    i.SPI_Cmd                                0x08000f34   Section        0  stm32f4xx_spi.o(i.SPI_Cmd)
    i.SPI_I2S_GetFlagStatus                  0x08000f4c   Section        0  stm32f4xx_spi.o(i.SPI_I2S_GetFlagStatus)
    i.SPI_I2S_ReceiveData                    0x08000f5e   Section        0  stm32f4xx_spi.o(i.SPI_I2S_ReceiveData)
    i.SPI_I2S_SendData                       0x08000f64   Section        0  stm32f4xx_spi.o(i.SPI_I2S_SendData)
    i.SPI_Init                               0x08000f68   Section        0  stm32f4xx_spi.o(i.SPI_Init)
    i.SVC_Handler                            0x08000fa4   Section        0  stm32f4xx_it.o(i.SVC_Handler)
    i.SysTick_CLKSourceConfig                0x08000fa6   Section        0  misc.o(i.SysTick_CLKSourceConfig)
    i.SysTick_Handler                        0x08000fd0   Section        0  dev_clock.o(i.SysTick_Handler)
    i.SystemInit                             0x08000fe8   Section        0  system_stm32f4xx.o(i.SystemInit)
    i.TIM_ARRPreloadConfig                   0x08001050   Section        0  stm32f4xx_tim.o(i.TIM_ARRPreloadConfig)
    i.TIM_Cmd                                0x08001068   Section        0  stm32f4xx_tim.o(i.TIM_Cmd)
    i.TIM_CtrlPWMOutputs                     0x08001080   Section        0  stm32f4xx_tim.o(i.TIM_CtrlPWMOutputs)
    i.TIM_OC1Init                            0x080010a0   Section        0  stm32f4xx_tim.o(i.TIM_OC1Init)
    i.TIM_OC1PreloadConfig                   0x0800111c   Section        0  stm32f4xx_tim.o(i.TIM_OC1PreloadConfig)
    i.TIM_OC2Init                            0x08001130   Section        0  stm32f4xx_tim.o(i.TIM_OC2Init)
    i.TIM_OC2PreloadConfig                   0x080011d4   Section        0  stm32f4xx_tim.o(i.TIM_OC2PreloadConfig)
    i.TIM_OC3Init                            0x080011f0   Section        0  stm32f4xx_tim.o(i.TIM_OC3Init)
    i.TIM_OC3PreloadConfig                   0x08001290   Section        0  stm32f4xx_tim.o(i.TIM_OC3PreloadConfig)
    i.TIM_OC4Init                            0x080012a4   Section        0  stm32f4xx_tim.o(i.TIM_OC4Init)
    i.TIM_OC4PreloadConfig                   0x0800131c   Section        0  stm32f4xx_tim.o(i.TIM_OC4PreloadConfig)
    i.TIM_SetCompare1                        0x08001336   Section        0  stm32f4xx_tim.o(i.TIM_SetCompare1)
    i.TIM_SetCompare2                        0x0800133a   Section        0  stm32f4xx_tim.o(i.TIM_SetCompare2)
    i.TIM_SetCompare3                        0x0800133e   Section        0  stm32f4xx_tim.o(i.TIM_SetCompare3)
    i.TIM_SetCompare4                        0x08001342   Section        0  stm32f4xx_tim.o(i.TIM_SetCompare4)
    i.TIM_TimeBaseInit                       0x08001348   Section        0  stm32f4xx_tim.o(i.TIM_TimeBaseInit)
    i.USART2_IRQHandler                      0x080013cc   Section        0  stm32f4xx_it.o(i.USART2_IRQHandler)
    i.USART3_IRQHandler                      0x080013dc   Section        0  stm32f4xx_it.o(i.USART3_IRQHandler)
    i.USART6_IRQHandler                      0x080013ec   Section        0  stm32f4xx_it.o(i.USART6_IRQHandler)
    i.USART_ClearITPendingBit                0x080013fc   Section        0  stm32f4xx_usart.o(i.USART_ClearITPendingBit)
    i.USART_Cmd                              0x0800141a   Section        0  stm32f4xx_usart.o(i.USART_Cmd)
    i.USART_DMACmd                           0x08001432   Section        0  stm32f4xx_usart.o(i.USART_DMACmd)
    i.USART_DeInit                           0x08001444   Section        0  stm32f4xx_usart.o(i.USART_DeInit)
    i.USART_GetFlagStatus                    0x080014f8   Section        0  stm32f4xx_usart.o(i.USART_GetFlagStatus)
    i.USART_GetITStatus                      0x08001512   Section        0  stm32f4xx_usart.o(i.USART_GetITStatus)
    i.USART_ITConfig                         0x08001566   Section        0  stm32f4xx_usart.o(i.USART_ITConfig)
    i.USART_Init                             0x080015b0   Section        0  stm32f4xx_usart.o(i.USART_Init)
    i.USART_ReceiveData                      0x08001684   Section        0  stm32f4xx_usart.o(i.USART_ReceiveData)
    i.USART_SendData                         0x0800168e   Section        0  stm32f4xx_usart.o(i.USART_SendData)
    i.UsageFault_Handler                     0x08001696   Section        0  stm32f4xx_it.o(i.UsageFault_Handler)
    i._Z10Loop_checkv                        0x0800169c   Section        0  dev_clock.o(i._Z10Loop_checkv)
    i._Z10task_10_msv                        0x08001700   Section        0  uav_task.o(i._Z10task_10_msv)
    i._Z10task_20_msv                        0x08001748   Section        0  uav_task.o(i._Z10task_20_msv)
    i._Z10task_50_msv                        0x08001750   Section        0  uav_task.o(i._Z10task_50_msv)
    i._Z11Get_Cycle_Th                       0x08001764   Section        0  dev_clock.o(i._Z11Get_Cycle_Th)
    i._Z11SetSysClockv                       0x080017e4   Section        0  system_stm32f4xx.o(i._Z11SetSysClockv)
    SetSysClock()                            0x080017e5   Thumb Code   220  system_stm32f4xx.o(i._Z11SetSysClockv)
    i._Z12GPS_AnalysisP8nmea_msgPh           0x080018d0   Section        0  dev_gps.o(i._Z12GPS_AnalysisP8nmea_msgPh)
    i._Z12NMEA_Str2numPhS_                   0x08001900   Section        0  dev_gps.o(i._Z12NMEA_Str2numPhS_)
    i._Z13CmdResp1Errorh                     0x080019ec   Section        0  dev_sd.o(i._Z13CmdResp1Errorh)
    i._Z13GetSysTime_usv                     0x08001a58   Section        0  dev_clock.o(i._Z13GetSysTime_usv)
    i._Z13SPI1_SetSpeedh                     0x08001a8c   Section        0  dev_spi.o(i._Z13SPI1_SetSpeedh)
    i._Z13rtGetMinusInfv                     0x08001ab0   Section        0  rtgetinf_1.o(i._Z13rtGetMinusInfv)
    i._Z14NMEA_Comma_PosPhh                  0x08001b48   Section        0  dev_gps.o(i._Z14NMEA_Comma_PosPhh)
    i._Z14fal_initializev                    0x08001b7a   Section        0  fal_initialize.o(i._Z14fal_initializev)
    i._Z14nav_h_ekf_initv                    0x08001b84   Section        0  nav_h_ekf.o(i._Z14nav_h_ekf_initv)
    i._Z14rtGetMinusInfFv                    0x08001bd0   Section        0  rtgetinf_1.o(i._Z14rtGetMinusInfFv)
    i._Z15TrackingDiffCalR13Tracking_Diffff  0x08001be0   Section        0  cal_adrc.o(i._Z15TrackingDiffCalR13Tracking_Diffff)
    i._Z16SD_ProcessIRQSrcv                  0x08001c4c   Section        0  dev_sd.o(i._Z16SD_ProcessIRQSrcv)
    i._Z16TrackingDiffInitR13Tracking_Difff  0x08001da0   Section        0  cal_adrc.o(i._Z16TrackingDiffInitR13Tracking_Difff)
    i._Z16rt_InitInfAndNaNj                  0x08001dcc   Section        0  rt_nonfinite.o(i._Z16rt_InitInfAndNaNj)
    i._Z17GPS_DataCacheCallh                 0x08001e28   Section        0  dev_gps.o(i._Z17GPS_DataCacheCallh)
    i._Z18SPI1_ReadWriteByteh                0x08001e64   Section        0  dev_spi.o(i._Z18SPI1_ReadWriteByteh)
    i._Z19NMEA_GPGGA_AnalysisP8nmea_msgPh    0x08001eb8   Section        0  dev_gps.o(i._Z19NMEA_GPGGA_AnalysisP8nmea_msgPh)
    i._Z19NMEA_GPGSA_AnalysisP8nmea_msgPh    0x08001f20   Section        0  dev_gps.o(i._Z19NMEA_GPGSA_AnalysisP8nmea_msgPh)
    i._Z19NMEA_GPGSV_AnalysisP8nmea_msgPh    0x08001fd8   Section        0  dev_gps.o(i._Z19NMEA_GPGSV_AnalysisP8nmea_msgPh)
    i._Z19NMEA_GPRMC_AnalysisP8nmea_msgPh    0x08002104   Section        0  dev_gps.o(i._Z19NMEA_GPRMC_AnalysisP8nmea_msgPh)
    i._Z19NMEA_GPVTG_AnalysisP8nmea_msgPh    0x08002324   Section        0  dev_gps.o(i._Z19NMEA_GPVTG_AnalysisP8nmea_msgPh)
    i._Z21SysTick_Configurationv             0x0800237c   Section        0  dev_clock.o(i._Z21SysTick_Configurationv)
    i._Z4fhanffff                            0x080023e8   Section        0  fhan.o(i._Z4fhanffff)
    i._Z6millisv                             0x08002624   Section        0  ekf_att_pos_estimator_main.o(i._Z6millisv)
    i._Z7radiansf                            0x0800262c   Section        0  cal_math.o(i._Z7radiansf)
    i._Z8Delay_msj                           0x08002640   Section        0  dev_clock.o(i._Z8Delay_msj)
    i._Z8Delay_usj                           0x08002658   Section        0  dev_clock.o(i._Z8Delay_usj)
    i._Z8GPS_Callv                           0x08002670   Section        0  dev_gps.o(i._Z8GPS_Callv)
    i._Z8NMEA_Powhh                          0x080026b8   Section        0  dev_gps.o(i._Z8NMEA_Powhh)
    i._Z8TaskLoopv                           0x080026d0   Section        0  uav_task.o(i._Z8TaskLoopv)
    i._Z8rtGetInfv                           0x08002750   Section        0  rtgetinf_1.o(i._Z8rtGetInfv)
    i._Z8rtGetNaNv                           0x080027e8   Section        0  rtgetnan_1.o(i._Z8rtGetNaNv)
    i._Z8sys_timev                           0x08002884   Section        0  dev_clock.o(i._Z8sys_timev)
    i._Z9SPI1_Initv                          0x08002908   Section        0  dev_spi.o(i._Z9SPI1_Initv)
    i._Z9ekf_debugPKcz                       0x080029d8   Section        0  estimator_utilities.o(i._Z9ekf_debugPKcz)
    i._Z9getMicrosv                          0x080029e0   Section        0  ekf_att_pos_estimator_main.o(i._Z9getMicrosv)
    i._Z9getMillisv                          0x080029ec   Section        0  ekf_att_pos_estimator_main.o(i._Z9getMillisv)
    i._Z9rtGetInfFv                          0x08002a00   Section        0  rtgetinf_1.o(i._Z9rtGetInfFv)
    i._Z9rtGetNaNFv                          0x08002a10   Section        0  rtgetnan_1.o(i._Z9rtGetNaNFv)
    i._Z9task_1_msv                          0x08002a4c   Section        0  uav_task.o(i._Z9task_1_msv)
    i._Z9task_2_msv                          0x08002a50   Section        0  uav_task.o(i._Z9task_2_msv)
    i._Z9task_8_msv                          0x08002a88   Section        0  uav_task.o(i._Z9task_8_msv)
    i._ZN10_PARAMETER12ReadAnglePIDEv        0x08002aa0   Section        0  uav_parameter.o(i._ZN10_PARAMETER12ReadAnglePIDEv)
    i._ZN10_PARAMETER12SaveAnglePIDEv        0x08002b28   Section        0  uav_parameter.o(i._ZN10_PARAMETER12SaveAnglePIDEv)
    i._ZN10_PARAMETER13ConfigurationEv       0x08002bb0   Section        0  uav_parameter.o(i._ZN10_PARAMETER13ConfigurationEv)
    i._ZN10_PARAMETER14ReadAngularPIDEv      0x08002c2c   Section        0  uav_parameter.o(i._ZN10_PARAMETER14ReadAngularPIDEv)
    i._ZN10_PARAMETER14SaveAngularPIDEv      0x08002cb8   Section        0  uav_parameter.o(i._ZN10_PARAMETER14SaveAngularPIDEv)
    i._ZN10_PARAMETER15ReadAccOffersetEv     0x08002d40   Section        0  uav_parameter.o(i._ZN10_PARAMETER15ReadAccOffersetEv)
    i._ZN10_PARAMETER15ReadGyrOffersetEv     0x08002e1c   Section        0  uav_parameter.o(i._ZN10_PARAMETER15ReadGyrOffersetEv)
    i._ZN10_PARAMETER15ReadMagOffersetEv     0x08002efc   Section        0  uav_parameter.o(i._ZN10_PARAMETER15ReadMagOffersetEv)
    i._ZN10_PARAMETER15SaveAccOffersetE7Vector3IfE 0x08002fe0   Section        0  uav_parameter.o(i._ZN10_PARAMETER15SaveAccOffersetE7Vector3IfE)
    i._ZN10_PARAMETER15SaveGyrOffersetE7Vector3IfE 0x08003044   Section        0  uav_parameter.o(i._ZN10_PARAMETER15SaveGyrOffersetE7Vector3IfE)
    i._ZN10_PARAMETER15SaveMagOffersetE7Vector3IfE 0x0800309c   Section        0  uav_parameter.o(i._ZN10_PARAMETER15SaveMagOffersetE7Vector3IfE)
    i._ZN10_PARAMETER18Read_MS_DIS_SPEPIDEv  0x080030f0   Section        0  uav_parameter.o(i._ZN10_PARAMETER18Read_MS_DIS_SPEPIDEv)
    i._ZN10_PARAMETER18Read_UL_DIS_SPEPIDEv  0x08003168   Section        0  uav_parameter.o(i._ZN10_PARAMETER18Read_UL_DIS_SPEPIDEv)
    i._ZN10_PARAMETER18Save_MS_DIS_SPEPIDEv  0x080031e0   Section        0  uav_parameter.o(i._ZN10_PARAMETER18Save_MS_DIS_SPEPIDEv)
    i._ZN10_PARAMETER18Save_UL_DIS_SPEPIDEv  0x08003258   Section        0  uav_parameter.o(i._ZN10_PARAMETER18Save_UL_DIS_SPEPIDEv)
    i._ZN11_FLASH25Q3214SPI_Flash_ReadEPhjt  0x080032d0   Section        0  dev_flash.o(i._ZN11_FLASH25Q3214SPI_Flash_ReadEPhjt)
    i._ZN11_FLASH25Q3215SPI_Flash_WriteEPhjt 0x08003324   Section        0  dev_flash.o(i._ZN11_FLASH25Q3215SPI_Flash_WriteEPhjt)
    i._ZN11_FLASH25Q3216SPI_Flash_ReadIDEv   0x080033e4   Section        0  dev_flash.o(i._ZN11_FLASH25Q3216SPI_Flash_ReadIDEv)
    i._ZN11_FLASH25Q3216SPI_Flash_ReadSREv   0x0800342c   Section        0  dev_flash.o(i._ZN11_FLASH25Q3216SPI_Flash_ReadSREv)
    i._ZN11_FLASH25Q3216SPI_Flash_Read_fEjPft 0x08003458   Section        0  dev_flash.o(i._ZN11_FLASH25Q3216SPI_Flash_Read_fEjPft)
    i._ZN11_FLASH25Q3217SPI_Flash_Write_fEjPft 0x08003474   Section        0  dev_flash.o(i._ZN11_FLASH25Q3217SPI_Flash_Write_fEjPft)
    i._ZN11_FLASH25Q3219SPI_Flash_Wait_BusyEv 0x08003490   Section        0  dev_flash.o(i._ZN11_FLASH25Q3219SPI_Flash_Wait_BusyEv)
    i._ZN11_FLASH25Q3220SPI_Flash_Write_PageEPhjt 0x080034a8   Section        0  dev_flash.o(i._ZN11_FLASH25Q3220SPI_Flash_Write_PageEPhjt)
    i._ZN11_FLASH25Q3222SPI_FLASH_Write_EnableEv 0x08003508   Section        0  dev_flash.o(i._ZN11_FLASH25Q3222SPI_FLASH_Write_EnableEv)
    i._ZN11_FLASH25Q3222SPI_Flash_Erase_SectorEj 0x08003528   Section        0  dev_flash.o(i._ZN11_FLASH25Q3222SPI_Flash_Erase_SectorEj)
    i._ZN11_FLASH25Q3223SPI_Flash_Write_NoCheckEPhjt 0x08003574   Section        0  dev_flash.o(i._ZN11_FLASH25Q3223SPI_Flash_Write_NoCheckEPhjt)
    i._ZN11_FLASH25Q325Init_Ev               0x080035c0   Section        0  dev_flash.o(i._ZN11_FLASH25Q325Init_Ev)
    i._ZN12Vector3f_px44zeroEv               0x080035f8   Section        0  estimator_utilities.o(i._ZN12Vector3f_px44zeroEv)
    i._ZN12Vector3f_px4C1Efff                0x08003618   Section        0  estimator_22states.o(i._ZN12Vector3f_px4C1Efff)
    i._ZN28AttitudePositionEstimatorEKF17parameters_updateEv 0x08003628   Section        0  ekf_att_pos_estimator_main.o(i._ZN28AttitudePositionEstimatorEKF17parameters_updateEv)
    i._ZN28AttitudePositionEstimatorEKFC1Ev  0x080036bc   Section        0  ekf_att_pos_estimator_main.o(i._ZN28AttitudePositionEstimatorEKFC1Ev)
    i._ZN28AttitudePositionEstimatorEKFD1Ev  0x080037c4   Section        0  ekf_att_pos_estimator_main.o(i._ZN28AttitudePositionEstimatorEKFD1Ev)
    i._ZN3IMU12SensorSampleEv                0x080037d4   Section        0  imu.o(i._ZN3IMU12SensorSampleEv)
    i._ZN3IMU4InitEv                         0x08003838   Section        0  imu.o(i._ZN3IMU4InitEv)
    i._ZN4_DMA13ConfigurationEv              0x0800387c   Section        0  dev_dma.o(i._ZN4_DMA13ConfigurationEv)
    i._ZN4_I2C10SingleReadEhhPh              0x080038f4   Section        0  dev_i2c.o(i._ZN4_I2C10SingleReadEhhPh)
    i._ZN4_I2C11SingleWriteEhhh              0x08003962   Section        0  dev_i2c.o(i._ZN4_I2C11SingleWriteEhhh)
    i._ZN4_I2C3AckEv                         0x080039b4   Section        0  dev_i2c.o(i._ZN4_I2C3AckEv)
    i._ZN4_I2C4StopEv                        0x080039f0   Section        0  dev_i2c.o(i._ZN4_I2C4StopEv)
    i._ZN4_I2C5DelayEv                       0x08003a30   Section        0  dev_i2c.o(i._ZN4_I2C5DelayEv)
    i._ZN4_I2C5NoAckEv                       0x08003a48   Section        0  dev_i2c.o(i._ZN4_I2C5NoAckEv)
    i._ZN4_I2C5StartEv                       0x08003a88   Section        0  dev_i2c.o(i._ZN4_I2C5StartEv)
    i._ZN4_I2C7WaitAckEv                     0x08003ae8   Section        0  dev_i2c.o(i._ZN4_I2C7WaitAckEv)
    i._ZN4_I2C8MultReadEhhhPh                0x08003b4c   Section        0  dev_i2c.o(i._ZN4_I2C8MultReadEhhhPh)
    i._ZN4_I2C8ReadByteEh                    0x08003bd4   Section        0  dev_i2c.o(i._ZN4_I2C8ReadByteEh)
    i._ZN4_I2C8SendByteEh                    0x08003c40   Section        0  dev_i2c.o(i._ZN4_I2C8SendByteEh)
    i._ZN4_LED13ConfigurationEv              0x08003c9c   Section        0  dev_led.o(i._ZN4_LED13ConfigurationEv)
    i._ZN4_PID3CalEv                         0x08003cbc   Section        0  uav_pid.o(i._ZN4_PID3CalEv)
    i._ZN4_PID4InitEfff                      0x08003cf0   Section        0  uav_pid.o(i._ZN4_PID4InitEfff)
    i._ZN4_PID5Err_iEf                       0x08003d5c   Section        0  uav_pid.o(i._ZN4_PID5Err_iEf)
    i._ZN4_PID6GetErrEf                      0x08003d76   Section        0  uav_pid.o(i._ZN4_PID6GetErrEf)
    i._ZN4_RCC13ConfigurationEv              0x08003d84   Section        0  dev_rcc.o(i._ZN4_RCC13ConfigurationEv)
    i._ZN4_UAV4InitEv                        0x08003dec   Section        0  uav_init.o(i._ZN4_UAV4InitEv)
    i._ZN5Mat3f8identityEv                   0x08003e7c   Section        0  estimator_utilities.o(i._ZN5Mat3f8identityEv)
    i._ZN5Mat3fC1Ev                          0x08003ecc   Section        0  estimator_22states.o(i._ZN5Mat3fC1Ev)
    i._ZN5_ADRC4InitEv                       0x08003f64   Section        0  uav_adrc.o(i._ZN5_ADRC4InitEv)
    i._ZN5_ADRC7AngularEf                    0x08004010   Section        0  uav_adrc.o(i._ZN5_ADRC7AngularEf)
    i._ZN5_MOTO12MotoBaseInitEP11TIM_TypeDefh 0x08004770   Section        0  dev_moto.o(i._ZN5_MOTO12MotoBaseInitEP11TIM_TypeDefh)
    i._ZN5_MOTO6SetPwmEPt                    0x0800486c   Section        0  dev_moto.o(i._ZN5_MOTO6SetPwmEPt)
    i._ZN5_MOTO8MotoInitEv                   0x080048a8   Section        0  dev_moto.o(i._ZN5_MOTO8MotoInitEv)
    i._ZN5_NVIC13ConfigurationEv             0x080048d4   Section        0  dev_nvic.o(i._ZN5_NVIC13ConfigurationEv)
    i._ZN5_PORT13ConfigurationEv             0x08004950   Section        0  dev_port.o(i._ZN5_PORT13ConfigurationEv)
    i._ZN6Filter13CF_Factor_CalEff           0x08004b20   Section        0  uav_filter.o(i._ZN6Filter13CF_Factor_CalEff)
    i._ZN6Filter14Moving_AverageEfPftPtS0_   0x08004b2e   Section        0  uav_filter.o(i._ZN6Filter14Moving_AverageEfPftPtS0_)
    i._ZN6Filter18LPF_1st_Factor_CalEff      0x08004b90   Section        0  uav_filter.o(i._ZN6Filter18LPF_1st_Factor_CalEff)
    i._ZN6Filter18LPF_2nd_Factor_CalEffPNS_12LPF2ndData_tE 0x08004bb4   Section        0  uav_filter.o(i._ZN6Filter18LPF_2nd_Factor_CalEffPNS_12LPF2ndData_tE)
    i._ZN6Filter7LPF_2ndEPNS_12LPF2ndData_tE7Vector3IfE 0x08004c48   Section        0  uav_filter.o(i._ZN6Filter7LPF_2ndEPNS_12LPF2ndData_tE7Vector3IfE)
    i._ZN6NAV_H_4InitEv                      0x08004d0c   Section        0  nav_h.o(i._ZN6NAV_H_4InitEv)
    i._ZN6NAV_V_8get_ms_vEf                  0x08004d90   Section        0  nav_speed.o(i._ZN6NAV_V_8get_ms_vEf)
    i._ZN6_DEBUS9RemotCallEv                 0x08004e24   Section        0  dev_debus.o(i._ZN6_DEBUS9RemotCallEv)
    i._ZN6_US10012SampleTrigerEf             0x08004e94   Section        0  dev_us100.o(i._ZN6_US10012SampleTrigerEf)
    i._ZN6_US1007disCallEv                   0x08004eb8   Section        0  dev_us100.o(i._ZN6_US1007disCallEv)
    i._ZN6_USART10Usart2CallEv               0x08004f80   Section        0  dev_usart.o(i._ZN6_USART10Usart2CallEv)
    i._ZN6_USART10Usart3CallEv               0x080050f0   Section        0  dev_usart.o(i._ZN6_USART10Usart3CallEv)
    i._ZN6_USART10Usart6CallEv               0x08005120   Section        0  dev_usart.o(i._ZN6_USART10Usart6CallEv)
    i._ZN6_USART13ConfigurationEv            0x0800514c   Section        0  dev_usart.o(i._ZN6_USART13ConfigurationEv)
    i._ZN6_USART13Uart2_Put_BufEPhh          0x08005260   Section        0  dev_usart.o(i._ZN6_USART13Uart2_Put_BufEPhh)
    i._ZN7_AK897510DataSampleEv              0x080052b0   Section        0  dev_ak8975.o(i._ZN7_AK897510DataSampleEv)
    i._ZN7_AK897512MagCalOffsetEv            0x0800541c   Section        0  dev_ak8975.o(i._ZN7_AK897512MagCalOffsetEv)
    i._ZN7_AK897512SampleTrigerEv            0x080056b0   Section        0  dev_ak8975.o(i._ZN7_AK897512SampleTrigerEv)
    i._ZN7_MS561110DataUpdateEv              0x080056c4   Section        0  dev_ms5611.o(i._ZN7_MS561110DataUpdateEv)
    i._ZN7_MS561113ConfigurationEv           0x08005708   Section        0  dev_ms5611.o(i._ZN7_MS561113ConfigurationEv)
    i._ZN7_MS561114PressureSampleEv          0x08005730   Section        0  dev_ms5611.o(i._ZN7_MS561114PressureSampleEv)
    i._ZN7_MS561116BaroAltCalculateEv        0x08005748   Section        0  dev_ms5611.o(i._ZN7_MS561116BaroAltCalculateEv)
    i._ZN7_MS561117TemperatureSampleEv       0x08005a84   Section        0  dev_ms5611.o(i._ZN7_MS561117TemperatureSampleEv)
    i._ZN7_MS561120PressureSampleTrigerEv    0x08005a9a   Section        0  dev_ms5611.o(i._ZN7_MS561120PressureSampleTrigerEv)
    i._ZN7_MS561123TemperatureSampleTrigerEv 0x08005aac   Section        0  dev_ms5611.o(i._ZN7_MS561123TemperatureSampleTrigerEv)
    i._ZN7_MS56115ResetEv                    0x08005abe   Section        0  dev_ms5611.o(i._ZN7_MS56115ResetEv)
    i._ZN7_MS56118ReadPromEv                 0x08005ad0   Section        0  dev_ms5611.o(i._ZN7_MS56118ReadPromEv)
    i._ZN8_CONTROL4InitEv                    0x08005b2c   Section        0  uav_control.o(i._ZN8_CONTROL4InitEv)
    i._ZN8_MAVLINK10Send_CheckEhh            0x08005bf8   Section        0  dev_mavlink.o(i._ZN8_MAVLINK10Send_CheckEhh)
    i._ZN8_MAVLINK10Send_PowerEtt            0x08005c40   Section        0  dev_mavlink.o(i._ZN8_MAVLINK10Send_PowerEtt)
    i._ZN8_MAVLINK11Send_RCDataEtttttttttt   0x08005cda   Section        0  dev_mavlink.o(i._ZN8_MAVLINK11Send_RCDataEtttttttttt)
    i._ZN8_MAVLINK11Send_SenserEsssssssss    0x08005e62   Section        0  dev_mavlink.o(i._ZN8_MAVLINK11Send_SenserEsssssssss)
    i._ZN8_MAVLINK11Send_StatusEfffihh       0x08006000   Section        0  dev_mavlink.o(i._ZN8_MAVLINK11Send_StatusEfffihh)
    i._ZN8_MAVLINK12Send_Senser2Eit          0x08006174   Section        0  dev_mavlink.o(i._ZN8_MAVLINK12Send_Senser2Eit)
    i._ZN8_MAVLINK12Send_VersionEhtttt       0x0800622e   Section        0  dev_mavlink.o(i._ZN8_MAVLINK12Send_VersionEhtttt)
    i._ZN8_MAVLINK13Data_ExchangeEv          0x08006308   Section        0  dev_mavlink.o(i._ZN8_MAVLINK13Data_ExchangeEv)
    i._ZN8_MAVLINK16Data_Receive_AnlEPhh     0x08006768   Section        0  dev_mavlink.o(i._ZN8_MAVLINK16Data_Receive_AnlEPhh)
    i._ZN8_MAVLINK8Send_PIDEhfffffffff       0x08006ca8   Section        0  dev_mavlink.o(i._ZN8_MAVLINK8Send_PIDEhfffffffff)
    i._ZN8_MAVLINK9Send_DataEPhh             0x08006f0c   Section        0  dev_mavlink.o(i._ZN8_MAVLINK9Send_DataEPhh)
    i._ZN8_MPU605010DataSampleEv             0x08006f28   Section        0  dev_mup6050.o(i._ZN8_MPU605010DataSampleEv)
    i._ZN8_MPU605011GetGyro2dpsEv            0x08007064   Section        0  dev_mup6050.o(i._ZN8_MPU605011GetGyro2dpsEv)
    i._ZN8_MPU605011I2CwriteBitEhhhh         0x080070b8   Section        0  dev_mup6050.o(i._ZN8_MPU605011I2CwriteBitEhhhh)
    i._ZN8_MPU605012AccCalOffsetEv           0x08007118   Section        0  dev_mup6050.o(i._ZN8_MPU605012AccCalOffsetEv)
    i._ZN8_MPU605012I2CwriteBitsEhhhhh       0x0800723c   Section        0  dev_mup6050.o(i._ZN8_MPU605012I2CwriteBitsEhhhhh)
    i._ZN8_MPU605012SetI2CBypassEh           0x080072aa   Section        0  dev_mup6050.o(i._ZN8_MPU605012SetI2CBypassEh)
    i._ZN8_MPU605013ConfigurationEt          0x080072c0   Section        0  dev_mup6050.o(i._ZN8_MPU605013ConfigurationEt)
    i._ZN8_MPU605013GyroCalOffsetEv          0x08007384   Section        0  dev_mup6050.o(i._ZN8_MPU605013GyroCalOffsetEv)
    i._ZN8_MPU605014GyroAutoOffsetEh         0x08007470   Section        0  dev_mup6050.o(i._ZN8_MPU605014GyroAutoOffsetEh)
    i._ZN8_MPU605014SetClockSourceEh         0x080076c4   Section        0  dev_mup6050.o(i._ZN8_MPU605014SetClockSourceEh)
    i._ZN8_MPU605016SetI2CMasterModeEh       0x080076de   Section        0  dev_mup6050.o(i._ZN8_MPU605016SetI2CMasterModeEh)
    i._ZN8_MPU605021SetFullScaleGyroRangeEh  0x080076f4   Section        0  dev_mup6050.o(i._ZN8_MPU605021SetFullScaleGyroRangeEh)
    i._ZN8_MPU605022SetFullScaleAccelRangeEh 0x08007722   Section        0  dev_mup6050.o(i._ZN8_MPU605022SetFullScaleAccelRangeEh)
    i._ZN8_MPU60504ReadEv                    0x08007750   Section        0  dev_mup6050.o(i._ZN8_MPU60504ReadEv)
    i._ZN8_MPU60507SetDLPFEh                 0x08007768   Section        0  dev_mup6050.o(i._ZN8_MPU60507SetDLPFEh)
    i._ZN8_MPU60508SetSleepEh                0x08007782   Section        0  dev_mup6050.o(i._ZN8_MPU60508SetSleepEh)
    i._ZN8_MPU60509SetSampleEt               0x08007798   Section        0  dev_mup6050.o(i._ZN8_MPU60509SetSampleEt)
    i._ZN8_MPU6050C1Ev                       0x080077b8   Section        0  dev_mup6050.o(i._ZN8_MPU6050C1Ev)
    i._ZN9AttPosEKF13ZeroVariablesEv         0x08007850   Section        0  estimator_22states.o(i._ZN9AttPosEKF13ZeroVariablesEv)
    i._ZN9AttPosEKF14ConstrainFloatEfff      0x08007a34   Section        0  estimator_22states.o(i._ZN9AttPosEKF14ConstrainFloatEfff)
    i._ZN9AttPosEKF16mag_state_structC1Ev    0x08007b30   Section        0  estimator_22states.o(i._ZN9AttPosEKF16mag_state_structC1Ev)
    i._ZN9AttPosEKF20InitialiseParametersEv  0x08007b44   Section        0  estimator_22states.o(i._ZN9AttPosEKF20InitialiseParametersEv)
    i._ZN9AttPosEKFC1Ev                      0x08007c44   Section        0  estimator_22states.o(i._ZN9AttPosEKFC1Ev)
    i._ZN9AttPosEKFD1Ev                      0x080080d2   Section        0  estimator_22states.o(i._ZN9AttPosEKFD1Ev)
    i._ZN9_ATTITUDE10DISControlEf            0x080080d4   Section        0  uav_attitude.o(i._ZN9_ATTITUDE10DISControlEf)
    i._ZN9_ATTITUDE4InitEv                   0x08008318   Section        0  uav_attitude.o(i._ZN9_ATTITUDE4InitEv)
    i.__0printf                              0x080083a4   Section        0  printfa.o(i.__0printf)
    i.__ARM_isfinitef                        0x080083c4   Section        0  ekf_att_pos_estimator_main.o(i.__ARM_isfinitef)
    i.__aeabi_atexit                         0x080083d6   Section        0  aeabi_atexit.o(i.__aeabi_atexit)
    i.__cxa_finalize                         0x08008408   Section        0  cxa_finalize.o(i.__cxa_finalize)
    i.__cxa_guard_acquire                    0x0800844a   Section        0  cxa_guard_acquire.o(i.__cxa_guard_acquire)
    i.__hardfp_sqrtf                         0x0800845a   Section        0  sqrtf.o(i.__hardfp_sqrtf)
    i.__scatterload_copy                     0x08008494   Section       14  handlers.o(i.__scatterload_copy)
    i.__scatterload_null                     0x080084a2   Section        2  handlers.o(i.__scatterload_null)
    i.__scatterload_zeroinit                 0x080084a4   Section       14  handlers.o(i.__scatterload_zeroinit)
    i.__set_errno                            0x080084b4   Section        0  errno.o(i.__set_errno)
    i.__sti___12_uav_task_cpp_UAV            0x080084c0   Section        0  uav_task.o(i.__sti___12_uav_task_cpp_UAV)
    __sti___12_uav_task_cpp_UAV              0x080084c1   Thumb Code    22  uav_task.o(i.__sti___12_uav_task_cpp_UAV)
    i.__sti___14_dev_ak8975_cpp_Ak8975       0x080084e0   Section        0  dev_ak8975.o(i.__sti___14_dev_ak8975_cpp_Ak8975)
    __sti___14_dev_ak8975_cpp_Ak8975         0x080084e1   Thumb Code    44  dev_ak8975.o(i.__sti___14_dev_ak8975_cpp_Ak8975)
    i.__sti___14_dev_ms5611_cpp_Ms5611       0x08008510   Section        0  dev_ms5611.o(i.__sti___14_dev_ms5611_cpp_Ms5611)
    __sti___14_dev_ms5611_cpp_Ms5611         0x08008511   Thumb Code    30  dev_ms5611.o(i.__sti___14_dev_ms5611_cpp_Ms5611)
    i.__sti___14_uav_filter_cpp_filter       0x08008534   Section        0  uav_filter.o(i.__sti___14_uav_filter_cpp_filter)
    __sti___14_uav_filter_cpp_filter         0x08008535   Thumb Code     6  uav_filter.o(i.__sti___14_uav_filter_cpp_filter)
    i.__sti___15_dev_mup6050_cpp_Mpu6050     0x08008540   Section        0  dev_mup6050.o(i.__sti___15_dev_mup6050_cpp_Mpu6050)
    __sti___15_dev_mup6050_cpp_Mpu6050       0x08008541   Thumb Code    10  dev_mup6050.o(i.__sti___15_dev_mup6050_cpp_Mpu6050)
    i.__sti___16_uav_attitude_cpp_Attitude   0x08008550   Section        0  uav_attitude.o(i.__sti___16_uav_attitude_cpp_Attitude)
    __sti___16_uav_attitude_cpp_Attitude     0x08008551   Thumb Code    58  uav_attitude.o(i.__sti___16_uav_attitude_cpp_Attitude)
    i.__sti___30_ekf_att_pos_estimator_main_cpp_att_ekf 0x08008590   Section        0  ekf_att_pos_estimator_main.o(i.__sti___30_ekf_att_pos_estimator_main_cpp_att_ekf)
    __sti___30_ekf_att_pos_estimator_main_cpp_att_ekf 0x08008591   Thumb Code    36  ekf_att_pos_estimator_main.o(i.__sti___30_ekf_att_pos_estimator_main_cpp_att_ekf)
    i.__sti___7_imu_cpp_imu                  0x080085c8   Section        0  imu.o(i.__sti___7_imu_cpp_imu)
    __sti___7_imu_cpp_imu                    0x080085c9   Thumb Code    72  imu.o(i.__sti___7_imu_cpp_imu)
    i._fp_digits                             0x08008614   Section        0  printfa.o(i._fp_digits)
    _fp_digits                               0x08008615   Thumb Code   334  printfa.o(i._fp_digits)
    i._printf_core                           0x08008778   Section        0  printfa.o(i._printf_core)
    _printf_core                             0x08008779   Thumb Code  1744  printfa.o(i._printf_core)
    i._printf_post_padding                   0x08008e54   Section        0  printfa.o(i._printf_post_padding)
    _printf_post_padding                     0x08008e55   Thumb Code    36  printfa.o(i._printf_post_padding)
    i._printf_pre_padding                    0x08008e78   Section        0  printfa.o(i._printf_pre_padding)
    _printf_pre_padding                      0x08008e79   Thumb Code    46  printfa.o(i._printf_pre_padding)
    i.fputc                                  0x08008ea8   Section        0  dev_usart.o(i.fputc)
    i.free                                   0x08008ecc   Section        0  malloc.o(i.free)
    i.main                                   0x08008f1c   Section        0  uav_task.o(i.main)
    i.malloc                                 0x08008f8c   Section        0  malloc.o(i.malloc)
    t._ZN7Vector3IfEC1Efff                   0x08008ff8   Section        0  imu_dcm.o(t._ZN7Vector3IfEC1Efff)
    t._ZN7Vector3IfEC1Ev                     0x08009008   Section        0  imu.o(t._ZN7Vector3IfEC1Ev)
    t._ZN7Vector3IfEclEfff                   0x08009020   Section        0  dev_ak8975.o(t._ZN7Vector3IfEclEfff)
    t._ZN7Vector3IfEpLERKS0_                 0x0800902e   Section        0  cal_vector3.o(t._ZN7Vector3IfEpLERKS0_)
    t._ZN7Vector3IsEC1Ev                     0x08009060   Section        0  uav_filter.o(t._ZN7Vector3IsEC1Ev)
    t._ZNK7Vector3IfEdvEf                    0x0800906a   Section        0  cal_vector3.o(t._ZNK7Vector3IfEdvEf)
    t._ZNK7Vector3IfEmiERKS0_                0x080090c2   Section        0  cal_vector3.o(t._ZNK7Vector3IfEmiERKS0_)
    t._ZNK7Vector3IfEmlERKS0_                0x0800910c   Section        0  cal_vector3.o(t._ZNK7Vector3IfEmlERKS0_)
    t._ZNK7Vector3IfEmlEf                    0x08009132   Section        0  cal_vector3.o(t._ZNK7Vector3IfEmlEf)
    t._ZNK7Vector3IfEplERKS0_                0x0800917e   Section        0  cal_vector3.o(t._ZNK7Vector3IfEplERKS0_)
    .constdata                               0x080091c8   Section       36  nav_h_ekf.o(.constdata)
    iv0                                      0x080091c8   Data          36  nav_h_ekf.o(.constdata)
    .init_array                              0x0800920c   Section        4  uav_task.o(.init_array)
    .init_array                              0x08009210   Section        4  uav_filter.o(.init_array)
    .init_array                              0x08009214   Section        4  ekf_att_pos_estimator_main.o(.init_array)
    .init_array                              0x08009218   Section        4  imu.o(.init_array)
    .init_array                              0x0800921c   Section        4  uav_attitude.o(.init_array)
    .init_array                              0x08009220   Section        4  dev_ak8975.o(.init_array)
    .init_array                              0x08009224   Section        4  dev_ms5611.o(.init_array)
    .init_array                              0x08009228   Section        4  dev_mup6050.o(.init_array)
    .init_array                              0x0800922c   Section        0  cpp_init.o(.init_array)
    .data                                    0x20000000   Section        8  uav_task.o(.data)
    .data                                    0x20000008   Section        1  uav_control.o(.data)
    .data                                    0x2000000c   Section       16  uav_adrc.o(.data)
    lx                                       0x20000018   Data           4  uav_adrc.o(.data)
    .data                                    0x2000001c   Section       27  uav_filter.o(.data)
    _ZGV_ZZN6Filter10MoveWindowE7Vector3IsEPS1_S1_S2_hE3acc 0x20000020   Data           4  uav_filter.o(.data)
    _ZGV_ZZN6Filter10MoveWindowE7Vector3IsEPS1_S1_S2_hE8temp_acc 0x20000024   Data           4  uav_filter.o(.data)
    _ZGV_ZZN6Filter10MoveWindowE7Vector3IsEPS1_S1_S2_hE4gyro 0x20000028   Data           4  uav_filter.o(.data)
    _ZGV_ZZN6Filter10MoveWindowE7Vector3IsEPS1_S1_S2_hE9temp_gyro 0x2000002c   Data           4  uav_filter.o(.data)
    _ZGV_ZZN6Filter10MoveWindowE7Vector3IsEPS1_S1_S2_hE13FilterNumbers 0x20000030   Data           4  uav_filter.o(.data)
    Filter::MoveWindow(Vector3<short>, Vector3<short>*, Vector3<short>, Vector3<short>*, unsigned char)::FilterNumbers 0x20000034   Data           1  uav_filter.o(.data)
    Filter::MoveWindow(Vector3<short>, Vector3<short>*, Vector3<short>, Vector3<short>*, unsigned char)::count 0x20000035   Data           1  uav_filter.o(.data)
    fifcount                                 0x20000036   Data           1  uav_filter.o(.data)
    .data                                    0x20000038   Section       16  ekf_att_pos_estimator_main.o(.data)
    IMUusec                                  0x20000038   Data           8  ekf_att_pos_estimator_main.o(.data)
    baro_last                                0x20000040   Data           8  ekf_att_pos_estimator_main.o(.data)
    .data                                    0x20000048   Section       59  uav_attitude.o(.data)
    body_ms_DIS_z                            0x20000048   Data           4  uav_attitude.o(.data)
    lastbody_ms_DIS_z                        0x2000004c   Data           4  uav_attitude.o(.data)
    lastbody_ms_DIS_z_fc                     0x20000050   Data           4  uav_attitude.o(.data)
    speErr_ms_I                              0x20000054   Data           4  uav_attitude.o(.data)
    lastbody_ms_SPE_z                        0x20000058   Data           4  uav_attitude.o(.data)
    disErr_ms_I                              0x2000005c   Data           4  uav_attitude.o(.data)
    accErr_ms_I                              0x20000060   Data           4  uav_attitude.o(.data)
    lastbody_ms_ACC_z                        0x20000064   Data           4  uav_attitude.o(.data)
    lastbody_ms_SPE_fc                       0x20000068   Data           4  uav_attitude.o(.data)
    body_ul_DIS_z                            0x2000006c   Data           4  uav_attitude.o(.data)
    lastbody_ul_DIS_z                        0x20000070   Data           4  uav_attitude.o(.data)
    lastbody_ul_SPE_z                        0x20000074   Data           4  uav_attitude.o(.data)
    speErr_ul_I                              0x20000078   Data           4  uav_attitude.o(.data)
    disErr_ul_I                              0x2000007c   Data           4  uav_attitude.o(.data)
    count                                    0x20000080   Data           2  uav_attitude.o(.data)
    ms_flag                                  0x20000082   Data           1  uav_attitude.o(.data)
    .data                                    0x20000084   Section       36  nav_speed.o(.data)
    lh                                       0x20000090   Data           4  nav_speed.o(.data)
    lv                                       0x20000094   Data           4  nav_speed.o(.data)
    sum                                      0x20000098   Data           4  nav_speed.o(.data)
    ms_flag                                  0x2000009c   Data           2  nav_speed.o(.data)
    ready                                    0x2000009e   Data           1  nav_speed.o(.data)
    ms_up                                    0x200000a0   Data           2  nav_speed.o(.data)
    sum                                      0x200000a4   Data           4  nav_speed.o(.data)
    .data                                    0x200000a8   Section        1  dev_led.o(.data)
    .data                                    0x200000a9   Section        1  dev_moto.o(.data)
    .data                                    0x200000aa   Section        6  dev_usart.o(.data)
    RxState                                  0x200000ad   Data           1  dev_usart.o(.data)
    _data_len                                0x200000ae   Data           1  dev_usart.o(.data)
    _data_cnt                                0x200000af   Data           1  dev_usart.o(.data)
    .data                                    0x200000b0   Section       24  dev_clock.o(.data)
    .data                                    0x200000c8   Section        8  dev_ak8975.o(.data)
    cnt_m                                    0x200000c8   Data           2  dev_ak8975.o(.data)
    _ZGVtemMag                               0x200000cc   Data           4  dev_ak8975.o(.data)
    .data                                    0x200000d0   Section        8  dev_mavlink.o(.data)
    cnt                                      0x200000d0   Data           1  dev_mavlink.o(.data)
    senser_cnt                               0x200000d1   Data           1  dev_mavlink.o(.data)
    user_cnt                                 0x200000d2   Data           1  dev_mavlink.o(.data)
    status_cnt                               0x200000d3   Data           1  dev_mavlink.o(.data)
    rcdata_cnt                               0x200000d4   Data           1  dev_mavlink.o(.data)
    motopwm_cnt                              0x200000d5   Data           1  dev_mavlink.o(.data)
    power_cnt                                0x200000d6   Data           1  dev_mavlink.o(.data)
    senser2_cnt                              0x200000d7   Data           1  dev_mavlink.o(.data)
    .data                                    0x200000d8   Section       10  dev_ms5611.o(.data)
    baro_start                               0x200000d8   Data           1  dev_ms5611.o(.data)
    get                                      0x200000d9   Data           1  dev_ms5611.o(.data)
    sum_tmp_5611                             0x200000dc   Data           4  dev_ms5611.o(.data)
    sum_cnt                                  0x200000e0   Data           1  dev_ms5611.o(.data)
    state                                    0x200000e1   Data           1  dev_ms5611.o(.data)
    .data                                    0x200000e4   Section       20  dev_sd.o(.data)
    CardType                                 0x200000e4   Data           1  dev_sd.o(.data)
    RCA                                      0x200000e8   Data           4  dev_sd.o(.data)
    DeviceMode                               0x200000ec   Data           1  dev_sd.o(.data)
    StopCondition                            0x200000ed   Data           1  dev_sd.o(.data)
    .data                                    0x200000f8   Section       14  dev_mup6050.o(.data)
    _ZGVtempGyro                             0x200000f8   Data           4  dev_mup6050.o(.data)
    cnt_g                                    0x200000fc   Data           2  dev_mup6050.o(.data)
    _ZGVtempAcc                              0x20000100   Data           4  dev_mup6050.o(.data)
    cnt_a                                    0x20000104   Data           2  dev_mup6050.o(.data)
    .data                                    0x20000108   Section       20  dev_flash.o(.data)
    .data                                    0x2000011c   Section        1  dev_us100.o(.data)
    disTem                                   0x2000011c   Data           1  dev_us100.o(.data)
    .data                                    0x2000011e   Section        4  dev_gps.o(.data)
    .data                                    0x20000128   Section       36  rt_nonfinite.o(.data)
    .data                                    0x2000014c   Section       12  control_v.o(.data)
    leo                                      0x20000154   Data           4  control_v.o(.data)
    .data                                    0x20000158   Section       16  stm32f4xx_rcc.o(.data)
    APBAHBPrescTable                         0x20000158   Data          16  stm32f4xx_rcc.o(.data)
    .data                                    0x20000168   Section        4  stdout.o(.data)
    .data                                    0x2000016c   Section        4  errno.o(.data)
    _errno                                   0x2000016c   Data           4  errno.o(.data)
    .data                                    0x20000170   Section        4  cpp_dtor.o(.data)
    ddtor_pointer                            0x20000170   Data           4  cpp_dtor.o(.data)
    .data                                    0x20000174   Section        4  mvars.o(.data)
    .data                                    0x20000178   Section        4  mvars.o(.data)
    .bss                                     0x2000017c   Section       12  uav_task.o(.bss)
    .bss                                     0x20000188   Section      408  uav_control.o(.bss)
    gyr_Err_i                                0x20000308   Data          12  uav_control.o(.bss)
    last_gyr_Err                             0x20000314   Data          12  uav_control.o(.bss)
    .bss                                     0x20000320   Section      384  uav_adrc.o(.bss)
    fl                                       0x20000494   Data          12  uav_adrc.o(.bss)
    .bss                                     0x200004a0   Section       52  uav_rc.o(.bss)
    .bss                                     0x200004d4   Section      160  uav_parameter.o(.bss)
    .bss                                     0x20000578   Section    27032  ekf_att_pos_estimator_main.o(.bss)
    .bss                                     0x20006f10   Section       88  imu.o(.bss)
    .bss                                     0x20006f68   Section      348  uav_attitude.o(.bss)
    .bss                                     0x200070c4   Section       20  nav_speed.o(.bss)
    .bss                                     0x200070d8   Section      168  nav_h.o(.bss)
    .bss                                     0x20007180   Section       48  nav_h_ekf.o(.bss)
    .bss                                     0x200071b0   Section      306  dev_usart.o(.bss)
    RxBuffer                                 0x200072b0   Data          50  dev_usart.o(.bss)
    .bss                                     0x200072e2   Section       12  dev_debus.o(.bss)
    .bss                                     0x200072f0   Section       66  dev_clock.o(.bss)
    .bss                                     0x20007334   Section       72  dev_ak8975.o(.bss)
    temMag                                   0x20007370   Data          12  dev_ak8975.o(.bss)
    .bss                                     0x2000737c   Section       86  dev_mavlink.o(.bss)
    .bss                                     0x200073d4   Section      296  dev_ms5611.o(.bss)
    .bss                                     0x20007500   Section      704  dev_sd.o(.bss)
    CSD_Tab                                  0x20007544   Data          16  dev_sd.o(.bss)
    CID_Tab                                  0x20007554   Data          16  dev_sd.o(.bss)
    .bss                                     0x200077c0   Section      200  dev_mup6050.o(.bss)
    tempGyro                                 0x20007870   Data          12  dev_mup6050.o(.bss)
    tempAcc                                  0x2000787c   Data          12  dev_mup6050.o(.bss)
    .bss                                     0x20007888   Section       18  dev_spi.o(.bss)
    .bss                                     0x2000789a   Section     4096  dev_flash.o(.bss)
    .bss                                     0x2000889a   Section       18  dev_dma.o(.bss)
    .bss                                     0x200088ac   Section       20  dev_us100.o(.bss)
    .bss                                     0x200088c0   Section     2005  dev_gps.o(.bss)
    HEAP                                     0x20009098   Section      512  startup_stm32f40_41xxx.o(HEAP)
    STACK                                    0x20009298   Section     1024  startup_stm32f40_41xxx.o(STACK)

    Global Symbols

    Symbol Name                              Value     Ov Type        Size  Object(Section)

    BuildAttributes$$THM_ISAv4$E$P$D$K$B$S$7EM$VFPi3$EXTD16$VFPS$VFMA$PE$A:L22UL41UL21$X:L11$S22US41US21$IEEE1$IW$USESV6$~STKCKD$USESV7$~SHL$OTIME$ROPI$IEEEX$EBA8$UX$MICROLIB$REQ8$PRES8$EABIv2 0x00000000   Number         0  anon$$obj.o ABSOLUTE
    __ARM_use_no_argv                        0x00000000   Number         0  uav_task.o ABSOLUTE
    _printf_a                                0x00000000   Number         0  stubs.o ABSOLUTE
    _printf_c                                0x00000000   Number         0  stubs.o ABSOLUTE
    _printf_charcount                        0x00000000   Number         0  stubs.o ABSOLUTE
    _printf_d                                0x00000000   Number         0  stubs.o ABSOLUTE
    _printf_e                                0x00000000   Number         0  stubs.o ABSOLUTE
    _printf_f                                0x00000000   Number         0  stubs.o ABSOLUTE
    _printf_flags                            0x00000000   Number         0  stubs.o ABSOLUTE
    _printf_fp_dec                           0x00000000   Number         0  stubs.o ABSOLUTE
    _printf_fp_hex                           0x00000000   Number         0  stubs.o ABSOLUTE
    _printf_g                                0x00000000   Number         0  stubs.o ABSOLUTE
    _printf_i                                0x00000000   Number         0  stubs.o ABSOLUTE
    _printf_int_dec                          0x00000000   Number         0  stubs.o ABSOLUTE
    _printf_l                                0x00000000   Number         0  stubs.o ABSOLUTE
    _printf_lc                               0x00000000   Number         0  stubs.o ABSOLUTE
    _printf_ll                               0x00000000   Number         0  stubs.o ABSOLUTE
    _printf_lld                              0x00000000   Number         0  stubs.o ABSOLUTE
    _printf_lli                              0x00000000   Number         0  stubs.o ABSOLUTE
    _printf_llo                              0x00000000   Number         0  stubs.o ABSOLUTE
    _printf_llu                              0x00000000   Number         0  stubs.o ABSOLUTE
    _printf_llx                              0x00000000   Number         0  stubs.o ABSOLUTE
    _printf_longlong_dec                     0x00000000   Number         0  stubs.o ABSOLUTE
    _printf_longlong_hex                     0x00000000   Number         0  stubs.o ABSOLUTE
    _printf_longlong_oct                     0x00000000   Number         0  stubs.o ABSOLUTE
    _printf_ls                               0x00000000   Number         0  stubs.o ABSOLUTE
    _printf_mbtowc                           0x00000000   Number         0  stubs.o ABSOLUTE
    _printf_n                                0x00000000   Number         0  stubs.o ABSOLUTE
    _printf_o                                0x00000000   Number         0  stubs.o ABSOLUTE
    _printf_p                                0x00000000   Number         0  stubs.o ABSOLUTE
    _printf_percent                          0x00000000   Number         0  stubs.o ABSOLUTE
    _printf_pre_padding                      0x00000000   Number         0  stubs.o ABSOLUTE
    _printf_return_value                     0x00000000   Number         0  stubs.o ABSOLUTE
    _printf_s                                0x00000000   Number         0  stubs.o ABSOLUTE
    _printf_sizespec                         0x00000000   Number         0  stubs.o ABSOLUTE
    _printf_str                              0x00000000   Number         0  stubs.o ABSOLUTE
    _printf_truncate_signed                  0x00000000   Number         0  stubs.o ABSOLUTE
    _printf_truncate_unsigned                0x00000000   Number         0  stubs.o ABSOLUTE
    _printf_u                                0x00000000   Number         0  stubs.o ABSOLUTE
    _printf_wc                               0x00000000   Number         0  stubs.o ABSOLUTE
    _printf_wctomb                           0x00000000   Number         0  stubs.o ABSOLUTE
    _printf_widthprec                        0x00000000   Number         0  stubs.o ABSOLUTE
    _printf_x                                0x00000000   Number         0  stubs.o ABSOLUTE
    _clock_init                               - Undefined Weak Reference
    _microlib_exit                            - Undefined Weak Reference
    __Vectors_Size                           0x00000188   Number         0  startup_stm32f40_41xxx.o ABSOLUTE
    __Vectors                                0x08000000   Data           4  startup_stm32f40_41xxx.o(RESET)
    __dso_handle                             0x08000000   Number         0  startup_stm32f40_41xxx.o(RESET)
    __Vectors_End                            0x08000188   Data           0  startup_stm32f40_41xxx.o(RESET)
    __main                                   0x08000189   Thumb Code     0  entry.o(.ARM.Collect$$$$00000000)
    _main_stk                                0x08000189   Thumb Code     0  entry2.o(.ARM.Collect$$$$00000001)
    _main_scatterload                        0x0800018d   Thumb Code     0  entry5.o(.ARM.Collect$$$$00000004)
    __main_after_scatterload                 0x08000191   Thumb Code     0  entry5.o(.ARM.Collect$$$$00000004)
    _main_clock                              0x08000191   Thumb Code     0  entry7b.o(.ARM.Collect$$$$00000008)
    _main_cpp_init$empty                     0x08000191   Thumb Code     0  entry8a.o(.ARM.Collect$$$$00000009)
    _main_cpp_init                           0x08000195   Thumb Code     0  entry8b.o(.ARM.Collect$$$$0000000A)
    _main_init                               0x08000195   Thumb Code     0  entry9a.o(.ARM.Collect$$$$0000000B)
    __rt_final_cpp                           0x0800019d   Thumb Code     0  entry10a.o(.ARM.Collect$$$$0000000D)
    __rt_final_exit                          0x0800019d   Thumb Code     0  entry11a.o(.ARM.Collect$$$$0000000F)
    Reset_Handler                            0x080001a1   Thumb Code     8  startup_stm32f40_41xxx.o(.text)
    ADC_IRQHandler                           0x080001bb   Thumb Code     0  startup_stm32f40_41xxx.o(.text)
    CAN1_RX0_IRQHandler                      0x080001bb   Thumb Code     0  startup_stm32f40_41xxx.o(.text)
    CAN1_RX1_IRQHandler                      0x080001bb   Thumb Code     0  startup_stm32f40_41xxx.o(.text)
    CAN1_SCE_IRQHandler                      0x080001bb   Thumb Code     0  startup_stm32f40_41xxx.o(.text)
    CAN1_TX_IRQHandler                       0x080001bb   Thumb Code     0  startup_stm32f40_41xxx.o(.text)
    CAN2_RX0_IRQHandler                      0x080001bb   Thumb Code     0  startup_stm32f40_41xxx.o(.text)
    CAN2_RX1_IRQHandler                      0x080001bb   Thumb Code     0  startup_stm32f40_41xxx.o(.text)
    CAN2_SCE_IRQHandler                      0x080001bb   Thumb Code     0  startup_stm32f40_41xxx.o(.text)
    CAN2_TX_IRQHandler                       0x080001bb   Thumb Code     0  startup_stm32f40_41xxx.o(.text)
    CRYP_IRQHandler                          0x080001bb   Thumb Code     0  startup_stm32f40_41xxx.o(.text)
    DCMI_IRQHandler                          0x080001bb   Thumb Code     0  startup_stm32f40_41xxx.o(.text)
    DMA1_Stream0_IRQHandler                  0x080001bb   Thumb Code     0  startup_stm32f40_41xxx.o(.text)
    DMA1_Stream1_IRQHandler                  0x080001bb   Thumb Code     0  startup_stm32f40_41xxx.o(.text)
    DMA1_Stream2_IRQHandler                  0x080001bb   Thumb Code     0  startup_stm32f40_41xxx.o(.text)
    DMA1_Stream3_IRQHandler                  0x080001bb   Thumb Code     0  startup_stm32f40_41xxx.o(.text)
    DMA1_Stream4_IRQHandler                  0x080001bb   Thumb Code     0  startup_stm32f40_41xxx.o(.text)
    DMA1_Stream5_IRQHandler                  0x080001bb   Thumb Code     0  startup_stm32f40_41xxx.o(.text)
    DMA1_Stream6_IRQHandler                  0x080001bb   Thumb Code     0  startup_stm32f40_41xxx.o(.text)
    DMA1_Stream7_IRQHandler                  0x080001bb   Thumb Code     0  startup_stm32f40_41xxx.o(.text)
    DMA2_Stream0_IRQHandler                  0x080001bb   Thumb Code     0  startup_stm32f40_41xxx.o(.text)
    DMA2_Stream1_IRQHandler                  0x080001bb   Thumb Code     0  startup_stm32f40_41xxx.o(.text)
    DMA2_Stream3_IRQHandler                  0x080001bb   Thumb Code     0  startup_stm32f40_41xxx.o(.text)
    DMA2_Stream4_IRQHandler                  0x080001bb   Thumb Code     0  startup_stm32f40_41xxx.o(.text)
    DMA2_Stream5_IRQHandler                  0x080001bb   Thumb Code     0  startup_stm32f40_41xxx.o(.text)
    DMA2_Stream6_IRQHandler                  0x080001bb   Thumb Code     0  startup_stm32f40_41xxx.o(.text)
    DMA2_Stream7_IRQHandler                  0x080001bb   Thumb Code     0  startup_stm32f40_41xxx.o(.text)
    ETH_IRQHandler                           0x080001bb   Thumb Code     0  startup_stm32f40_41xxx.o(.text)
    ETH_WKUP_IRQHandler                      0x080001bb   Thumb Code     0  startup_stm32f40_41xxx.o(.text)
    EXTI0_IRQHandler                         0x080001bb   Thumb Code     0  startup_stm32f40_41xxx.o(.text)
    EXTI15_10_IRQHandler                     0x080001bb   Thumb Code     0  startup_stm32f40_41xxx.o(.text)
    EXTI1_IRQHandler                         0x080001bb   Thumb Code     0  startup_stm32f40_41xxx.o(.text)
    EXTI2_IRQHandler                         0x080001bb   Thumb Code     0  startup_stm32f40_41xxx.o(.text)
    EXTI3_IRQHandler                         0x080001bb   Thumb Code     0  startup_stm32f40_41xxx.o(.text)
    EXTI4_IRQHandler                         0x080001bb   Thumb Code     0  startup_stm32f40_41xxx.o(.text)
    EXTI9_5_IRQHandler                       0x080001bb   Thumb Code     0  startup_stm32f40_41xxx.o(.text)
    FLASH_IRQHandler                         0x080001bb   Thumb Code     0  startup_stm32f40_41xxx.o(.text)
    FPU_IRQHandler                           0x080001bb   Thumb Code     0  startup_stm32f40_41xxx.o(.text)
    FSMC_IRQHandler                          0x080001bb   Thumb Code     0  startup_stm32f40_41xxx.o(.text)
    HASH_RNG_IRQHandler                      0x080001bb   Thumb Code     0  startup_stm32f40_41xxx.o(.text)
    I2C1_ER_IRQHandler                       0x080001bb   Thumb Code     0  startup_stm32f40_41xxx.o(.text)
    I2C1_EV_IRQHandler                       0x080001bb   Thumb Code     0  startup_stm32f40_41xxx.o(.text)
    I2C2_ER_IRQHandler                       0x080001bb   Thumb Code     0  startup_stm32f40_41xxx.o(.text)
    I2C2_EV_IRQHandler                       0x080001bb   Thumb Code     0  startup_stm32f40_41xxx.o(.text)
    I2C3_ER_IRQHandler                       0x080001bb   Thumb Code     0  startup_stm32f40_41xxx.o(.text)
    I2C3_EV_IRQHandler                       0x080001bb   Thumb Code     0  startup_stm32f40_41xxx.o(.text)
    OTG_FS_IRQHandler                        0x080001bb   Thumb Code     0  startup_stm32f40_41xxx.o(.text)
    OTG_FS_WKUP_IRQHandler                   0x080001bb   Thumb Code     0  startup_stm32f40_41xxx.o(.text)
    OTG_HS_EP1_IN_IRQHandler                 0x080001bb   Thumb Code     0  startup_stm32f40_41xxx.o(.text)
    OTG_HS_EP1_OUT_IRQHandler                0x080001bb   Thumb Code     0  startup_stm32f40_41xxx.o(.text)
    OTG_HS_IRQHandler                        0x080001bb   Thumb Code     0  startup_stm32f40_41xxx.o(.text)
    OTG_HS_WKUP_IRQHandler                   0x080001bb   Thumb Code     0  startup_stm32f40_41xxx.o(.text)
    PVD_IRQHandler                           0x080001bb   Thumb Code     0  startup_stm32f40_41xxx.o(.text)
    RCC_IRQHandler                           0x080001bb   Thumb Code     0  startup_stm32f40_41xxx.o(.text)
    RTC_Alarm_IRQHandler                     0x080001bb   Thumb Code     0  startup_stm32f40_41xxx.o(.text)
    RTC_WKUP_IRQHandler                      0x080001bb   Thumb Code     0  startup_stm32f40_41xxx.o(.text)
    SPI1_IRQHandler                          0x080001bb   Thumb Code     0  startup_stm32f40_41xxx.o(.text)
    SPI2_IRQHandler                          0x080001bb   Thumb Code     0  startup_stm32f40_41xxx.o(.text)
    SPI3_IRQHandler                          0x080001bb   Thumb Code     0  startup_stm32f40_41xxx.o(.text)
    TAMP_STAMP_IRQHandler                    0x080001bb   Thumb Code     0  startup_stm32f40_41xxx.o(.text)
    TIM1_BRK_TIM9_IRQHandler                 0x080001bb   Thumb Code     0  startup_stm32f40_41xxx.o(.text)
    TIM1_CC_IRQHandler                       0x080001bb   Thumb Code     0  startup_stm32f40_41xxx.o(.text)
    TIM1_TRG_COM_TIM11_IRQHandler            0x080001bb   Thumb Code     0  startup_stm32f40_41xxx.o(.text)
    TIM1_UP_TIM10_IRQHandler                 0x080001bb   Thumb Code     0  startup_stm32f40_41xxx.o(.text)
    TIM2_IRQHandler                          0x080001bb   Thumb Code     0  startup_stm32f40_41xxx.o(.text)
    TIM3_IRQHandler                          0x080001bb   Thumb Code     0  startup_stm32f40_41xxx.o(.text)
    TIM4_IRQHandler                          0x080001bb   Thumb Code     0  startup_stm32f40_41xxx.o(.text)
    TIM5_IRQHandler                          0x080001bb   Thumb Code     0  startup_stm32f40_41xxx.o(.text)
    TIM6_DAC_IRQHandler                      0x080001bb   Thumb Code     0  startup_stm32f40_41xxx.o(.text)
    TIM7_IRQHandler                          0x080001bb   Thumb Code     0  startup_stm32f40_41xxx.o(.text)
    TIM8_BRK_TIM12_IRQHandler                0x080001bb   Thumb Code     0  startup_stm32f40_41xxx.o(.text)
    TIM8_CC_IRQHandler                       0x080001bb   Thumb Code     0  startup_stm32f40_41xxx.o(.text)
    TIM8_TRG_COM_TIM14_IRQHandler            0x080001bb   Thumb Code     0  startup_stm32f40_41xxx.o(.text)
    TIM8_UP_TIM13_IRQHandler                 0x080001bb   Thumb Code     0  startup_stm32f40_41xxx.o(.text)
    UART4_IRQHandler                         0x080001bb   Thumb Code     0  startup_stm32f40_41xxx.o(.text)
    UART5_IRQHandler                         0x080001bb   Thumb Code     0  startup_stm32f40_41xxx.o(.text)
    USART1_IRQHandler                        0x080001bb   Thumb Code     0  startup_stm32f40_41xxx.o(.text)
    WWDG_IRQHandler                          0x080001bb   Thumb Code     0  startup_stm32f40_41xxx.o(.text)
    __aeabi_uldivmod                         0x080001c5   Thumb Code    98  uldiv.o(.text)
    __aeabi_memset                           0x08000227   Thumb Code    14  memseta.o(.text)
    __aeabi_memset4                          0x08000227   Thumb Code     0  memseta.o(.text)
    __aeabi_memset8                          0x08000227   Thumb Code     0  memseta.o(.text)
    __aeabi_memclr                           0x08000235   Thumb Code     4  memseta.o(.text)
    __aeabi_memclr4                          0x08000235   Thumb Code     0  memseta.o(.text)
    __aeabi_memclr8                          0x08000235   Thumb Code     0  memseta.o(.text)
    _memset$wrapper                          0x08000239   Thumb Code    18  memseta.o(.text)
    strstr                                   0x0800024b   Thumb Code    36  strstr.o(.text)
    __cpp_initialize__aeabi_                 0x08000271   Thumb Code    22  cpp_init.o(.text)
    __aeabi_dadd                             0x08000291   Thumb Code   322  dadd.o(.text)
    __aeabi_dsub                             0x080003d3   Thumb Code     6  dadd.o(.text)
    __aeabi_drsub                            0x080003d9   Thumb Code     6  dadd.o(.text)
    __aeabi_dmul                             0x080003df   Thumb Code   228  dmul.o(.text)
    __aeabi_ddiv                             0x080004c3   Thumb Code   222  ddiv.o(.text)
    __aeabi_f2d                              0x080005a1   Thumb Code    38  f2d.o(.text)
    __aeabi_cdcmpeq                          0x080005c9   Thumb Code     0  cdcmple.o(.text)
    __aeabi_cdcmple                          0x080005c9   Thumb Code    48  cdcmple.o(.text)
    __aeabi_cdrcmple                         0x080005f9   Thumb Code    48  cdrcmple.o(.text)
    __aeabi_d2f                              0x08000629   Thumb Code    56  d2f.o(.text)
    __aeabi_uidiv                            0x08000661   Thumb Code     0  uidiv.o(.text)
    __aeabi_uidivmod                         0x08000661   Thumb Code    44  uidiv.o(.text)
    __aeabi_llsl                             0x0800068d   Thumb Code    30  llshl.o(.text)
    _ll_shift_l                              0x0800068d   Thumb Code     0  llshl.o(.text)
    __aeabi_llsr                             0x080006ab   Thumb Code    32  llushr.o(.text)
    _ll_ushift_r                             0x080006ab   Thumb Code     0  llushr.o(.text)
    __aeabi_lasr                             0x080006cb   Thumb Code    36  llsshr.o(.text)
    _ll_sshift_r                             0x080006cb   Thumb Code     0  llsshr.o(.text)
    __I$use$fp                               0x080006ef   Thumb Code     0  iusefp.o(.text)
    __rt_ddtor_pointer_addr                  0x080006f1   Thumb Code     4  cpp_dtor.o(.text)
    __rt_lib_shutdown_cpp_1                  0x080006f9   Thumb Code     2  cpp_final.o(.text)
    _float_round                             0x080006fb   Thumb Code    18  fepilogue.o(.text)
    _float_epilogue                          0x0800070d   Thumb Code    92  fepilogue.o(.text)
    _double_round                            0x08000769   Thumb Code    30  depilogue.o(.text)
    _double_epilogue                         0x08000787   Thumb Code   156  depilogue.o(.text)
    __aeabi_d2ulz                            0x08000823   Thumb Code    48  dfixul.o(.text)
    __scatterload                            0x08000855   Thumb Code    28  init.o(.text)
    __scatterload_rt2                        0x08000855   Thumb Code     0  init.o(.text)
    __decompress                             0x08000879   Thumb Code     0  __dczerorl2.o(.text)
    __decompress1                            0x08000879   Thumb Code    86  __dczerorl2.o(.text)
    BusFault_Handler                         0x080008cf   Thumb Code     4  stm32f4xx_it.o(i.BusFault_Handler)
    DMA2_Stream2_IRQHandler                  0x080008d5   Thumb Code    38  dev_dma.o(i.DMA2_Stream2_IRQHandler)
    DMA_ClearFlag                            0x08000909   Thumb Code    38  stm32f4xx_dma.o(i.DMA_ClearFlag)
    DMA_ClearITPendingBit                    0x0800093d   Thumb Code    38  stm32f4xx_dma.o(i.DMA_ClearITPendingBit)
    DMA_Cmd                                  0x08000971   Thumb Code    22  stm32f4xx_dma.o(i.DMA_Cmd)
    DMA_DeInit                               0x08000989   Thumb Code   324  stm32f4xx_dma.o(i.DMA_DeInit)
    DMA_GetITStatus                          0x08000ae1   Thumb Code    82  stm32f4xx_dma.o(i.DMA_GetITStatus)
    DMA_ITConfig                             0x08000b45   Thumb Code    58  stm32f4xx_dma.o(i.DMA_ITConfig)
    DMA_Init                                 0x08000b81   Thumb Code    82  stm32f4xx_dma.o(i.DMA_Init)
    DebugMon_Handler                         0x08000bd9   Thumb Code     2  stm32f4xx_it.o(i.DebugMon_Handler)
    GPIO_Init                                0x08000bdb   Thumb Code   144  stm32f4xx_gpio.o(i.GPIO_Init)
    GPIO_PinAFConfig                         0x08000c6b   Thumb Code    70  stm32f4xx_gpio.o(i.GPIO_PinAFConfig)
    GPIO_ResetBits                           0x08000cb1   Thumb Code     4  stm32f4xx_gpio.o(i.GPIO_ResetBits)
    GPIO_SetBits                             0x08000cb5   Thumb Code     4  stm32f4xx_gpio.o(i.GPIO_SetBits)
    HardFault_Handler                        0x08000cb9   Thumb Code     4  stm32f4xx_it.o(i.HardFault_Handler)
    MemManage_Handler                        0x08000cbd   Thumb Code     4  stm32f4xx_it.o(i.MemManage_Handler)
    NMI_Handler                              0x08000cc1   Thumb Code     2  stm32f4xx_it.o(i.NMI_Handler)
    NVIC_Init                                0x08000cc5   Thumb Code   106  misc.o(i.NVIC_Init)
    NVIC_PriorityGroupConfig                 0x08000d3d   Thumb Code    10  misc.o(i.NVIC_PriorityGroupConfig)
    PendSV_Handler                           0x08000d51   Thumb Code     2  stm32f4xx_it.o(i.PendSV_Handler)
    RCC_AHB1PeriphClockCmd                   0x08000d55   Thumb Code    26  stm32f4xx_rcc.o(i.RCC_AHB1PeriphClockCmd)
    RCC_APB1PeriphClockCmd                   0x08000d75   Thumb Code    26  stm32f4xx_rcc.o(i.RCC_APB1PeriphClockCmd)
    RCC_APB1PeriphResetCmd                   0x08000d95   Thumb Code    26  stm32f4xx_rcc.o(i.RCC_APB1PeriphResetCmd)
    RCC_APB2PeriphClockCmd                   0x08000db5   Thumb Code    26  stm32f4xx_rcc.o(i.RCC_APB2PeriphClockCmd)
    RCC_APB2PeriphResetCmd                   0x08000dd5   Thumb Code    26  stm32f4xx_rcc.o(i.RCC_APB2PeriphResetCmd)
    RCC_GetClocksFreq                        0x08000df5   Thumb Code   214  stm32f4xx_rcc.o(i.RCC_GetClocksFreq)
    SDIO_ClearFlag                           0x08000edd   Thumb Code     6  stm32f4xx_sdio.o(i.SDIO_ClearFlag)
    SDIO_GetFlagStatus                       0x08000ee9   Thumb Code    20  stm32f4xx_sdio.o(i.SDIO_GetFlagStatus)
    SDIO_IRQHandler                          0x08000f01   Thumb Code     8  dev_sd.o(i.SDIO_IRQHandler)
    SDIO_SendCommand                         0x08000f09   Thumb Code    40  stm32f4xx_sdio.o(i.SDIO_SendCommand)
    SPI_Cmd                                  0x08000f35   Thumb Code    24  stm32f4xx_spi.o(i.SPI_Cmd)
    SPI_I2S_GetFlagStatus                    0x08000f4d   Thumb Code    18  stm32f4xx_spi.o(i.SPI_I2S_GetFlagStatus)
    SPI_I2S_ReceiveData                      0x08000f5f   Thumb Code     6  stm32f4xx_spi.o(i.SPI_I2S_ReceiveData)
    SPI_I2S_SendData                         0x08000f65   Thumb Code     4  stm32f4xx_spi.o(i.SPI_I2S_SendData)
    SPI_Init                                 0x08000f69   Thumb Code    60  stm32f4xx_spi.o(i.SPI_Init)
    SVC_Handler                              0x08000fa5   Thumb Code     2  stm32f4xx_it.o(i.SVC_Handler)
    SysTick_CLKSourceConfig                  0x08000fa7   Thumb Code    40  misc.o(i.SysTick_CLKSourceConfig)
    SysTick_Handler                          0x08000fd1   Thumb Code    18  dev_clock.o(i.SysTick_Handler)
    SystemInit                               0x08000fe9   Thumb Code    88  system_stm32f4xx.o(i.SystemInit)
    TIM_ARRPreloadConfig                     0x08001051   Thumb Code    24  stm32f4xx_tim.o(i.TIM_ARRPreloadConfig)
    TIM_Cmd                                  0x08001069   Thumb Code    24  stm32f4xx_tim.o(i.TIM_Cmd)
    TIM_CtrlPWMOutputs                       0x08001081   Thumb Code    30  stm32f4xx_tim.o(i.TIM_CtrlPWMOutputs)
    TIM_OC1Init                              0x080010a1   Thumb Code   114  stm32f4xx_tim.o(i.TIM_OC1Init)
    TIM_OC1PreloadConfig                     0x0800111d   Thumb Code    18  stm32f4xx_tim.o(i.TIM_OC1PreloadConfig)
    TIM_OC2Init                              0x08001131   Thumb Code   154  stm32f4xx_tim.o(i.TIM_OC2Init)
    TIM_OC2PreloadConfig                     0x080011d5   Thumb Code    26  stm32f4xx_tim.o(i.TIM_OC2PreloadConfig)
    TIM_OC3Init                              0x080011f1   Thumb Code   150  stm32f4xx_tim.o(i.TIM_OC3Init)
    TIM_OC3PreloadConfig                     0x08001291   Thumb Code    18  stm32f4xx_tim.o(i.TIM_OC3PreloadConfig)
    TIM_OC4Init                              0x080012a5   Thumb Code   112  stm32f4xx_tim.o(i.TIM_OC4Init)
    TIM_OC4PreloadConfig                     0x0800131d   Thumb Code    26  stm32f4xx_tim.o(i.TIM_OC4PreloadConfig)
    TIM_SetCompare1                          0x08001337   Thumb Code     4  stm32f4xx_tim.o(i.TIM_SetCompare1)
    TIM_SetCompare2                          0x0800133b   Thumb Code     4  stm32f4xx_tim.o(i.TIM_SetCompare2)
    TIM_SetCompare3                          0x0800133f   Thumb Code     4  stm32f4xx_tim.o(i.TIM_SetCompare3)
    TIM_SetCompare4                          0x08001343   Thumb Code     4  stm32f4xx_tim.o(i.TIM_SetCompare4)
    TIM_TimeBaseInit                         0x08001349   Thumb Code   104  stm32f4xx_tim.o(i.TIM_TimeBaseInit)
    USART2_IRQHandler                        0x080013cd   Thumb Code    10  stm32f4xx_it.o(i.USART2_IRQHandler)
    USART3_IRQHandler                        0x080013dd   Thumb Code    10  stm32f4xx_it.o(i.USART3_IRQHandler)
    USART6_IRQHandler                        0x080013ed   Thumb Code    10  stm32f4xx_it.o(i.USART6_IRQHandler)
    USART_ClearITPendingBit                  0x080013fd   Thumb Code    30  stm32f4xx_usart.o(i.USART_ClearITPendingBit)
    USART_Cmd                                0x0800141b   Thumb Code    24  stm32f4xx_usart.o(i.USART_Cmd)
    USART_DMACmd                             0x08001433   Thumb Code    18  stm32f4xx_usart.o(i.USART_DMACmd)
    USART_DeInit                             0x08001445   Thumb Code   156  stm32f4xx_usart.o(i.USART_DeInit)
    USART_GetFlagStatus                      0x080014f9   Thumb Code    26  stm32f4xx_usart.o(i.USART_GetFlagStatus)
    USART_GetITStatus                        0x08001513   Thumb Code    84  stm32f4xx_usart.o(i.USART_GetITStatus)
    USART_ITConfig                           0x08001567   Thumb Code    74  stm32f4xx_usart.o(i.USART_ITConfig)
    USART_Init                               0x080015b1   Thumb Code   204  stm32f4xx_usart.o(i.USART_Init)
    USART_ReceiveData                        0x08001685   Thumb Code    10  stm32f4xx_usart.o(i.USART_ReceiveData)
    USART_SendData                           0x0800168f   Thumb Code     8  stm32f4xx_usart.o(i.USART_SendData)
    UsageFault_Handler                       0x08001697   Thumb Code     4  stm32f4xx_it.o(i.UsageFault_Handler)
    Loop_check()                             0x0800169d   Thumb Code    96  dev_clock.o(i._Z10Loop_checkv)
    task_10_ms()                             0x08001701   Thumb Code    56  uav_task.o(i._Z10task_10_msv)
    task_20_ms()                             0x08001749   Thumb Code     8  uav_task.o(i._Z10task_20_msv)
    task_50_ms()                             0x08001751   Thumb Code    14  uav_task.o(i._Z10task_50_msv)
    Get_Cycle_T(unsigned char)               0x08001765   Thumb Code   118  dev_clock.o(i._Z11Get_Cycle_Th)
    GPS_Analysis(nmea_msg*, unsigned char*)  0x080018d1   Thumb Code    48  dev_gps.o(i._Z12GPS_AnalysisP8nmea_msgPh)
    NMEA_Str2num(unsigned char*, unsigned char*) 0x08001901   Thumb Code   234  dev_gps.o(i._Z12NMEA_Str2numPhS_)
    CmdResp1Error(unsigned char)             0x080019ed   Thumb Code    98  dev_sd.o(i._Z13CmdResp1Errorh)
    GetSysTime_us()                          0x08001a59   Thumb Code    48  dev_clock.o(i._Z13GetSysTime_usv)
    SPI1_SetSpeed(unsigned char)             0x08001a8d   Thumb Code    26  dev_spi.o(i._Z13SPI1_SetSpeedh)
    rtGetMinusInf()                          0x08001ab1   Thumb Code   138  rtgetinf_1.o(i._Z13rtGetMinusInfv)
    NMEA_Comma_Pos(unsigned char*, unsigned char) 0x08001b49   Thumb Code    50  dev_gps.o(i._Z14NMEA_Comma_PosPhh)
    fal_initialize()                         0x08001b7b   Thumb Code    10  fal_initialize.o(i._Z14fal_initializev)
    nav_h_ekf_init()                         0x08001b85   Thumb Code    60  nav_h_ekf.o(i._Z14nav_h_ekf_initv)
    rtGetMinusInfF()                         0x08001bd1   Thumb Code    12  rtgetinf_1.o(i._Z14rtGetMinusInfFv)
    TrackingDiffCal(Tracking_Diff&, float, float) 0x08001be1   Thumb Code   106  cal_adrc.o(i._Z15TrackingDiffCalR13Tracking_Diffff)
    SD_ProcessIRQSrc()                       0x08001c4d   Thumb Code   318  dev_sd.o(i._Z16SD_ProcessIRQSrcv)
    TrackingDiffInit(Tracking_Diff&, float)  0x08001da1   Thumb Code    38  cal_adrc.o(i._Z16TrackingDiffInitR13Tracking_Difff)
    rt_InitInfAndNaN(unsigned)               0x08001dcd   Thumb Code    66  rt_nonfinite.o(i._Z16rt_InitInfAndNaNj)
    GPS_DataCacheCall(unsigned char)         0x08001e29   Thumb Code    52  dev_gps.o(i._Z17GPS_DataCacheCallh)
    SPI1_ReadWriteByte(unsigned char)        0x08001e65   Thumb Code    78  dev_spi.o(i._Z18SPI1_ReadWriteByteh)
    NMEA_GPGGA_Analysis(nmea_msg*, unsigned char*) 0x08001eb9   Thumb Code    96  dev_gps.o(i._Z19NMEA_GPGGA_AnalysisP8nmea_msgPh)
    NMEA_GPGSA_Analysis(nmea_msg*, unsigned char*) 0x08001f21   Thumb Code   176  dev_gps.o(i._Z19NMEA_GPGSA_AnalysisP8nmea_msgPh)
    NMEA_GPGSV_Analysis(nmea_msg*, unsigned char*) 0x08001fd9   Thumb Code   290  dev_gps.o(i._Z19NMEA_GPGSV_AnalysisP8nmea_msgPh)
    NMEA_GPRMC_Analysis(nmea_msg*, unsigned char*) 0x08002105   Thumb Code   532  dev_gps.o(i._Z19NMEA_GPRMC_AnalysisP8nmea_msgPh)
    NMEA_GPVTG_Analysis(nmea_msg*, unsigned char*) 0x08002325   Thumb Code    78  dev_gps.o(i._Z19NMEA_GPVTG_AnalysisP8nmea_msgPh)
    SysTick_Configuration()                  0x0800237d   Thumb Code    98  dev_clock.o(i._Z21SysTick_Configurationv)
    fhan(float, float, float, float)         0x080023e9   Thumb Code   566  fhan.o(i._Z4fhanffff)
    millis()                                 0x08002625   Thumb Code     8  ekf_att_pos_estimator_main.o(i._Z6millisv)
    radians(float)                           0x0800262d   Thumb Code    14  cal_math.o(i._Z7radiansf)
    Delay_ms(unsigned)                       0x08002641   Thumb Code    24  dev_clock.o(i._Z8Delay_msj)
    Delay_us(unsigned)                       0x08002659   Thumb Code    24  dev_clock.o(i._Z8Delay_usj)
    GPS_Call()                               0x08002671   Thumb Code    54  dev_gps.o(i._Z8GPS_Callv)
    NMEA_Pow(unsigned char, unsigned char)   0x080026b9   Thumb Code    22  dev_gps.o(i._Z8NMEA_Powhh)
    TaskLoop()                               0x080026d1   Thumb Code   124  uav_task.o(i._Z8TaskLoopv)
    rtGetInf()                               0x08002751   Thumb Code   138  rtgetinf_1.o(i._Z8rtGetInfv)
    rtGetNaN()                               0x080027e9   Thumb Code   142  rtgetnan_1.o(i._Z8rtGetNaNv)
    sys_time()                               0x08002885   Thumb Code   116  dev_clock.o(i._Z8sys_timev)
    SPI1_Init()                              0x08002909   Thumb Code   196  dev_spi.o(i._Z9SPI1_Initv)
    ekf_debug(const char*, ...)              0x080029d9   Thumb Code     6  estimator_utilities.o(i._Z9ekf_debugPKcz)
    getMicros()                              0x080029e1   Thumb Code     6  ekf_att_pos_estimator_main.o(i._Z9getMicrosv)
    getMillis()                              0x080029ed   Thumb Code    20  ekf_att_pos_estimator_main.o(i._Z9getMillisv)
    rtGetInfF()                              0x08002a01   Thumb Code    14  rtgetinf_1.o(i._Z9rtGetInfFv)
    rtGetNaNF()                              0x08002a11   Thumb Code    56  rtgetnan_1.o(i._Z9rtGetNaNFv)
    task_1_ms()                              0x08002a4d   Thumb Code     2  uav_task.o(i._Z9task_1_msv)
    task_2_ms()                              0x08002a51   Thumb Code    44  uav_task.o(i._Z9task_2_msv)
    task_8_ms()                              0x08002a89   Thumb Code    22  uav_task.o(i._Z9task_8_msv)
    _PARAMETER::ReadAnglePID()               0x08002aa1   Thumb Code   102  uav_parameter.o(i._ZN10_PARAMETER12ReadAnglePIDEv)
    _PARAMETER::SaveAnglePID()               0x08002b29   Thumb Code   102  uav_parameter.o(i._ZN10_PARAMETER12SaveAnglePIDEv)
    _PARAMETER::Configuration()              0x08002bb1   Thumb Code   124  uav_parameter.o(i._ZN10_PARAMETER13ConfigurationEv)
    _PARAMETER::ReadAngularPID()             0x08002c2d   Thumb Code   102  uav_parameter.o(i._ZN10_PARAMETER14ReadAngularPIDEv)
    _PARAMETER::SaveAngularPID()             0x08002cb9   Thumb Code   102  uav_parameter.o(i._ZN10_PARAMETER14SaveAngularPIDEv)
    _PARAMETER::ReadAccOfferset()            0x08002d41   Thumb Code   150  uav_parameter.o(i._ZN10_PARAMETER15ReadAccOffersetEv)
    _PARAMETER::ReadGyrOfferset()            0x08002e1d   Thumb Code   150  uav_parameter.o(i._ZN10_PARAMETER15ReadGyrOffersetEv)
    _PARAMETER::ReadMagOfferset()            0x08002efd   Thumb Code   150  uav_parameter.o(i._ZN10_PARAMETER15ReadMagOffersetEv)
    _PARAMETER::SaveAccOfferset(Vector3<float>) 0x08002fe1   Thumb Code    64  uav_parameter.o(i._ZN10_PARAMETER15SaveAccOffersetE7Vector3IfE)
    _PARAMETER::SaveGyrOfferset(Vector3<float>) 0x08003045   Thumb Code    56  uav_parameter.o(i._ZN10_PARAMETER15SaveGyrOffersetE7Vector3IfE)
    _PARAMETER::SaveMagOfferset(Vector3<float>) 0x0800309d   Thumb Code    56  uav_parameter.o(i._ZN10_PARAMETER15SaveMagOffersetE7Vector3IfE)
    _PARAMETER::Read_MS_DIS_SPEPID()         0x080030f1   Thumb Code    80  uav_parameter.o(i._ZN10_PARAMETER18Read_MS_DIS_SPEPIDEv)
    _PARAMETER::Read_UL_DIS_SPEPID()         0x08003169   Thumb Code    80  uav_parameter.o(i._ZN10_PARAMETER18Read_UL_DIS_SPEPIDEv)
    _PARAMETER::Save_MS_DIS_SPEPID()         0x080031e1   Thumb Code    80  uav_parameter.o(i._ZN10_PARAMETER18Save_MS_DIS_SPEPIDEv)
    _PARAMETER::Save_UL_DIS_SPEPID()         0x08003259   Thumb Code    80  uav_parameter.o(i._ZN10_PARAMETER18Save_UL_DIS_SPEPIDEv)
    _FLASH25Q32::SPI_Flash_Read(unsigned char*, unsigned, unsigned short) 0x080032d1   Thumb Code    80  dev_flash.o(i._ZN11_FLASH25Q3214SPI_Flash_ReadEPhjt)
    _FLASH25Q32::SPI_Flash_Write(unsigned char*, unsigned, unsigned short) 0x08003325   Thumb Code   186  dev_flash.o(i._ZN11_FLASH25Q3215SPI_Flash_WriteEPhjt)
    _FLASH25Q32::SPI_Flash_ReadID()          0x080033e5   Thumb Code    68  dev_flash.o(i._ZN11_FLASH25Q3216SPI_Flash_ReadIDEv)
    _FLASH25Q32::SPI_Flash_ReadSR()          0x0800342d   Thumb Code    40  dev_flash.o(i._ZN11_FLASH25Q3216SPI_Flash_ReadSREv)
    _FLASH25Q32::SPI_Flash_Read_f(unsigned, float*, unsigned short) 0x08003459   Thumb Code    28  dev_flash.o(i._ZN11_FLASH25Q3216SPI_Flash_Read_fEjPft)
    _FLASH25Q32::SPI_Flash_Write_f(unsigned, float*, unsigned short) 0x08003475   Thumb Code    28  dev_flash.o(i._ZN11_FLASH25Q3217SPI_Flash_Write_fEjPft)
    _FLASH25Q32::SPI_Flash_Wait_Busy()       0x08003491   Thumb Code    22  dev_flash.o(i._ZN11_FLASH25Q3219SPI_Flash_Wait_BusyEv)
    _FLASH25Q32::SPI_Flash_Write_Page(unsigned char*, unsigned, unsigned short) 0x080034a9   Thumb Code    90  dev_flash.o(i._ZN11_FLASH25Q3220SPI_Flash_Write_PageEPhjt)
    _FLASH25Q32::SPI_FLASH_Write_Enable()    0x08003509   Thumb Code    28  dev_flash.o(i._ZN11_FLASH25Q3222SPI_FLASH_Write_EnableEv)
    _FLASH25Q32::SPI_Flash_Erase_Sector(unsigned) 0x08003529   Thumb Code    72  dev_flash.o(i._ZN11_FLASH25Q3222SPI_Flash_Erase_SectorEj)
    _FLASH25Q32::SPI_Flash_Write_NoCheck(unsigned char*, unsigned, unsigned short) 0x08003575   Thumb Code    74  dev_flash.o(i._ZN11_FLASH25Q3223SPI_Flash_Write_NoCheckEPhjt)
    _FLASH25Q32::Init_()                     0x080035c1   Thumb Code    36  dev_flash.o(i._ZN11_FLASH25Q325Init_Ev)
    Vector3f_px4::zero()                     0x080035f9   Thumb Code    26  estimator_utilities.o(i._ZN12Vector3f_px44zeroEv)
    Vector3f_px4::Vector3f_px4(float, float, float) 0x08003619   Thumb Code    14  estimator_22states.o(i._ZN12Vector3f_px4C1Efff)
    Vector3f_px4::Vector3f_px4__sub_object(float, float, float) 0x08003619   Thumb Code     0  estimator_22states.o(i._ZN12Vector3f_px4C1Efff)
    AttitudePositionEstimatorEKF::parameters_update() 0x08003629   Thumb Code   110  ekf_att_pos_estimator_main.o(i._ZN28AttitudePositionEstimatorEKF17parameters_updateEv)
    AttitudePositionEstimatorEKF::AttitudePositionEstimatorEKF() 0x080036bd   Thumb Code   254  ekf_att_pos_estimator_main.o(i._ZN28AttitudePositionEstimatorEKFC1Ev)
    AttitudePositionEstimatorEKF::AttitudePositionEstimatorEKF__sub_object() 0x080036bd   Thumb Code     0  ekf_att_pos_estimator_main.o(i._ZN28AttitudePositionEstimatorEKFC1Ev)
    AttitudePositionEstimatorEKF::~AttitudePositionEstimatorEKF() 0x080037c5   Thumb Code    14  ekf_att_pos_estimator_main.o(i._ZN28AttitudePositionEstimatorEKFD1Ev)
    AttitudePositionEstimatorEKF::~AttitudePositionEstimatorEKF__sub_object() 0x080037c5   Thumb Code     0  ekf_att_pos_estimator_main.o(i._ZN28AttitudePositionEstimatorEKFD1Ev)
    IMU::SensorSample()                      0x080037d5   Thumb Code    84  imu.o(i._ZN3IMU12SensorSampleEv)
    IMU::Init()                              0x08003839   Thumb Code    60  imu.o(i._ZN3IMU4InitEv)
    _DMA::Configuration()                    0x0800387d   Thumb Code   112  dev_dma.o(i._ZN4_DMA13ConfigurationEv)
    _I2C::SingleRead(unsigned char, unsigned char, unsigned char*) 0x080038f5   Thumb Code   110  dev_i2c.o(i._ZN4_I2C10SingleReadEhhPh)
    _I2C::SingleWrite(unsigned char, unsigned char, unsigned char) 0x08003963   Thumb Code    82  dev_i2c.o(i._ZN4_I2C11SingleWriteEhhh)
    _I2C::Ack()                              0x080039b5   Thumb Code    56  dev_i2c.o(i._ZN4_I2C3AckEv)
    _I2C::Stop()                             0x080039f1   Thumb Code    58  dev_i2c.o(i._ZN4_I2C4StopEv)
    _I2C::Delay()                            0x08003a31   Thumb Code    24  dev_i2c.o(i._ZN4_I2C5DelayEv)
    _I2C::NoAck()                            0x08003a49   Thumb Code    58  dev_i2c.o(i._ZN4_I2C5NoAckEv)
    _I2C::Start()                            0x08003a89   Thumb Code    92  dev_i2c.o(i._ZN4_I2C5StartEv)
    _I2C::WaitAck()                          0x08003ae9   Thumb Code    96  dev_i2c.o(i._ZN4_I2C7WaitAckEv)
    _I2C::MultRead(unsigned char, unsigned char, unsigned char, unsigned char*) 0x08003b4d   Thumb Code   136  dev_i2c.o(i._ZN4_I2C8MultReadEhhhPh)
    _I2C::ReadByte(unsigned char)            0x08003bd5   Thumb Code   102  dev_i2c.o(i._ZN4_I2C8ReadByteEh)
    _I2C::SendByte(unsigned char)            0x08003c41   Thumb Code    86  dev_i2c.o(i._ZN4_I2C8SendByteEh)
    _LED::Configuration()                    0x08003c9d   Thumb Code    28  dev_led.o(i._ZN4_LED13ConfigurationEv)
    _PID::Cal()                              0x08003cbd   Thumb Code    50  uav_pid.o(i._ZN4_PID3CalEv)
    _PID::Init(float, float, float)          0x08003cf1   Thumb Code   102  uav_pid.o(i._ZN4_PID4InitEfff)
    _PID::Err_i(float)                       0x08003d5d   Thumb Code    26  uav_pid.o(i._ZN4_PID5Err_iEf)
    _PID::GetErr(float)                      0x08003d77   Thumb Code    14  uav_pid.o(i._ZN4_PID6GetErrEf)
    _RCC::Configuration()                    0x08003d85   Thumb Code   100  dev_rcc.o(i._ZN4_RCC13ConfigurationEv)
    _UAV::Init()                             0x08003ded   Thumb Code   100  uav_init.o(i._ZN4_UAV4InitEv)
    Mat3f::identity()                        0x08003e7d   Thumb Code    74  estimator_utilities.o(i._ZN5Mat3f8identityEv)
    Mat3f::Mat3f()                           0x08003ecd   Thumb Code   148  estimator_22states.o(i._ZN5Mat3fC1Ev)
    Mat3f::Mat3f__sub_object()               0x08003ecd   Thumb Code     0  estimator_22states.o(i._ZN5Mat3fC1Ev)
    _ADRC::Init()                            0x08003f65   Thumb Code   146  uav_adrc.o(i._ZN5_ADRC4InitEv)
    _ADRC::Angular(float)                    0x08004011   Thumb Code  1862  uav_adrc.o(i._ZN5_ADRC7AngularEf)
    _MOTO::MotoBaseInit(TIM_TypeDef*, unsigned char) 0x08004771   Thumb Code   248  dev_moto.o(i._ZN5_MOTO12MotoBaseInitEP11TIM_TypeDefh)
    _MOTO::SetPwm(unsigned short*)           0x0800486d   Thumb Code    56  dev_moto.o(i._ZN5_MOTO6SetPwmEPt)
    _MOTO::MotoInit()                        0x080048a9   Thumb Code    38  dev_moto.o(i._ZN5_MOTO8MotoInitEv)
    _NVIC::Configuration()                   0x080048d5   Thumb Code   122  dev_nvic.o(i._ZN5_NVIC13ConfigurationEv)
    _PORT::Configuration()                   0x08004951   Thumb Code   444  dev_port.o(i._ZN5_PORT13ConfigurationEv)
    Filter::CF_Factor_Cal(float, float)      0x08004b21   Thumb Code    14  uav_filter.o(i._ZN6Filter13CF_Factor_CalEff)
    Filter::Moving_Average(float, float*, unsigned short, unsigned short*, float*) 0x08004b2f   Thumb Code    96  uav_filter.o(i._ZN6Filter14Moving_AverageEfPftPtS0_)
    Filter::LPF_1st_Factor_Cal(float, float) 0x08004b91   Thumb Code    30  uav_filter.o(i._ZN6Filter18LPF_1st_Factor_CalEff)
    Filter::LPF_2nd_Factor_Cal(float, float, Filter::LPF2ndData_t*) 0x08004bb5   Thumb Code   142  uav_filter.o(i._ZN6Filter18LPF_2nd_Factor_CalEffPNS_12LPF2ndData_tE)
    Filter::LPF_2nd(Filter::LPF2ndData_t*, Vector3<float>) 0x08004c49   Thumb Code   192  uav_filter.o(i._ZN6Filter7LPF_2ndEPNS_12LPF2ndData_tE7Vector3IfE)
    NAV_H_::Init()                           0x08004d0d   Thumb Code   126  nav_h.o(i._ZN6NAV_H_4InitEv)
    NAV_V_::get_ms_v(float)                  0x08004d91   Thumb Code   126  nav_speed.o(i._ZN6NAV_V_8get_ms_vEf)
    _DEBUS::RemotCall()                      0x08004e25   Thumb Code   108  dev_debus.o(i._ZN6_DEBUS9RemotCallEv)
    _US100::SampleTriger(float)              0x08004e95   Thumb Code    32  dev_us100.o(i._ZN6_US10012SampleTrigerEf)
    _US100::disCall()                        0x08004eb9   Thumb Code   176  dev_us100.o(i._ZN6_US1007disCallEv)
    _USART::Usart2Call()                     0x08004f81   Thumb Code   330  dev_usart.o(i._ZN6_USART10Usart2CallEv)
    _USART::Usart3Call()                     0x080050f1   Thumb Code    44  dev_usart.o(i._ZN6_USART10Usart3CallEv)
    _USART::Usart6Call()                     0x08005121   Thumb Code    34  dev_usart.o(i._ZN6_USART10Usart6CallEv)
    _USART::Configuration()                  0x0800514d   Thumb Code   250  dev_usart.o(i._ZN6_USART13ConfigurationEv)
    _USART::Uart2_Put_Buf(unsigned char*, unsigned char) 0x08005261   Thumb Code    68  dev_usart.o(i._ZN6_USART13Uart2_Put_BufEPhh)
    _AK8975::DataSample()                    0x080052b1   Thumb Code   360  dev_ak8975.o(i._ZN7_AK897510DataSampleEv)
    _AK8975::MagCalOffset()                  0x0800541d   Thumb Code   620  dev_ak8975.o(i._ZN7_AK897512MagCalOffsetEv)
    _AK8975::SampleTriger()                  0x080056b1   Thumb Code    18  dev_ak8975.o(i._ZN7_AK897512SampleTrigerEv)
    _MS5611::DataUpdate()                    0x080056c5   Thumb Code    64  dev_ms5611.o(i._ZN7_MS561110DataUpdateEv)
    _MS5611::Configuration()                 0x08005709   Thumb Code    40  dev_ms5611.o(i._ZN7_MS561113ConfigurationEv)
    _MS5611::PressureSample()                0x08005731   Thumb Code    22  dev_ms5611.o(i._ZN7_MS561114PressureSampleEv)
    _MS5611::BaroAltCalculate()              0x08005749   Thumb Code   760  dev_ms5611.o(i._ZN7_MS561116BaroAltCalculateEv)
    _MS5611::TemperatureSample()             0x08005a85   Thumb Code    22  dev_ms5611.o(i._ZN7_MS561117TemperatureSampleEv)
    _MS5611::PressureSampleTriger()          0x08005a9b   Thumb Code    18  dev_ms5611.o(i._ZN7_MS561120PressureSampleTrigerEv)
    _MS5611::TemperatureSampleTriger()       0x08005aad   Thumb Code    18  dev_ms5611.o(i._ZN7_MS561123TemperatureSampleTrigerEv)
    _MS5611::Reset()                         0x08005abf   Thumb Code    18  dev_ms5611.o(i._ZN7_MS56115ResetEv)
    _MS5611::ReadProm()                      0x08005ad1   Thumb Code    90  dev_ms5611.o(i._ZN7_MS56118ReadPromEv)
    _CONTROL::Init()                         0x08005b2d   Thumb Code   194  uav_control.o(i._ZN8_CONTROL4InitEv)
    _MAVLINK::Send_Check(unsigned char, unsigned char) 0x08005bf9   Thumb Code    72  dev_mavlink.o(i._ZN8_MAVLINK10Send_CheckEhh)
    _MAVLINK::Send_Power(unsigned short, unsigned short) 0x08005c41   Thumb Code   154  dev_mavlink.o(i._ZN8_MAVLINK10Send_PowerEtt)
    _MAVLINK::Send_RCData(unsigned short, unsigned short, unsigned short, unsigned short, unsigned short, unsigned short, unsigned short, unsigned short, unsigned short, unsigned short) 0x08005cdb   Thumb Code   392  dev_mavlink.o(i._ZN8_MAVLINK11Send_RCDataEtttttttttt)
    _MAVLINK::Send_Senser(short, short, short, short, short, short, short, short, short) 0x08005e63   Thumb Code   412  dev_mavlink.o(i._ZN8_MAVLINK11Send_SenserEsssssssss)
    _MAVLINK::Send_Status(float, float, float, int, unsigned char, unsigned char) 0x08006001   Thumb Code   368  dev_mavlink.o(i._ZN8_MAVLINK11Send_StatusEfffihh)
    _MAVLINK::Send_Senser2(int, unsigned short) 0x08006175   Thumb Code   186  dev_mavlink.o(i._ZN8_MAVLINK12Send_Senser2Eit)
    _MAVLINK::Send_Version(unsigned char, unsigned short, unsigned short, unsigned short, unsigned short) 0x0800622f   Thumb Code   216  dev_mavlink.o(i._ZN8_MAVLINK12Send_VersionEhtttt)
    _MAVLINK::Data_Exchange()                0x08006309   Thumb Code  1116  dev_mavlink.o(i._ZN8_MAVLINK13Data_ExchangeEv)
    _MAVLINK::Data_Receive_Anl(unsigned char*, unsigned char) 0x08006769   Thumb Code  1330  dev_mavlink.o(i._ZN8_MAVLINK16Data_Receive_AnlEPhh)
    _MAVLINK::Send_PID(unsigned char, float, float, float, float, float, float, float, float, float) 0x08006ca9   Thumb Code   606  dev_mavlink.o(i._ZN8_MAVLINK8Send_PIDEhfffffffff)
    _MAVLINK::Send_Data(unsigned char*, unsigned char) 0x08006f0d   Thumb Code    22  dev_mavlink.o(i._ZN8_MAVLINK9Send_DataEPhh)
    _MPU6050::DataSample()                   0x08006f29   Thumb Code   314  dev_mup6050.o(i._ZN8_MPU605010DataSampleEv)
    _MPU6050::GetGyro2dps()                  0x08007065   Thumb Code    78  dev_mup6050.o(i._ZN8_MPU605011GetGyro2dpsEv)
    _MPU6050::I2CwriteBit(unsigned char, unsigned char, unsigned char, unsigned char) 0x080070b9   Thumb Code    94  dev_mup6050.o(i._ZN8_MPU605011I2CwriteBitEhhhh)
    _MPU6050::AccCalOffset()                 0x08007119   Thumb Code   266  dev_mup6050.o(i._ZN8_MPU605012AccCalOffsetEv)
    _MPU6050::I2CwriteBits(unsigned char, unsigned char, unsigned char, unsigned char, unsigned char) 0x0800723d   Thumb Code   110  dev_mup6050.o(i._ZN8_MPU605012I2CwriteBitsEhhhhh)
    _MPU6050::SetI2CBypass(unsigned char)    0x080072ab   Thumb Code    22  dev_mup6050.o(i._ZN8_MPU605012SetI2CBypassEh)
    _MPU6050::Configuration(unsigned short)  0x080072c1   Thumb Code   194  dev_mup6050.o(i._ZN8_MPU605013ConfigurationEt)
    _MPU6050::GyroCalOffset()                0x08007385   Thumb Code   216  dev_mup6050.o(i._ZN8_MPU605013GyroCalOffsetEv)
    _MPU6050::GyroAutoOffset(unsigned char)  0x08007471   Thumb Code   588  dev_mup6050.o(i._ZN8_MPU605014GyroAutoOffsetEh)
    _MPU6050::SetClockSource(unsigned char)  0x080076c5   Thumb Code    26  dev_mup6050.o(i._ZN8_MPU605014SetClockSourceEh)
    _MPU6050::SetI2CMasterMode(unsigned char) 0x080076df   Thumb Code    22  dev_mup6050.o(i._ZN8_MPU605016SetI2CMasterModeEh)
    _MPU6050::SetFullScaleGyroRange(unsigned char) 0x080076f5   Thumb Code    46  dev_mup6050.o(i._ZN8_MPU605021SetFullScaleGyroRangeEh)
    _MPU6050::SetFullScaleAccelRange(unsigned char) 0x08007723   Thumb Code    46  dev_mup6050.o(i._ZN8_MPU605022SetFullScaleAccelRangeEh)
    _MPU6050::Read()                         0x08007751   Thumb Code    24  dev_mup6050.o(i._ZN8_MPU60504ReadEv)
    _MPU6050::SetDLPF(unsigned char)         0x08007769   Thumb Code    26  dev_mup6050.o(i._ZN8_MPU60507SetDLPFEh)
    _MPU6050::SetSleep(unsigned char)        0x08007783   Thumb Code    22  dev_mup6050.o(i._ZN8_MPU60508SetSleepEh)
    _MPU6050::SetSample(unsigned short)      0x08007799   Thumb Code    32  dev_mup6050.o(i._ZN8_MPU60509SetSampleEt)
    _MPU6050::_MPU6050()                     0x080077b9   Thumb Code   150  dev_mup6050.o(i._ZN8_MPU6050C1Ev)
    _MPU6050::_MPU6050__sub_object()         0x080077b9   Thumb Code     0  dev_mup6050.o(i._ZN8_MPU6050C1Ev)
    AttPosEKF::ZeroVariables()               0x08007851   Thumb Code   460  estimator_22states.o(i._ZN9AttPosEKF13ZeroVariablesEv)
    AttPosEKF::ConstrainFloat(float, float, float) 0x08007a35   Thumb Code   170  estimator_22states.o(i._ZN9AttPosEKF14ConstrainFloatEfff)
    AttPosEKF::mag_state_struct::mag_state_struct() 0x08007b31   Thumb Code    20  estimator_22states.o(i._ZN9AttPosEKF16mag_state_structC1Ev)
    AttPosEKF::mag_state_struct::mag_state_struct__sub_object() 0x08007b31   Thumb Code     0  estimator_22states.o(i._ZN9AttPosEKF16mag_state_structC1Ev)
    AttPosEKF::InitialiseParameters()        0x08007b45   Thumb Code   206  estimator_22states.o(i._ZN9AttPosEKF20InitialiseParametersEv)
    AttPosEKF::AttPosEKF()                   0x08007c45   Thumb Code  1166  estimator_22states.o(i._ZN9AttPosEKFC1Ev)
    AttPosEKF::AttPosEKF__sub_object()       0x08007c45   Thumb Code     0  estimator_22states.o(i._ZN9AttPosEKFC1Ev)
    AttPosEKF::~AttPosEKF()                  0x080080d3   Thumb Code     2  estimator_22states.o(i._ZN9AttPosEKFD1Ev)
    AttPosEKF::~AttPosEKF__sub_object()      0x080080d3   Thumb Code     0  estimator_22states.o(i._ZN9AttPosEKFD1Ev)
    _ATTITUDE::DISControl(float)             0x080080d5   Thumb Code   526  uav_attitude.o(i._ZN9_ATTITUDE10DISControlEf)
    _ATTITUDE::Init()                        0x08008319   Thumb Code   130  uav_attitude.o(i._ZN9_ATTITUDE4InitEv)
    __0printf                                0x080083a5   Thumb Code    22  printfa.o(i.__0printf)
    __1printf                                0x080083a5   Thumb Code     0  printfa.o(i.__0printf)
    __2printf                                0x080083a5   Thumb Code     0  printfa.o(i.__0printf)
    __c89printf                              0x080083a5   Thumb Code     0  printfa.o(i.__0printf)
    printf                                   0x080083a5   Thumb Code     0  printfa.o(i.__0printf)
    __ARM_isfinitef                          0x080083c5   Thumb Code    18  ekf_att_pos_estimator_main.o(i.__ARM_isfinitef)
    __aeabi_atexit                           0x080083d7   Thumb Code    50  aeabi_atexit.o(i.__aeabi_atexit)
    __cxa_finalize                           0x08008409   Thumb Code    66  cxa_finalize.o(i.__cxa_finalize)
    __cxa_guard_acquire                      0x0800844b   Thumb Code    16  cxa_guard_acquire.o(i.__cxa_guard_acquire)
    __hardfp_sqrtf                           0x0800845b   Thumb Code    58  sqrtf.o(i.__hardfp_sqrtf)
    __scatterload_copy                       0x08008495   Thumb Code    14  handlers.o(i.__scatterload_copy)
    __scatterload_null                       0x080084a3   Thumb Code     2  handlers.o(i.__scatterload_null)
    __scatterload_zeroinit                   0x080084a5   Thumb Code    14  handlers.o(i.__scatterload_zeroinit)
    __set_errno                              0x080084b5   Thumb Code     6  errno.o(i.__set_errno)
    fputc                                    0x08008ea9   Thumb Code    32  dev_usart.o(i.fputc)
    free                                     0x08008ecd   Thumb Code    76  malloc.o(i.free)
    main                                     0x08008f1d   Thumb Code   100  uav_task.o(i.main)
    malloc                                   0x08008f8d   Thumb Code    92  malloc.o(i.malloc)
    Vector3<float>::Vector3(float, float, float) 0x08008ff9   Thumb Code    14  imu_dcm.o(t._ZN7Vector3IfEC1Efff)
    Vector3<float>::Vector3__sub_object(float, float, float) 0x08008ff9   Thumb Code     0  imu_dcm.o(t._ZN7Vector3IfEC1Efff)
    Vector3<float>::Vector3()                0x08009009   Thumb Code    18  imu.o(t._ZN7Vector3IfEC1Ev)
    Vector3<float>::Vector3__sub_object()    0x08009009   Thumb Code     0  imu.o(t._ZN7Vector3IfEC1Ev)
    Vector3<float>::operator ()(float, float, float) 0x08009021   Thumb Code    14  dev_ak8975.o(t._ZN7Vector3IfEclEfff)
    Vector3<float>::operator +=(const Vector3<float>&) 0x0800902f   Thumb Code    50  cal_vector3.o(t._ZN7Vector3IfEpLERKS0_)
    Vector3<short>::Vector3()                0x08009061   Thumb Code    10  uav_filter.o(t._ZN7Vector3IsEC1Ev)
    Vector3<short>::Vector3__sub_object()    0x08009061   Thumb Code     0  uav_filter.o(t._ZN7Vector3IsEC1Ev)
    Vector3<float>::operator /(float) const  0x0800906b   Thumb Code    88  cal_vector3.o(t._ZNK7Vector3IfEdvEf)
    Vector3<float>::operator -(const Vector3<float>&) const 0x080090c3   Thumb Code    74  cal_vector3.o(t._ZNK7Vector3IfEmiERKS0_)
    Vector3<float>::operator *(const Vector3<float>&) const 0x0800910d   Thumb Code    38  cal_vector3.o(t._ZNK7Vector3IfEmlERKS0_)
    Vector3<float>::operator *(float) const  0x08009133   Thumb Code    76  cal_vector3.o(t._ZNK7Vector3IfEmlEf)
    Vector3<float>::operator +(const Vector3<float>&) const 0x0800917f   Thumb Code    74  cal_vector3.o(t._ZNK7Vector3IfEplERKS0_)
    Region$$Table$$Base                      0x080091ec   Number         0  anon$$obj.o(Region$$Table)
    Region$$Table$$Limit                     0x0800920c   Number         0  anon$$obj.o(Region$$Table)
    SHT$$INIT_ARRAY$$Base                    0x0800920c   Number         0  uav_task.o(.init_array)
    SHT$$INIT_ARRAY$$Limit                   0x0800922c   Number         0  cpp_init.o(.init_array)
    counT                                    0x20000000   Data           4  uav_task.o(.data)
    up                                       0x20000004   Data           4  uav_task.o(.data)
    Control                                  0x20000008   Data           1  uav_control.o(.data)
    Adrc_                                    0x2000000c   Data           1  uav_adrc.o(.data)
    sgt                                      0x20000010   Data           4  uav_adrc.o(.data)
    agut                                     0x20000014   Data           4  uav_adrc.o(.data)
    filter                                   0x2000001c   Data           1  uav_filter.o(.data)
    h                                        0x20000084   Data           2  nav_speed.o(.data)
    k                                        0x20000088   Data           4  nav_speed.o(.data)
    i                                        0x2000008c   Data           4  nav_speed.o(.data)
    Led                                      0x200000a8   Data           1  dev_led.o(.data)
    Moto                                     0x200000a9   Data           1  dev_moto.o(.data)
    Usart                                    0x200000aa   Data           1  dev_usart.o(.data)
    TxCounter                                0x200000ab   Data           1  dev_usart.o(.data)
    count                                    0x200000ac   Data           1  dev_usart.o(.data)
    sysTickUptime                            0x200000b0   Data           4  dev_clock.o(.data)
    loop_cnt                                 0x200000b4   Data           2  dev_clock.o(.data)
    time_1h                                  0x200000b8   Data           4  dev_clock.o(.data)
    time_1m                                  0x200000bc   Data           4  dev_clock.o(.data)
    time_1s                                  0x200000c0   Data           4  dev_clock.o(.data)
    time_1ms                                 0x200000c4   Data           4  dev_clock.o(.data)
    TransferError                            0x200000ee   Data           1  dev_sd.o(.data)
    TransferEnd                              0x200000ef   Data           1  dev_sd.o(.data)
    tempbuff                                 0x200000f0   Data           4  dev_sd.o(.data)
    state                                    0x200000f4   Data           4  dev_sd.o(.data)
    adrr1                                    0x20000108   Data           4  dev_flash.o(.data)
    adrr2                                    0x2000010c   Data           4  dev_flash.o(.data)
    adrr3                                    0x20000110   Data           4  dev_flash.o(.data)
    adrr4                                    0x20000114   Data           4  dev_flash.o(.data)
    flash25q32                               0x20000118   Data           1  dev_flash.o(.data)
    SPI_FLASH_TYPE                           0x2000011a   Data           2  dev_flash.o(.data)
    GPSUSART_RX_ready                        0x2000011e   Data           1  dev_gps.o(.data)
    GPSUSART_RX_STA                          0x20000120   Data           2  dev_gps.o(.data)
    rtInf                                    0x20000128   Data           8  rt_nonfinite.o(.data)
    rtMinusInf                               0x20000130   Data           8  rt_nonfinite.o(.data)
    rtNaN                                    0x20000138   Data           8  rt_nonfinite.o(.data)
    rtInfF                                   0x20000140   Data           4  rt_nonfinite.o(.data)
    rtMinusInfF                              0x20000144   Data           4  rt_nonfinite.o(.data)
    rtNaNF                                   0x20000148   Data           4  rt_nonfinite.o(.data)
    ctrl                                     0x2000014c   Data           8  control_v.o(.data)
    __stdout                                 0x20000168   Data           4  stdout.o(.data)
    __microlib_freelist                      0x20000174   Data           4  mvars.o(.data)
    __microlib_freelist_initialised          0x20000178   Data           4  mvars.o(.data)
    UAV                                      0x2000017c   Data          12  uav_task.o(.bss)
    qAngle                                   0x20000188   Data         192  uav_control.o(.bss)
    qAngular                                 0x20000248   Data         192  uav_control.o(.bss)
    td                                       0x20000320   Data          48  uav_adrc.o(.bss)
    tdr                                      0x20000350   Data          48  uav_adrc.o(.bss)
    eptd                                     0x20000380   Data          48  uav_adrc.o(.bss)
    ottd                                     0x200003b0   Data          48  uav_adrc.o(.bss)
    aglp                                     0x200003e0   Data          84  uav_adrc.o(.bss)
    epag                                     0x20000434   Data          12  uav_adrc.o(.bss)
    agulp                                    0x20000440   Data          84  uav_adrc.o(.bss)
    Rc                                       0x200004a0   Data          52  uav_rc.o(.bss)
    Pamameter                                0x200004d4   Data         160  uav_parameter.o(.bss)
    att_ekf                                  0x20000578   Data       13776  ekf_att_pos_estimator_main.o(.bss)
    att_pos_ekf                              0x20003b48   Data       13256  ekf_att_pos_estimator_main.o(.bss)
    imu                                      0x20006f10   Data          88  imu.o(.bss)
    z_dis                                    0x20006f68   Data         128  uav_attitude.o(.bss)
    z_spe                                    0x20006fe8   Data         128  uav_attitude.o(.bss)
    Attitude                                 0x20007068   Data          92  uav_attitude.o(.bss)
    nav_v                                    0x200070c4   Data          20  nav_speed.o(.bss)
    nav_h                                    0x200070d8   Data         168  nav_h.o(.bss)
    X                                        0x20007180   Data          12  nav_h_ekf.o(.bss)
    P                                        0x2000718c   Data          36  nav_h_ekf.o(.bss)
    TxBuffer                                 0x200071b0   Data         256  dev_usart.o(.bss)
    Debus                                    0x200072e2   Data          12  dev_debus.o(.bss)
    Cycle_T                                  0x200072f0   Data          48  dev_clock.o(.bss)
    loop                                     0x20007320   Data          18  dev_clock.o(.bss)
    Ak8975                                   0x20007334   Data          60  dev_ak8975.o(.bss)
    Mavlink                                  0x2000737c   Data          65  dev_mavlink.o(.bss)
    debug                                    0x200073be   Data          20  dev_mavlink.o(.bss)
    Ms5611                                   0x200073d4   Data         296  dev_ms5611.o(.bss)
    SDIO_InitStructure                       0x20007500   Data          24  dev_sd.o(.bss)
    SDIO_CmdInitStructure                    0x20007518   Data          20  dev_sd.o(.bss)
    SDIO_DataInitStructure                   0x2000752c   Data          24  dev_sd.o(.bss)
    SDCardInfo                               0x20007568   Data          88  dev_sd.o(.bss)
    SDIO_DATA_BUFFER                         0x200075c0   Data         512  dev_sd.o(.bss)
    Mpu6050                                  0x200077c0   Data         176  dev_mup6050.o(.bss)
    SPI_InitStructure                        0x20007888   Data          18  dev_spi.o(.bss)
    SPI_FLASH_BUF                            0x2000789a   Data        4096  dev_flash.o(.bss)
    Dma                                      0x2000889a   Data          18  dev_dma.o(.bss)
    Us100                                    0x200088ac   Data          20  dev_us100.o(.bss)
    gpsx                                     0x200088c0   Data         105  dev_gps.o(.bss)
    GPSUSART_RX_BUF                          0x20008929   Data         800  dev_gps.o(.bss)
    GPSUSART_RX_BUF_old                      0x20008c49   Data         800  dev_gps.o(.bss)
    GPSUSART_TX_BUF                          0x20008f69   Data         300  dev_gps.o(.bss)
    __heap_base                              0x20009098   Data           0  startup_stm32f40_41xxx.o(HEAP)
    __heap_limit                             0x20009298   Data           0  startup_stm32f40_41xxx.o(HEAP)
    __initial_sp                             0x20009698   Data           0  startup_stm32f40_41xxx.o(STACK)



==============================================================================

Memory Map of the image

  Image Entry point : 0x08000189

  Load Region LR_IROM1 (Base: 0x08000000, Size: 0x000093a8, Max: 0x00100000, ABSOLUTE, COMPRESSED[0x0000925c])

    Execution Region ER_IROM1 (Base: 0x08000000, Size: 0x0000922c, Max: 0x00100000, ABSOLUTE)

    Base Addr    Size         Type   Attr      Idx    E Section Name        Object

    0x08000000   0x00000188   Data   RO         5702    RESET               startup_stm32f40_41xxx.o
    0x08000188   0x00000000   Code   RO         7680  * .ARM.Collect$$$$00000000  mc_w.l(entry.o)
    0x08000188   0x00000004   Code   RO         8033    .ARM.Collect$$$$00000001  mc_w.l(entry2.o)
    0x0800018c   0x00000004   Code   RO         8036    .ARM.Collect$$$$00000004  mc_w.l(entry5.o)
    0x08000190   0x00000000   Code   RO         8038    .ARM.Collect$$$$00000008  mc_w.l(entry7b.o)
    0x08000190   0x00000004   Code   RO         8039    .ARM.Collect$$$$00000009  mc_w.l(entry8a.o)
    0x08000194   0x00000000   Code   RO         8040    .ARM.Collect$$$$0000000A  mc_w.l(entry8b.o)
    0x08000194   0x00000008   Code   RO         8041    .ARM.Collect$$$$0000000B  mc_w.l(entry9a.o)
    0x0800019c   0x00000000   Code   RO         8043    .ARM.Collect$$$$0000000D  mc_w.l(entry10a.o)
    0x0800019c   0x00000000   Code   RO         8045    .ARM.Collect$$$$0000000F  mc_w.l(entry11a.o)
    0x0800019c   0x00000004   Code   RO         8034    .ARM.Collect$$$$00002712  mc_w.l(entry2.o)
    0x080001a0   0x00000024   Code   RO         5703    .text               startup_stm32f40_41xxx.o
    0x080001c4   0x00000062   Code   RO         7683    .text               mc_w.l(uldiv.o)
    0x08000226   0x00000024   Code   RO         7689    .text               mc_w.l(memseta.o)
    0x0800024a   0x00000024   Code   RO         7691    .text               mc_w.l(strstr.o)
    0x0800026e   0x00000002   PAD
    0x08000270   0x00000020   Code   RO         7959    .text               mc_w.l(cpp_init.o)
    0x08000290   0x0000014e   Code   RO         7961    .text               mf_w.l(dadd.o)
    0x080003de   0x000000e4   Code   RO         7963    .text               mf_w.l(dmul.o)
    0x080004c2   0x000000de   Code   RO         7965    .text               mf_w.l(ddiv.o)
    0x080005a0   0x00000026   Code   RO         7975    .text               mf_w.l(f2d.o)
    0x080005c6   0x00000002   PAD
    0x080005c8   0x00000030   Code   RO         7977    .text               mf_w.l(cdcmple.o)
    0x080005f8   0x00000030   Code   RO         7979    .text               mf_w.l(cdrcmple.o)
    0x08000628   0x00000038   Code   RO         7981    .text               mf_w.l(d2f.o)
    0x08000660   0x0000002c   Code   RO         8048    .text               mc_w.l(uidiv.o)
    0x0800068c   0x0000001e   Code   RO         8050    .text               mc_w.l(llshl.o)
    0x080006aa   0x00000020   Code   RO         8052    .text               mc_w.l(llushr.o)
    0x080006ca   0x00000024   Code   RO         8054    .text               mc_w.l(llsshr.o)
    0x080006ee   0x00000000   Code   RO         8091    .text               mc_w.l(iusefp.o)
    0x080006ee   0x00000002   PAD
    0x080006f0   0x00000008   Code   RO         8092    .text               mc_w.l(cpp_dtor.o)
    0x080006f8   0x00000002   Code   RO         8095    .text               mc_w.l(cpp_final.o)
    0x080006fa   0x0000006e   Code   RO         8100    .text               mf_w.l(fepilogue.o)
    0x08000768   0x000000ba   Code   RO         8102    .text               mf_w.l(depilogue.o)
    0x08000822   0x00000030   Code   RO         8104    .text               mf_w.l(dfixul.o)
    0x08000852   0x00000002   PAD
    0x08000854   0x00000024   Code   RO         8112    .text               mc_w.l(init.o)
    0x08000878   0x00000056   Code   RO         8128    .text               mc_w.l(__dczerorl2.o)
    0x080008ce   0x00000004   Code   RO         5126    i.BusFault_Handler  stm32f4xx_it.o
    0x080008d2   0x00000002   PAD
    0x080008d4   0x00000034   Code   RO         4067    i.DMA2_Stream2_IRQHandler  dev_dma.o
    0x08000908   0x00000034   Code   RO         5907    i.DMA_ClearFlag     F407lib.lib(stm32f4xx_dma.o)
    0x0800093c   0x00000034   Code   RO         5908    i.DMA_ClearITPendingBit  F407lib.lib(stm32f4xx_dma.o)
    0x08000970   0x00000016   Code   RO         5909    i.DMA_Cmd           F407lib.lib(stm32f4xx_dma.o)
    0x08000986   0x00000002   PAD
    0x08000988   0x00000158   Code   RO         5910    i.DMA_DeInit        F407lib.lib(stm32f4xx_dma.o)
    0x08000ae0   0x00000064   Code   RO         5919    i.DMA_GetITStatus   F407lib.lib(stm32f4xx_dma.o)
    0x08000b44   0x0000003a   Code   RO         5920    i.DMA_ITConfig      F407lib.lib(stm32f4xx_dma.o)
    0x08000b7e   0x00000002   PAD
    0x08000b80   0x00000058   Code   RO         5921    i.DMA_Init          F407lib.lib(stm32f4xx_dma.o)
    0x08000bd8   0x00000002   Code   RO         5127    i.DebugMon_Handler  stm32f4xx_it.o
    0x08000bda   0x00000090   Code   RO         6040    i.GPIO_Init         F407lib.lib(stm32f4xx_gpio.o)
    0x08000c6a   0x00000046   Code   RO         6041    i.GPIO_PinAFConfig  F407lib.lib(stm32f4xx_gpio.o)
    0x08000cb0   0x00000004   Code   RO         6047    i.GPIO_ResetBits    F407lib.lib(stm32f4xx_gpio.o)
    0x08000cb4   0x00000004   Code   RO         6048    i.GPIO_SetBits      F407lib.lib(stm32f4xx_gpio.o)
    0x08000cb8   0x00000004   Code   RO         5128    i.HardFault_Handler  stm32f4xx_it.o
    0x08000cbc   0x00000004   Code   RO         5129    i.MemManage_Handler  stm32f4xx_it.o
    0x08000cc0   0x00000002   Code   RO         5130    i.NMI_Handler       stm32f4xx_it.o
    0x08000cc2   0x00000002   PAD
    0x08000cc4   0x00000078   Code   RO         5754    i.NVIC_Init         F407lib.lib(misc.o)
    0x08000d3c   0x00000014   Code   RO         5755    i.NVIC_PriorityGroupConfig  F407lib.lib(misc.o)
    0x08000d50   0x00000002   Code   RO         5131    i.PendSV_Handler    stm32f4xx_it.o
    0x08000d52   0x00000002   PAD
    0x08000d54   0x00000020   Code   RO         6141    i.RCC_AHB1PeriphClockCmd  F407lib.lib(stm32f4xx_rcc.o)
    0x08000d74   0x00000020   Code   RO         6150    i.RCC_APB1PeriphClockCmd  F407lib.lib(stm32f4xx_rcc.o)
    0x08000d94   0x00000020   Code   RO         6152    i.RCC_APB1PeriphResetCmd  F407lib.lib(stm32f4xx_rcc.o)
    0x08000db4   0x00000020   Code   RO         6153    i.RCC_APB2PeriphClockCmd  F407lib.lib(stm32f4xx_rcc.o)
    0x08000dd4   0x00000020   Code   RO         6155    i.RCC_APB2PeriphResetCmd  F407lib.lib(stm32f4xx_rcc.o)
    0x08000df4   0x000000e8   Code   RO         6162    i.RCC_GetClocksFreq  F407lib.lib(stm32f4xx_rcc.o)
    0x08000edc   0x0000000c   Code   RO         6426    i.SDIO_ClearFlag    F407lib.lib(stm32f4xx_sdio.o)
    0x08000ee8   0x00000018   Code   RO         6438    i.SDIO_GetFlagStatus  F407lib.lib(stm32f4xx_sdio.o)
    0x08000f00   0x00000008   Code   RO         3431    i.SDIO_IRQHandler   dev_sd.o
    0x08000f08   0x0000002c   Code   RO         6446    i.SDIO_SendCommand  F407lib.lib(stm32f4xx_sdio.o)
    0x08000f34   0x00000018   Code   RO         6629    i.SPI_Cmd           F407lib.lib(stm32f4xx_spi.o)
    0x08000f4c   0x00000012   Code   RO         6637    i.SPI_I2S_GetFlagStatus  F407lib.lib(stm32f4xx_spi.o)
    0x08000f5e   0x00000006   Code   RO         6640    i.SPI_I2S_ReceiveData  F407lib.lib(stm32f4xx_spi.o)
    0x08000f64   0x00000004   Code   RO         6641    i.SPI_I2S_SendData  F407lib.lib(stm32f4xx_spi.o)
    0x08000f68   0x0000003c   Code   RO         6642    i.SPI_Init          F407lib.lib(stm32f4xx_spi.o)
    0x08000fa4   0x00000002   Code   RO         5132    i.SVC_Handler       stm32f4xx_it.o
    0x08000fa6   0x00000028   Code   RO         5758    i.SysTick_CLKSourceConfig  F407lib.lib(misc.o)
    0x08000fce   0x00000002   PAD
    0x08000fd0   0x00000018   Code   RO         3043    i.SysTick_Handler   dev_clock.o
    0x08000fe8   0x00000068   Code   RO         5711    i.SystemInit        system_stm32f4xx.o
    0x08001050   0x00000018   Code   RO         6795    i.TIM_ARRPreloadConfig  F407lib.lib(stm32f4xx_tim.o)
    0x08001068   0x00000018   Code   RO         6807    i.TIM_Cmd           F407lib.lib(stm32f4xx_tim.o)
    0x08001080   0x0000001e   Code   RO         6809    i.TIM_CtrlPWMOutputs  F407lib.lib(stm32f4xx_tim.o)
    0x0800109e   0x00000002   PAD
    0x080010a0   0x0000007c   Code   RO         6836    i.TIM_OC1Init       F407lib.lib(stm32f4xx_tim.o)
    0x0800111c   0x00000012   Code   RO         6839    i.TIM_OC1PreloadConfig  F407lib.lib(stm32f4xx_tim.o)
    0x0800112e   0x00000002   PAD
    0x08001130   0x000000a4   Code   RO         6841    i.TIM_OC2Init       F407lib.lib(stm32f4xx_tim.o)
    0x080011d4   0x0000001a   Code   RO         6844    i.TIM_OC2PreloadConfig  F407lib.lib(stm32f4xx_tim.o)
    0x080011ee   0x00000002   PAD
    0x080011f0   0x000000a0   Code   RO         6846    i.TIM_OC3Init       F407lib.lib(stm32f4xx_tim.o)
    0x08001290   0x00000012   Code   RO         6849    i.TIM_OC3PreloadConfig  F407lib.lib(stm32f4xx_tim.o)
    0x080012a2   0x00000002   PAD
    0x080012a4   0x00000078   Code   RO         6851    i.TIM_OC4Init       F407lib.lib(stm32f4xx_tim.o)
